ARM GAS  C:\Users\herreral\AppData\Local\Temp\ccerEoBk.s 			page 1


   1              		.syntax unified
   2              		.cpu cortex-m3
   3              		.fpu softvfp
   4              		.eabi_attribute 20, 1
   5              		.eabi_attribute 21, 1
   6              		.eabi_attribute 23, 3
   7              		.eabi_attribute 24, 1
   8              		.eabi_attribute 25, 1
   9              		.eabi_attribute 26, 1
  10              		.eabi_attribute 30, 6
  11              		.eabi_attribute 34, 1
  12              		.eabi_attribute 18, 4
  13              		.thumb
  14              		.syntax unified
  15              		.file	"LF_DAC_1_PM.c"
  16              		.text
  17              	.Ltext0:
  18              		.cfi_sections	.debug_frame
  19              		.bss
  20              		.align	2
  21              	LF_DAC_1_backup:
  22 0000 00       		.space	1
  23              		.section	.text.LF_DAC_1_Sleep,"ax",%progbits
  24              		.align	2
  25              		.global	LF_DAC_1_Sleep
  26              		.thumb
  27              		.thumb_func
  28              		.type	LF_DAC_1_Sleep, %function
  29              	LF_DAC_1_Sleep:
  30              	.LFB0:
  31              		.file 1 "Generated_Source\\PSoC5\\LF_DAC_1_PM.c"
   1:Generated_Source\PSoC5/LF_DAC_1_PM.c **** /*******************************************************************************
   2:Generated_Source\PSoC5/LF_DAC_1_PM.c **** * File Name: LF_DAC_1_PM.c  
   3:Generated_Source\PSoC5/LF_DAC_1_PM.c **** * Version 2.10
   4:Generated_Source\PSoC5/LF_DAC_1_PM.c **** *
   5:Generated_Source\PSoC5/LF_DAC_1_PM.c **** * Description:
   6:Generated_Source\PSoC5/LF_DAC_1_PM.c **** *  This file provides the power manager source code to the API for 
   7:Generated_Source\PSoC5/LF_DAC_1_PM.c **** *  the WaveDAC8 component.
   8:Generated_Source\PSoC5/LF_DAC_1_PM.c **** *
   9:Generated_Source\PSoC5/LF_DAC_1_PM.c **** ********************************************************************************
  10:Generated_Source\PSoC5/LF_DAC_1_PM.c **** * Copyright 2013, Cypress Semiconductor Corporation.  All rights reserved.
  11:Generated_Source\PSoC5/LF_DAC_1_PM.c **** * You may use this file only in accordance with the license, terms, conditions, 
  12:Generated_Source\PSoC5/LF_DAC_1_PM.c **** * disclaimers, and limitations in the end user license agreement accompanying 
  13:Generated_Source\PSoC5/LF_DAC_1_PM.c **** * the software package with which this file was provided.
  14:Generated_Source\PSoC5/LF_DAC_1_PM.c **** *******************************************************************************/
  15:Generated_Source\PSoC5/LF_DAC_1_PM.c **** 
  16:Generated_Source\PSoC5/LF_DAC_1_PM.c **** #include "LF_DAC_1.h"
  17:Generated_Source\PSoC5/LF_DAC_1_PM.c **** 
  18:Generated_Source\PSoC5/LF_DAC_1_PM.c **** static LF_DAC_1_BACKUP_STRUCT  LF_DAC_1_backup;
  19:Generated_Source\PSoC5/LF_DAC_1_PM.c **** 
  20:Generated_Source\PSoC5/LF_DAC_1_PM.c **** 
  21:Generated_Source\PSoC5/LF_DAC_1_PM.c **** /*******************************************************************************
  22:Generated_Source\PSoC5/LF_DAC_1_PM.c **** * Function Name: LF_DAC_1_Sleep
  23:Generated_Source\PSoC5/LF_DAC_1_PM.c **** ********************************************************************************
  24:Generated_Source\PSoC5/LF_DAC_1_PM.c **** *
  25:Generated_Source\PSoC5/LF_DAC_1_PM.c **** * Summary:
  26:Generated_Source\PSoC5/LF_DAC_1_PM.c **** *  Stops the component and saves its configuration. Should be called 
ARM GAS  C:\Users\herreral\AppData\Local\Temp\ccerEoBk.s 			page 2


  27:Generated_Source\PSoC5/LF_DAC_1_PM.c **** *  just prior to entering sleep.
  28:Generated_Source\PSoC5/LF_DAC_1_PM.c **** *  
  29:Generated_Source\PSoC5/LF_DAC_1_PM.c **** * Parameters:  
  30:Generated_Source\PSoC5/LF_DAC_1_PM.c **** *  None
  31:Generated_Source\PSoC5/LF_DAC_1_PM.c **** *
  32:Generated_Source\PSoC5/LF_DAC_1_PM.c **** * Return: 
  33:Generated_Source\PSoC5/LF_DAC_1_PM.c **** *  None
  34:Generated_Source\PSoC5/LF_DAC_1_PM.c **** *
  35:Generated_Source\PSoC5/LF_DAC_1_PM.c **** * Global variables:
  36:Generated_Source\PSoC5/LF_DAC_1_PM.c **** *  LF_DAC_1_backup:  The structure field 'enableState' is modified 
  37:Generated_Source\PSoC5/LF_DAC_1_PM.c **** *  depending on the enable state of the block before entering to sleep mode.
  38:Generated_Source\PSoC5/LF_DAC_1_PM.c **** *
  39:Generated_Source\PSoC5/LF_DAC_1_PM.c **** * Reentrant:
  40:Generated_Source\PSoC5/LF_DAC_1_PM.c **** *  No
  41:Generated_Source\PSoC5/LF_DAC_1_PM.c **** *
  42:Generated_Source\PSoC5/LF_DAC_1_PM.c **** *******************************************************************************/
  43:Generated_Source\PSoC5/LF_DAC_1_PM.c **** void LF_DAC_1_Sleep(void) 
  44:Generated_Source\PSoC5/LF_DAC_1_PM.c **** {
  32              		.loc 1 44 0
  33              		.cfi_startproc
  34              		@ args = 0, pretend = 0, frame = 0
  35              		@ frame_needed = 1, uses_anonymous_args = 0
  36 0000 80B5     		push	{r7, lr}
  37              		.cfi_def_cfa_offset 8
  38              		.cfi_offset 7, -8
  39              		.cfi_offset 14, -4
  40 0002 00AF     		add	r7, sp, #0
  41              		.cfi_def_cfa_register 7
  45:Generated_Source\PSoC5/LF_DAC_1_PM.c **** 	/* Save DAC8's enable state */
  46:Generated_Source\PSoC5/LF_DAC_1_PM.c **** 
  47:Generated_Source\PSoC5/LF_DAC_1_PM.c **** 	LF_DAC_1_backup.enableState = (LF_DAC_1_VDAC8_ACT_PWR_EN == 
  48:Generated_Source\PSoC5/LF_DAC_1_PM.c **** 		(LF_DAC_1_VDAC8_PWRMGR_REG & LF_DAC_1_VDAC8_ACT_PWR_EN)) ? 1u : 0u ;
  42              		.loc 1 48 0
  43 0004 084B     		ldr	r3, .L4
  44 0006 1B78     		ldrb	r3, [r3]
  45 0008 DBB2     		uxtb	r3, r3
  46 000a 03F00803 		and	r3, r3, #8
  47:Generated_Source\PSoC5/LF_DAC_1_PM.c **** 		(LF_DAC_1_VDAC8_PWRMGR_REG & LF_DAC_1_VDAC8_ACT_PWR_EN)) ? 1u : 0u ;
  47              		.loc 1 47 0
  48 000e 002B     		cmp	r3, #0
  49 0010 01D0     		beq	.L2
  47:Generated_Source\PSoC5/LF_DAC_1_PM.c **** 		(LF_DAC_1_VDAC8_PWRMGR_REG & LF_DAC_1_VDAC8_ACT_PWR_EN)) ? 1u : 0u ;
  50              		.loc 1 47 0 is_stmt 0 discriminator 1
  51 0012 0122     		movs	r2, #1
  52 0014 00E0     		b	.L3
  53              	.L2:
  47:Generated_Source\PSoC5/LF_DAC_1_PM.c **** 		(LF_DAC_1_VDAC8_PWRMGR_REG & LF_DAC_1_VDAC8_ACT_PWR_EN)) ? 1u : 0u ;
  54              		.loc 1 47 0 discriminator 2
  55 0016 0022     		movs	r2, #0
  56              	.L3:
  47:Generated_Source\PSoC5/LF_DAC_1_PM.c **** 		(LF_DAC_1_VDAC8_PWRMGR_REG & LF_DAC_1_VDAC8_ACT_PWR_EN)) ? 1u : 0u ;
  57              		.loc 1 47 0 discriminator 4
  58 0018 044B     		ldr	r3, .L4+4
  59 001a 1A70     		strb	r2, [r3]
  49:Generated_Source\PSoC5/LF_DAC_1_PM.c **** 	
  50:Generated_Source\PSoC5/LF_DAC_1_PM.c **** 	LF_DAC_1_Stop();
  60              		.loc 1 50 0 is_stmt 1 discriminator 4
ARM GAS  C:\Users\herreral\AppData\Local\Temp\ccerEoBk.s 			page 3


  61 001c FFF7FEFF 		bl	LF_DAC_1_Stop
  51:Generated_Source\PSoC5/LF_DAC_1_PM.c **** 	LF_DAC_1_SaveConfig();
  62              		.loc 1 51 0 discriminator 4
  63 0020 FFF7FEFF 		bl	LF_DAC_1_VDAC8_SaveConfig
  52:Generated_Source\PSoC5/LF_DAC_1_PM.c **** }
  64              		.loc 1 52 0 discriminator 4
  65 0024 00BF     		nop
  66 0026 80BD     		pop	{r7, pc}
  67              	.L5:
  68              		.align	2
  69              	.L4:
  70 0028 A8430040 		.word	1073759144
  71 002c 00000000 		.word	LF_DAC_1_backup
  72              		.cfi_endproc
  73              	.LFE0:
  74              		.size	LF_DAC_1_Sleep, .-LF_DAC_1_Sleep
  75              		.section	.text.LF_DAC_1_Wakeup,"ax",%progbits
  76              		.align	2
  77              		.global	LF_DAC_1_Wakeup
  78              		.thumb
  79              		.thumb_func
  80              		.type	LF_DAC_1_Wakeup, %function
  81              	LF_DAC_1_Wakeup:
  82              	.LFB1:
  53:Generated_Source\PSoC5/LF_DAC_1_PM.c **** 
  54:Generated_Source\PSoC5/LF_DAC_1_PM.c **** 
  55:Generated_Source\PSoC5/LF_DAC_1_PM.c **** /*******************************************************************************
  56:Generated_Source\PSoC5/LF_DAC_1_PM.c **** * Function Name: LF_DAC_1_Wakeup
  57:Generated_Source\PSoC5/LF_DAC_1_PM.c **** ********************************************************************************
  58:Generated_Source\PSoC5/LF_DAC_1_PM.c **** *
  59:Generated_Source\PSoC5/LF_DAC_1_PM.c **** * Summary:
  60:Generated_Source\PSoC5/LF_DAC_1_PM.c **** *  Restores the component configuration. Should be called
  61:Generated_Source\PSoC5/LF_DAC_1_PM.c **** *  just after awaking from sleep.
  62:Generated_Source\PSoC5/LF_DAC_1_PM.c **** *  
  63:Generated_Source\PSoC5/LF_DAC_1_PM.c **** * Parameters:  
  64:Generated_Source\PSoC5/LF_DAC_1_PM.c **** *  None
  65:Generated_Source\PSoC5/LF_DAC_1_PM.c **** *
  66:Generated_Source\PSoC5/LF_DAC_1_PM.c **** * Return: 
  67:Generated_Source\PSoC5/LF_DAC_1_PM.c **** *  void
  68:Generated_Source\PSoC5/LF_DAC_1_PM.c **** *
  69:Generated_Source\PSoC5/LF_DAC_1_PM.c **** * Global variables:
  70:Generated_Source\PSoC5/LF_DAC_1_PM.c **** *  LF_DAC_1_backup:  The structure field 'enableState' is used to 
  71:Generated_Source\PSoC5/LF_DAC_1_PM.c **** *  restore the enable state of block after wakeup from sleep mode.
  72:Generated_Source\PSoC5/LF_DAC_1_PM.c **** *
  73:Generated_Source\PSoC5/LF_DAC_1_PM.c **** * Reentrant:
  74:Generated_Source\PSoC5/LF_DAC_1_PM.c **** *  No
  75:Generated_Source\PSoC5/LF_DAC_1_PM.c **** *
  76:Generated_Source\PSoC5/LF_DAC_1_PM.c **** *******************************************************************************/
  77:Generated_Source\PSoC5/LF_DAC_1_PM.c **** void LF_DAC_1_Wakeup(void) 
  78:Generated_Source\PSoC5/LF_DAC_1_PM.c **** {
  83              		.loc 1 78 0
  84              		.cfi_startproc
  85              		@ args = 0, pretend = 0, frame = 0
  86              		@ frame_needed = 1, uses_anonymous_args = 0
  87 0000 80B5     		push	{r7, lr}
  88              		.cfi_def_cfa_offset 8
  89              		.cfi_offset 7, -8
ARM GAS  C:\Users\herreral\AppData\Local\Temp\ccerEoBk.s 			page 4


  90              		.cfi_offset 14, -4
  91 0002 00AF     		add	r7, sp, #0
  92              		.cfi_def_cfa_register 7
  79:Generated_Source\PSoC5/LF_DAC_1_PM.c **** 	LF_DAC_1_RestoreConfig();
  93              		.loc 1 79 0
  94 0004 FFF7FEFF 		bl	LF_DAC_1_VDAC8_RestoreConfig
  80:Generated_Source\PSoC5/LF_DAC_1_PM.c **** 
  81:Generated_Source\PSoC5/LF_DAC_1_PM.c **** 	if(LF_DAC_1_backup.enableState == 1u)
  95              		.loc 1 81 0
  96 0008 034B     		ldr	r3, .L9
  97 000a 1B78     		ldrb	r3, [r3]	@ zero_extendqisi2
  98 000c 012B     		cmp	r3, #1
  99 000e 01D1     		bne	.L8
  82:Generated_Source\PSoC5/LF_DAC_1_PM.c **** 	{
  83:Generated_Source\PSoC5/LF_DAC_1_PM.c **** 		LF_DAC_1_Enable();
 100              		.loc 1 83 0
 101 0010 FFF7FEFF 		bl	LF_DAC_1_Enable
 102              	.L8:
  84:Generated_Source\PSoC5/LF_DAC_1_PM.c **** 	}
  85:Generated_Source\PSoC5/LF_DAC_1_PM.c **** }
 103              		.loc 1 85 0
 104 0014 00BF     		nop
 105 0016 80BD     		pop	{r7, pc}
 106              	.L10:
 107              		.align	2
 108              	.L9:
 109 0018 00000000 		.word	LF_DAC_1_backup
 110              		.cfi_endproc
 111              	.LFE1:
 112              		.size	LF_DAC_1_Wakeup, .-LF_DAC_1_Wakeup
 113              		.text
 114              	.Letext0:
 115              		.file 2 "Generated_Source\\PSoC5\\cytypes.h"
 116              		.file 3 "Generated_Source\\PSoC5\\LF_DAC_1.h"