ARM GAS  C:\Users\herreral\AppData\Local\Temp\cc258W7h.s 			page 1


   1              		.syntax unified
   2              		.cpu cortex-m3
   3              		.fpu softvfp
   4              		.eabi_attribute 20, 1
   5              		.eabi_attribute 21, 1
   6              		.eabi_attribute 23, 3
   7              		.eabi_attribute 24, 1
   8              		.eabi_attribute 25, 1
   9              		.eabi_attribute 26, 1
  10              		.eabi_attribute 30, 6
  11              		.eabi_attribute 34, 1
  12              		.eabi_attribute 18, 4
  13              		.thumb
  14              		.syntax unified
  15              		.file	"main.c"
  16              		.text
  17              	.Ltext0:
  18              		.cfi_sections	.debug_frame
  19              		.comm	Output,2,2
  20              		.comm	ContinuouslySendData,1,1
  21              		.comm	SendSingleByte,1,1
  22              		.comm	SendEmulatedData,1,1
  23              		.comm	TransmitBuffer,16,4
  24              		.comm	EmulatedData,1,1
  25              		.comm	array,4000,4
  26              		.section	.rodata
  27              		.align	2
  28              	.LC2:
  29 0000 25580D0A 		.ascii	"%X\015\012\000"
  29      00
  30 0005 000000   		.align	2
  31              	.LC3:
  32 0008 25780D0A 		.ascii	"%x\015\012\000"
  32      00
  33              		.section	.text.Transmit,"ax",%progbits
  34              		.align	2
  35              		.global	Transmit
  36              		.thumb
  37              		.thumb_func
  38              		.type	Transmit, %function
  39              	Transmit:
  40              	.LFB64:
  41              		.file 1 "main.c"
   1:main.c        **** /******************************************************************************
   2:main.c        **** * Project Name		: CE95277 ADC and UART
   3:main.c        **** * File Name			: main.c
   4:main.c        **** * Version 			: **
   5:main.c        **** * Device Used		: CY8C5888LTI-LP097
   6:main.c        **** * Software Used		: PSoC Creator 3.1 SP2
   7:main.c        **** * Compiler    		: ARM GCC 4.8.4, ARM RVDS Generic, ARM MDK Generic
   8:main.c        **** * Related Hardware	: CY8CKIT059 PSoC 5 LP Prototyping Kit 
   9:main.c        **** * Owner				: KLMZ
  10:main.c        **** *
  11:main.c        **** ********************************************************************************
  12:main.c        **** * Copyright (2015), Cypress Semiconductor Corporation. All Rights Reserved.
  13:main.c        **** ********************************************************************************
  14:main.c        **** * This software is owned by Cypress Semiconductor Corporation (Cypress)
ARM GAS  C:\Users\herreral\AppData\Local\Temp\cc258W7h.s 			page 2


  15:main.c        **** * and is protected by and subject to worldwide patent protection (United
  16:main.c        **** * States and foreign), United States copyright laws and international treaty
  17:main.c        **** * provisions. Cypress hereby grants to licensee a personal, non-exclusive,
  18:main.c        **** * non-transferable license to copy, use, modify, create derivative works of,
  19:main.c        **** * and compile the Cypress Source Code and derivative works for the sole
  20:main.c        **** * purpose of creating custom software in support of licensee product to be
  21:main.c        **** * used only in conjunction with a Cypress integrated circuit as specified in
  22:main.c        **** * the applicable agreement. Any reproduction, modification, translation,
  23:main.c        **** * compilation, or representation of this software except as specified above 
  24:main.c        **** * is prohibited without the express written permission of Cypress.
  25:main.c        **** *
  26:main.c        **** * Disclaimer: CYPRESS MAKES NO WARRANTY OF ANY KIND, EXPRESS OR IMPLIED, WITH 
  27:main.c        **** * REGARD TO THIS MATERIAL, INCLUDING, BUT NOT LIMITED TO, THE IMPLIED 
  28:main.c        **** * WARRANTIES OF MERCHANTABILITY AND FITNESS FOR A PARTICULAR PURPOSE.
  29:main.c        **** * Cypress reserves the right to make changes without further notice to the 
  30:main.c        **** * materials described herein. Cypress does not assume any liability arising out 
  31:main.c        **** * of the application or use of any product or circuit described herein. Cypress 
  32:main.c        **** * does not authorize its products for use as critical components in life-support 
  33:main.c        **** * systems where a malfunction or failure may reasonably be expected to result in 
  34:main.c        **** * significant injury to the user. The inclusion of Cypress' product in a life-
  35:main.c        **** * support systems application implies that the manufacturer assumes all risk of 
  36:main.c        **** * such use and in doing so indemnifies Cypress against all charges. 
  37:main.c        **** *
  38:main.c        **** * Use of this Software may be limited by and subject to the applicable Cypress
  39:main.c        **** * software license agreement. 
  40:main.c        **** *******************************************************************************/
  41:main.c        **** 
  42:main.c        **** #include <device.h>
  43:main.c        **** #include "stdio.h"
  44:main.c        **** #include "math.h"
  45:main.c        **** 
  46:main.c        **** /* Project Defines */
  47:main.c        **** #define FALSE  0
  48:main.c        **** #define TRUE   1
  49:main.c        **** #define TRANSMIT_BUFFER_SIZE  16
  50:main.c        **** #define NUMBER_OF_SAMPLES 2000
  51:main.c        **** #define SAMPLING_RATE 10000
  52:main.c        **** 
  53:main.c        ****     /* Variable to store ADC result */
  54:main.c        ****     uint16 Output;
  55:main.c        ****     /* Flags used to store transmit data commands */
  56:main.c        ****     uint8 ContinuouslySendData;
  57:main.c        ****     uint8 SendSingleByte;
  58:main.c        ****     uint8 SendEmulatedData;
  59:main.c        ****     /* Transmit Buffer */
  60:main.c        ****     char TransmitBuffer[TRANSMIT_BUFFER_SIZE];
  61:main.c        ****     /* Variable used to send emulated data */
  62:main.c        ****     uint8 EmulatedData;
  63:main.c        ****     int16 array[NUMBER_OF_SAMPLES];
  64:main.c        ****     
  65:main.c        **** double Goertzel(int numSamples, int tFrequency,int tSamplingRate, double data[]);
  66:main.c        **** uint16 getMaxValue(double arrayData[],uint8 size);
  67:main.c        **** void DTMF(void);
  68:main.c        **** void Decoder(uint16 loFrec, uint16 hiFrec);
  69:main.c        **** 
  70:main.c        **** 
  71:main.c        **** CY_ISR_PROTO(Transmit);
ARM GAS  C:\Users\herreral\AppData\Local\Temp\cc258W7h.s 			page 3


  72:main.c        **** 
  73:main.c        **** CY_ISR(Transmit)
  74:main.c        **** {
  42              		.loc 1 74 0
  43              		.cfi_startproc
  44              		@ args = 0, pretend = 0, frame = 0
  45              		@ frame_needed = 1, uses_anonymous_args = 0
  46 0000 80B5     		push	{r7, lr}
  47              		.cfi_def_cfa_offset 8
  48              		.cfi_offset 7, -8
  49              		.cfi_offset 14, -4
  50 0002 00AF     		add	r7, sp, #0
  51              		.cfi_def_cfa_register 7
  75:main.c        ****             /* Check to see if an ADC conversion has completed */
  76:main.c        ****             if(ADC_DelSig_1_IsEndConversion(ADC_DelSig_1_RETURN_STATUS))
  52              		.loc 1 76 0
  53 0004 0120     		movs	r0, #1
  54 0006 FFF7FEFF 		bl	ADC_DelSig_1_IsEndConversion
  55 000a 0346     		mov	r3, r0
  56 000c 002B     		cmp	r3, #0
  57 000e 40D0     		beq	.L5
  77:main.c        ****             {
  78:main.c        ****                 /* Use the GetResult16 API to get an 8 bit unsigned result in
  79:main.c        ****                 * single ended mode.  The API CountsTo_mVolts is then used
  80:main.c        ****                 * to convert the ADC counts into mV before transmitting via
  81:main.c        ****                 * the UART.  See the datasheet API description for more
  82:main.c        ****                 * details */
  83:main.c        ****                 //Output = ADC_DelSig_1_CountsTo_mVolts(ADC_DelSig_1_GetResult16());
  84:main.c        ****                 Output = ADC_DelSig_1_GetResult16();
  58              		.loc 1 84 0
  59 0010 FFF7FEFF 		bl	ADC_DelSig_1_GetResult16
  60 0014 0346     		mov	r3, r0
  61 0016 9AB2     		uxth	r2, r3
  62 0018 1F4B     		ldr	r3, .L6
  63 001a 1A80     		strh	r2, [r3]	@ movhi
  85:main.c        ****                 
  86:main.c        ****                 /* Send data based on last UART command */
  87:main.c        ****                 if(ContinuouslySendData)
  64              		.loc 1 87 0
  65 001c 1F4B     		ldr	r3, .L6+4
  66 001e 1B78     		ldrb	r3, [r3]	@ zero_extendqisi2
  67 0020 002B     		cmp	r3, #0
  68 0022 0DD0     		beq	.L3
  88:main.c        ****                 {
  89:main.c        ****                     /* Format ADC result for transmition */
  90:main.c        ****                     //sprintf(TransmitBuffer, "Sample: %d mV\r\n", Output);
  91:main.c        ****                     sprintf(TransmitBuffer, "%X\r\n", Output);
  69              		.loc 1 91 0
  70 0024 1C4B     		ldr	r3, .L6
  71 0026 1B88     		ldrh	r3, [r3]
  72 0028 1A46     		mov	r2, r3
  73 002a 1D49     		ldr	r1, .L6+8
  74 002c 1D48     		ldr	r0, .L6+12
  75 002e FFF7FEFF 		bl	sprintf
  92:main.c        ****                     /* Send out the data */
  93:main.c        ****                     UART_1_PutString(TransmitBuffer);
  76              		.loc 1 93 0
ARM GAS  C:\Users\herreral\AppData\Local\Temp\cc258W7h.s 			page 4


  77 0032 1C48     		ldr	r0, .L6+12
  78 0034 FFF7FEFF 		bl	UART_1_PutString
  94:main.c        ****                     /* Reset the send once flag */
  95:main.c        ****                     SendSingleByte = FALSE;
  79              		.loc 1 95 0
  80 0038 1B4B     		ldr	r3, .L6+16
  81 003a 0022     		movs	r2, #0
  82 003c 1A70     		strb	r2, [r3]
  96:main.c        ****                 }
  97:main.c        ****                 /* Send data based on last UART command */
  98:main.c        ****                 else if(SendSingleByte)
  99:main.c        ****                 {
 100:main.c        ****                     /* Format ADC result for transmition */
 101:main.c        ****                     //sprintf(TransmitBuffer, "Sample: %d mV\r\n", Output);
 102:main.c        ****                     sprintf(TransmitBuffer, "%X\r\n", Output);
 103:main.c        ****                     /* Send out the data */
 104:main.c        ****                     UART_1_PutString(TransmitBuffer);
 105:main.c        ****                     /* Reset the send once flag */
 106:main.c        ****                     SendSingleByte = FALSE;
 107:main.c        ****                 }
 108:main.c        ****                 else if(SendEmulatedData)
 109:main.c        ****                 {
 110:main.c        ****                     /* Format ADC result for transmition */
 111:main.c        ****                     sprintf(TransmitBuffer, "%x\r\n", EmulatedData);
 112:main.c        ****                     /* Send out the data */
 113:main.c        ****                     UART_1_PutString(TransmitBuffer);
 114:main.c        ****                     EmulatedData++;
 115:main.c        ****                     /* Reset the send once flag */
 116:main.c        ****                     SendEmulatedData = FALSE;
 117:main.c        ****                 }
 118:main.c        ****             }
 119:main.c        ****             
 120:main.c        ****     
 121:main.c        **** }
  83              		.loc 1 121 0
  84 003e 28E0     		b	.L5
  85              	.L3:
  98:main.c        ****                 {
  86              		.loc 1 98 0
  87 0040 194B     		ldr	r3, .L6+16
  88 0042 1B78     		ldrb	r3, [r3]	@ zero_extendqisi2
  89 0044 002B     		cmp	r3, #0
  90 0046 0DD0     		beq	.L4
 102:main.c        ****                     /* Send out the data */
  91              		.loc 1 102 0
  92 0048 134B     		ldr	r3, .L6
  93 004a 1B88     		ldrh	r3, [r3]
  94 004c 1A46     		mov	r2, r3
  95 004e 1449     		ldr	r1, .L6+8
  96 0050 1448     		ldr	r0, .L6+12
  97 0052 FFF7FEFF 		bl	sprintf
 104:main.c        ****                     /* Reset the send once flag */
  98              		.loc 1 104 0
  99 0056 1348     		ldr	r0, .L6+12
 100 0058 FFF7FEFF 		bl	UART_1_PutString
 106:main.c        ****                 }
 101              		.loc 1 106 0
ARM GAS  C:\Users\herreral\AppData\Local\Temp\cc258W7h.s 			page 5


 102 005c 124B     		ldr	r3, .L6+16
 103 005e 0022     		movs	r2, #0
 104 0060 1A70     		strb	r2, [r3]
 105              		.loc 1 121 0
 106 0062 16E0     		b	.L5
 107              	.L4:
 108:main.c        ****                 {
 108              		.loc 1 108 0
 109 0064 114B     		ldr	r3, .L6+20
 110 0066 1B78     		ldrb	r3, [r3]	@ zero_extendqisi2
 111 0068 002B     		cmp	r3, #0
 112 006a 12D0     		beq	.L5
 111:main.c        ****                     /* Send out the data */
 113              		.loc 1 111 0
 114 006c 104B     		ldr	r3, .L6+24
 115 006e 1B78     		ldrb	r3, [r3]	@ zero_extendqisi2
 116 0070 1A46     		mov	r2, r3
 117 0072 1049     		ldr	r1, .L6+28
 118 0074 0B48     		ldr	r0, .L6+12
 119 0076 FFF7FEFF 		bl	sprintf
 113:main.c        ****                     EmulatedData++;
 120              		.loc 1 113 0
 121 007a 0A48     		ldr	r0, .L6+12
 122 007c FFF7FEFF 		bl	UART_1_PutString
 114:main.c        ****                     /* Reset the send once flag */
 123              		.loc 1 114 0
 124 0080 0B4B     		ldr	r3, .L6+24
 125 0082 1B78     		ldrb	r3, [r3]	@ zero_extendqisi2
 126 0084 0133     		adds	r3, r3, #1
 127 0086 DAB2     		uxtb	r2, r3
 128 0088 094B     		ldr	r3, .L6+24
 129 008a 1A70     		strb	r2, [r3]
 116:main.c        ****                 }
 130              		.loc 1 116 0
 131 008c 074B     		ldr	r3, .L6+20
 132 008e 0022     		movs	r2, #0
 133 0090 1A70     		strb	r2, [r3]
 134              	.L5:
 135              		.loc 1 121 0
 136 0092 00BF     		nop
 137 0094 80BD     		pop	{r7, pc}
 138              	.L7:
 139 0096 00BF     		.align	2
 140              	.L6:
 141 0098 00000000 		.word	Output
 142 009c 00000000 		.word	ContinuouslySendData
 143 00a0 00000000 		.word	.LC2
 144 00a4 00000000 		.word	TransmitBuffer
 145 00a8 00000000 		.word	SendSingleByte
 146 00ac 00000000 		.word	SendEmulatedData
 147 00b0 00000000 		.word	EmulatedData
 148 00b4 08000000 		.word	.LC3
 149              		.cfi_endproc
 150              	.LFE64:
 151              		.size	Transmit, .-Transmit
 152              		.section	.text.UserInput,"ax",%progbits
 153              		.align	2
ARM GAS  C:\Users\herreral\AppData\Local\Temp\cc258W7h.s 			page 6


 154              		.global	UserInput
 155              		.thumb
 156              		.thumb_func
 157              		.type	UserInput, %function
 158              	UserInput:
 159              	.LFB65:
 122:main.c        **** 
 123:main.c        **** 
 124:main.c        **** 
 125:main.c        **** CY_ISR(UserInput)
 126:main.c        **** {
 160              		.loc 1 126 0
 161              		.cfi_startproc
 162              		@ args = 0, pretend = 0, frame = 0
 163              		@ frame_needed = 1, uses_anonymous_args = 0
 164              		@ link register save eliminated.
 165 0000 80B4     		push	{r7}
 166              		.cfi_def_cfa_offset 4
 167              		.cfi_offset 7, -4
 168 0002 00AF     		add	r7, sp, #0
 169              		.cfi_def_cfa_register 7
 127:main.c        ****     //UART_1_PutString("Input Detected!\r\n");
 128:main.c        **** }
 170              		.loc 1 128 0
 171 0004 00BF     		nop
 172 0006 BD46     		mov	sp, r7
 173              		.cfi_def_cfa_register 13
 174              		@ sp needed
 175 0008 80BC     		pop	{r7}
 176              		.cfi_restore 7
 177              		.cfi_def_cfa_offset 0
 178 000a 7047     		bx	lr
 179              		.cfi_endproc
 180              	.LFE65:
 181              		.size	UserInput, .-UserInput
 182              		.section	.text.DisableAllDigitalToAnalogConverters,"ax",%progbits
 183              		.align	2
 184              		.global	DisableAllDigitalToAnalogConverters
 185              		.thumb
 186              		.thumb_func
 187              		.type	DisableAllDigitalToAnalogConverters, %function
 188              	DisableAllDigitalToAnalogConverters:
 189              	.LFB66:
 129:main.c        **** 
 130:main.c        **** 
 131:main.c        **** 
 132:main.c        **** 
 133:main.c        **** void DisableAllDigitalToAnalogConverters()
 134:main.c        **** {
 190              		.loc 1 134 0
 191              		.cfi_startproc
 192              		@ args = 0, pretend = 0, frame = 0
 193              		@ frame_needed = 1, uses_anonymous_args = 0
 194 0000 80B5     		push	{r7, lr}
 195              		.cfi_def_cfa_offset 8
 196              		.cfi_offset 7, -8
 197              		.cfi_offset 14, -4
ARM GAS  C:\Users\herreral\AppData\Local\Temp\cc258W7h.s 			page 7


 198 0002 00AF     		add	r7, sp, #0
 199              		.cfi_def_cfa_register 7
 135:main.c        ****     // Disable Components
 136:main.c        ****     HF_DAC_1_Sleep();
 200              		.loc 1 136 0
 201 0004 FFF7FEFF 		bl	HF_DAC_1_Sleep
 137:main.c        ****     HF_DAC_2_Sleep();
 202              		.loc 1 137 0
 203 0008 FFF7FEFF 		bl	HF_DAC_2_Sleep
 138:main.c        ****     LF_DAC_1_Sleep(); 
 204              		.loc 1 138 0
 205 000c FFF7FEFF 		bl	LF_DAC_1_Sleep
 139:main.c        ****     LF_DAC_2_Sleep();
 206              		.loc 1 139 0
 207 0010 FFF7FEFF 		bl	LF_DAC_2_Sleep
 140:main.c        ****     // Set Muxes to First Wave Configured
 141:main.c        ****     HF_SW1_Write(0);
 208              		.loc 1 141 0
 209 0014 0020     		movs	r0, #0
 210 0016 FFF7FEFF 		bl	HF_SW1_Write
 142:main.c        ****     HF_SW2_Write(0);
 211              		.loc 1 142 0
 212 001a 0020     		movs	r0, #0
 213 001c FFF7FEFF 		bl	HF_SW2_Write
 143:main.c        ****     LF_SW1_Write(0);
 214              		.loc 1 143 0
 215 0020 0020     		movs	r0, #0
 216 0022 FFF7FEFF 		bl	LF_SW1_Write
 144:main.c        ****     LF_SW2_Write(0);
 217              		.loc 1 144 0
 218 0026 0020     		movs	r0, #0
 219 0028 FFF7FEFF 		bl	LF_SW2_Write
 145:main.c        ****     // Input Flag
 146:main.c        ****     Input_Flag_Write(0);
 220              		.loc 1 146 0
 221 002c 0020     		movs	r0, #0
 222 002e FFF7FEFF 		bl	Input_Flag_Write
 147:main.c        **** }
 223              		.loc 1 147 0
 224 0032 00BF     		nop
 225 0034 80BD     		pop	{r7, pc}
 226              		.cfi_endproc
 227              	.LFE66:
 228              		.size	DisableAllDigitalToAnalogConverters, .-DisableAllDigitalToAnalogConverters
 229 0036 00BF     		.section	.rodata
 230 000d 000000   		.align	2
 231              	.LC4:
 232 0010 3000     		.ascii	"0\000"
 233 0012 0000     		.align	2
 234              	.LC5:
 235 0014 3100     		.ascii	"1\000"
 236 0016 0000     		.align	2
 237              	.LC6:
 238 0018 3200     		.ascii	"2\000"
 239 001a 0000     		.align	2
 240              	.LC7:
 241 001c 3300     		.ascii	"3\000"
ARM GAS  C:\Users\herreral\AppData\Local\Temp\cc258W7h.s 			page 8


 242 001e 0000     		.align	2
 243              	.LC8:
 244 0020 3400     		.ascii	"4\000"
 245 0022 0000     		.align	2
 246              	.LC9:
 247 0024 3500     		.ascii	"5\000"
 248 0026 0000     		.align	2
 249              	.LC10:
 250 0028 3600     		.ascii	"6\000"
 251 002a 0000     		.align	2
 252              	.LC11:
 253 002c 3700     		.ascii	"7\000"
 254 002e 0000     		.align	2
 255              	.LC12:
 256 0030 3800     		.ascii	"8\000"
 257 0032 0000     		.align	2
 258              	.LC13:
 259 0034 3900     		.ascii	"9\000"
 260 0036 0000     		.align	2
 261              	.LC14:
 262 0038 2A00     		.ascii	"*\000"
 263 003a 0000     		.align	2
 264              	.LC15:
 265 003c 2300     		.ascii	"#\000"
 266 003e 0000     		.align	2
 267              	.LC16:
 268 0040 44697361 		.ascii	"Disabling DACs ...\000"
 268      626C696E 
 268      67204441 
 268      4373202E 
 268      2E2E00
 269              		.section	.text.main,"ax",%progbits
 270              		.align	2
 271              		.global	main
 272              		.thumb
 273              		.thumb_func
 274              		.type	main, %function
 275              	main:
 276              	.LFB67:
 148:main.c        **** 
 149:main.c        **** 
 150:main.c        **** 
 151:main.c        **** 
 152:main.c        **** 
 153:main.c        **** 
 154:main.c        **** /*******************************************************************************
 155:main.c        **** * Function Name: main
 156:main.c        **** ********************************************************************************
 157:main.c        **** *
 158:main.c        **** * Summary:
 159:main.c        **** *  main() performs following functions:
 160:main.c        **** *  1: Starts the ADC and UART components.
 161:main.c        **** *  2: Checks for ADC end of conversion.  Stores latest result in output
 162:main.c        **** *     if conversion complete.
 163:main.c        **** *  3: Checks for UART input.
 164:main.c        **** *     On 'C' or 'c' received: transmits the last sample via the UART.
 165:main.c        **** *     On 'S' or 's' received: continuously transmits samples as they are completed.
ARM GAS  C:\Users\herreral\AppData\Local\Temp\cc258W7h.s 			page 9


 166:main.c        **** *     On 'X' or 'x' received: stops continuously transmitting samples.
 167:main.c        **** *     On 'E' or 'e' received: transmits a dummy byte of data.
 168:main.c        **** *
 169:main.c        **** * Parameters:
 170:main.c        **** *  None.
 171:main.c        **** *
 172:main.c        **** * Return:
 173:main.c        **** *  None.
 174:main.c        **** *
 175:main.c        **** *******************************************************************************/
 176:main.c        **** int main()
 177:main.c        **** {
 277              		.loc 1 177 0
 278              		.cfi_startproc
 279              		@ args = 0, pretend = 0, frame = 8
 280              		@ frame_needed = 1, uses_anonymous_args = 0
 281 0000 80B5     		push	{r7, lr}
 282              		.cfi_def_cfa_offset 8
 283              		.cfi_offset 7, -8
 284              		.cfi_offset 14, -4
 285 0002 82B0     		sub	sp, sp, #8
 286              		.cfi_def_cfa_offset 16
 287 0004 00AF     		add	r7, sp, #0
 288              		.cfi_def_cfa_register 7
 178:main.c        ****     /* Variable to store UART received character */
 179:main.c        ****     uint8 Ch;
 180:main.c        ****     
 181:main.c        ****     /* Start the components */
 182:main.c        ****     ADC_DelSig_1_Start();
 289              		.loc 1 182 0
 290 0006 FFF7FEFF 		bl	ADC_DelSig_1_Start
 183:main.c        ****     UART_1_Start();
 291              		.loc 1 183 0
 292 000a FFF7FEFF 		bl	UART_1_Start
 184:main.c        ****     // 1st ADC
 185:main.c        ****     HF_DAC_1_Start();
 293              		.loc 1 185 0
 294 000e FFF7FEFF 		bl	HF_DAC_1_Start
 186:main.c        ****     HF_DAC_1_Sleep();
 295              		.loc 1 186 0
 296 0012 FFF7FEFF 		bl	HF_DAC_1_Sleep
 187:main.c        ****     // 2nd ADC
 188:main.c        ****     HF_DAC_2_Start();
 297              		.loc 1 188 0
 298 0016 FFF7FEFF 		bl	HF_DAC_2_Start
 189:main.c        ****     HF_DAC_2_Sleep();;
 299              		.loc 1 189 0
 300 001a FFF7FEFF 		bl	HF_DAC_2_Sleep
 190:main.c        ****     // 3rd ADC
 191:main.c        ****     LF_DAC_1_Start();
 301              		.loc 1 191 0
 302 001e FFF7FEFF 		bl	LF_DAC_1_Start
 192:main.c        ****     LF_DAC_1_Sleep();
 303              		.loc 1 192 0
 304 0022 FFF7FEFF 		bl	LF_DAC_1_Sleep
 193:main.c        ****     // 4th ADC
 194:main.c        ****     LF_DAC_1_Start();
ARM GAS  C:\Users\herreral\AppData\Local\Temp\cc258W7h.s 			page 10


 305              		.loc 1 194 0
 306 0026 FFF7FEFF 		bl	LF_DAC_1_Start
 195:main.c        ****     LF_DAC_1_Sleep();
 307              		.loc 1 195 0
 308 002a FFF7FEFF 		bl	LF_DAC_1_Sleep
 196:main.c        ****     
 197:main.c        ****     /* Initialize Variables */
 198:main.c        ****     ContinuouslySendData = FALSE;
 309              		.loc 1 198 0
 310 002e DB4B     		ldr	r3, .L33
 311 0030 0022     		movs	r2, #0
 312 0032 1A70     		strb	r2, [r3]
 199:main.c        ****     SendSingleByte = FALSE;
 313              		.loc 1 199 0
 314 0034 DA4B     		ldr	r3, .L33+4
 315 0036 0022     		movs	r2, #0
 316 0038 1A70     		strb	r2, [r3]
 200:main.c        ****     SendEmulatedData = FALSE;
 317              		.loc 1 200 0
 318 003a DA4B     		ldr	r3, .L33+8
 319 003c 0022     		movs	r2, #0
 320 003e 1A70     		strb	r2, [r3]
 201:main.c        ****     EmulatedData = 0;
 321              		.loc 1 201 0
 322 0040 D94B     		ldr	r3, .L33+12
 323 0042 0022     		movs	r2, #0
 324 0044 1A70     		strb	r2, [r3]
 202:main.c        ****     
 203:main.c        ****     /* Start the ADC conversion */
 204:main.c        ****     ADC_DelSig_1_StartConvert();
 325              		.loc 1 204 0
 326 0046 FFF7FEFF 		bl	ADC_DelSig_1_StartConvert
 205:main.c        ****     
 206:main.c        ****     /* Send message to verify COM port is connected properly */
 207:main.c        ****     //UART_1_PutString("COM Port Open");
 208:main.c        ****     
 209:main.c        ****     Timer_Start();
 327              		.loc 1 209 0
 328 004a FFF7FEFF 		bl	Timer_Start
 210:main.c        ****     isr_StartEx(Transmit);
 329              		.loc 1 210 0
 330 004e D748     		ldr	r0, .L33+16
 331 0050 FFF7FEFF 		bl	isr_StartEx
 211:main.c        ****     Input_ISR_StartEx(UserInput);
 332              		.loc 1 211 0
 333 0054 D648     		ldr	r0, .L33+20
 334 0056 FFF7FEFF 		bl	Input_ISR_StartEx
 212:main.c        ****     CyGlobalIntEnable;
 335              		.loc 1 212 0
 336              		.syntax unified
 337              	@ 212 "main.c" 1
 338 005a 62B6     		CPSIE   i
 339              	@ 0 "" 2
 340              		.thumb
 341              		.syntax unified
 342              	.L31:
 213:main.c        ****     
ARM GAS  C:\Users\herreral\AppData\Local\Temp\cc258W7h.s 			page 11


 214:main.c        ****     
 215:main.c        ****     for(;;)
 216:main.c        ****     {        
 217:main.c        ****         /* Non-blocking call to get the latest data recieved  */
 218:main.c        ****         Ch = UART_1_GetChar();
 343              		.loc 1 218 0
 344 005c FFF7FEFF 		bl	UART_1_GetChar
 345 0060 0346     		mov	r3, r0
 346 0062 7B71     		strb	r3, [r7, #5]
 219:main.c        ****         
 220:main.c        ****         /* Set flags based on UART command */
 221:main.c        ****         switch(Ch)
 347              		.loc 1 221 0
 348 0064 7B79     		ldrb	r3, [r7, #5]	@ zero_extendqisi2
 349 0066 233B     		subs	r3, r3, #35
 350 0068 552B     		cmp	r3, #85
 351 006a 00F2E381 		bhi	.L32
 352 006e 01A2     		adr	r2, .L13
 353 0070 52F823F0 		ldr	pc, [r2, r3, lsl #2]
 354              		.p2align 2
 355              	.L13:
 356 0074 6F030000 		.word	.L12+1
 357 0078 35040000 		.word	.L32+1
 358 007c 35040000 		.word	.L32+1
 359 0080 35040000 		.word	.L32+1
 360 0084 35040000 		.word	.L32+1
 361 0088 35040000 		.word	.L32+1
 362 008c 35040000 		.word	.L32+1
 363 0090 49030000 		.word	.L14+1
 364 0094 35040000 		.word	.L32+1
 365 0098 35040000 		.word	.L32+1
 366 009c 35040000 		.word	.L32+1
 367 00a0 35040000 		.word	.L32+1
 368 00a4 35040000 		.word	.L32+1
 369 00a8 CD010000 		.word	.L15+1
 370 00ac F3010000 		.word	.L16+1
 371 00b0 19020000 		.word	.L17+1
 372 00b4 3F020000 		.word	.L18+1
 373 00b8 65020000 		.word	.L19+1
 374 00bc 8B020000 		.word	.L20+1
 375 00c0 B1020000 		.word	.L21+1
 376 00c4 D7020000 		.word	.L22+1
 377 00c8 FD020000 		.word	.L23+1
 378 00cc 23030000 		.word	.L24+1
 379 00d0 35040000 		.word	.L32+1
 380 00d4 35040000 		.word	.L32+1
 381 00d8 35040000 		.word	.L32+1
 382 00dc 35040000 		.word	.L32+1
 383 00e0 35040000 		.word	.L32+1
 384 00e4 35040000 		.word	.L32+1
 385 00e8 35040000 		.word	.L32+1
 386 00ec 35040000 		.word	.L32+1
 387 00f0 35040000 		.word	.L32+1
 388 00f4 35040000 		.word	.L32+1
 389 00f8 35040000 		.word	.L32+1
 390 00fc 35040000 		.word	.L32+1
 391 0100 35040000 		.word	.L32+1
ARM GAS  C:\Users\herreral\AppData\Local\Temp\cc258W7h.s 			page 12


 392 0104 35040000 		.word	.L32+1
 393 0108 35040000 		.word	.L32+1
 394 010c 35040000 		.word	.L32+1
 395 0110 35040000 		.word	.L32+1
 396 0114 35040000 		.word	.L32+1
 397 0118 35040000 		.word	.L32+1
 398 011c 35040000 		.word	.L32+1
 399 0120 35040000 		.word	.L32+1
 400 0124 35040000 		.word	.L32+1
 401 0128 35040000 		.word	.L32+1
 402 012c 35040000 		.word	.L32+1
 403 0130 35040000 		.word	.L32+1
 404 0134 95030000 		.word	.L25+1
 405 0138 35040000 		.word	.L32+1
 406 013c 35040000 		.word	.L32+1
 407 0140 35040000 		.word	.L32+1
 408 0144 35040000 		.word	.L32+1
 409 0148 29040000 		.word	.L26+1
 410 014c 35040000 		.word	.L32+1
 411 0150 35040000 		.word	.L32+1
 412 0154 35040000 		.word	.L32+1
 413 0158 35040000 		.word	.L32+1
 414 015c 35040000 		.word	.L32+1
 415 0160 35040000 		.word	.L32+1
 416 0164 35040000 		.word	.L32+1
 417 0168 35040000 		.word	.L32+1
 418 016c 35040000 		.word	.L32+1
 419 0170 35040000 		.word	.L32+1
 420 0174 35040000 		.word	.L32+1
 421 0178 35040000 		.word	.L32+1
 422 017c 35040000 		.word	.L32+1
 423 0180 35040000 		.word	.L32+1
 424 0184 35040000 		.word	.L32+1
 425 0188 35040000 		.word	.L32+1
 426 018c 35040000 		.word	.L32+1
 427 0190 35040000 		.word	.L32+1
 428 0194 35040000 		.word	.L32+1
 429 0198 35040000 		.word	.L32+1
 430 019c 35040000 		.word	.L32+1
 431 01a0 35040000 		.word	.L32+1
 432 01a4 35040000 		.word	.L32+1
 433 01a8 35040000 		.word	.L32+1
 434 01ac 35040000 		.word	.L32+1
 435 01b0 35040000 		.word	.L32+1
 436 01b4 95030000 		.word	.L25+1
 437 01b8 35040000 		.word	.L32+1
 438 01bc 35040000 		.word	.L32+1
 439 01c0 35040000 		.word	.L32+1
 440 01c4 35040000 		.word	.L32+1
 441 01c8 29040000 		.word	.L26+1
 442              		.p2align 1
 443              	.L15:
 222:main.c        ****         {
 223:main.c        ****             case '0':
 224:main.c        ****                 UART_1_PutString("0");
 444              		.loc 1 224 0
 445 01cc 7948     		ldr	r0, .L33+24
ARM GAS  C:\Users\herreral\AppData\Local\Temp\cc258W7h.s 			page 13


 446 01ce FFF7FEFF 		bl	UART_1_PutString
 225:main.c        ****                 DisableAllDigitalToAnalogConverters();
 447              		.loc 1 225 0
 448 01d2 FFF7FEFF 		bl	DisableAllDigitalToAnalogConverters
 226:main.c        ****                 
 227:main.c        ****                 // Configure Muxes
 228:main.c        ****                 //HF_SW1_Write(0);    // 1209 Hz (1,4,7,*)
 229:main.c        ****                 //HF_SW1_Write(1);    // 1336 Hz (2,5,8,0)
 230:main.c        ****                 //HF_SW2_Write(0);    // 1477 Hz (3,6,9,#)
 231:main.c        ****                 //HF_SW2_Write(1);    // -
 232:main.c        ****                 //LF_SW1_Write(0);    // 697  Hz (1,2,3)
 233:main.c        ****                 //LF_SW1_Write(1);    // 770  Hz (4,5,6)
 234:main.c        ****                 //LF_SW2_Write(0);    // 852  Hz (7,8,9)
 235:main.c        ****                 //LF_SW2_Write(1);    // 941  Hz (*,0,#)
 236:main.c        ****                 
 237:main.c        ****                 // Enable Components
 238:main.c        ****                 //HF_DAC_1_Start();   // (1,2,4,5,7,8,*,0)
 239:main.c        ****                 //HF_DAC_2_Start();   // (3,6,9,#)
 240:main.c        ****                 //LF_DAC_1_Start();   // (1,2,3,4,5,6)
 241:main.c        ****                 //LF_DAC_2_Start();   // (7,8,9,*,0,#)             
 242:main.c        ****                 
 243:main.c        ****                 // Configure Muxes
 244:main.c        ****                 HF_SW1_Write(1);    // 1336 Hz (2,5,8,0)
 449              		.loc 1 244 0
 450 01d6 0120     		movs	r0, #1
 451 01d8 FFF7FEFF 		bl	HF_SW1_Write
 245:main.c        ****                 LF_SW2_Write(1);    // 941  Hz (*,0,#)
 452              		.loc 1 245 0
 453 01dc 0120     		movs	r0, #1
 454 01de FFF7FEFF 		bl	LF_SW2_Write
 246:main.c        ****                 
 247:main.c        ****                 // Enable Components
 248:main.c        ****                 HF_DAC_1_Start();   // (1,2,4,5,7,8,*,0)
 455              		.loc 1 248 0
 456 01e2 FFF7FEFF 		bl	HF_DAC_1_Start
 249:main.c        ****                 LF_DAC_2_Start();   // (7,8,9,*,0,#)
 457              		.loc 1 249 0
 458 01e6 FFF7FEFF 		bl	LF_DAC_2_Start
 250:main.c        ****                 
 251:main.c        ****                 // Trigger "User Input" Interrupt
 252:main.c        ****                 Input_Flag_Write(1);
 459              		.loc 1 252 0
 460 01ea 0120     		movs	r0, #1
 461 01ec FFF7FEFF 		bl	Input_Flag_Write
 253:main.c        ****                 
 254:main.c        ****                 break;
 462              		.loc 1 254 0
 463 01f0 21E1     		b	.L27
 464              	.L16:
 255:main.c        ****                 
 256:main.c        ****             case '1':
 257:main.c        ****                 UART_1_PutString("1");
 465              		.loc 1 257 0
 466 01f2 7148     		ldr	r0, .L33+28
 467 01f4 FFF7FEFF 		bl	UART_1_PutString
 258:main.c        ****                 DisableAllDigitalToAnalogConverters();
 468              		.loc 1 258 0
ARM GAS  C:\Users\herreral\AppData\Local\Temp\cc258W7h.s 			page 14


 469 01f8 FFF7FEFF 		bl	DisableAllDigitalToAnalogConverters
 259:main.c        ****                 
 260:main.c        ****                 // Configure Muxes
 261:main.c        ****                 HF_SW1_Write(0);    // 1209 Hz (1,4,7,*)
 470              		.loc 1 261 0
 471 01fc 0020     		movs	r0, #0
 472 01fe FFF7FEFF 		bl	HF_SW1_Write
 262:main.c        ****                 LF_SW1_Write(0);    // 697  Hz (1,2,3)
 473              		.loc 1 262 0
 474 0202 0020     		movs	r0, #0
 475 0204 FFF7FEFF 		bl	LF_SW1_Write
 263:main.c        ****                 
 264:main.c        ****                 // Enable Components
 265:main.c        ****                 HF_DAC_1_Start();   // (1,2,4,5,7,8,*,0)
 476              		.loc 1 265 0
 477 0208 FFF7FEFF 		bl	HF_DAC_1_Start
 266:main.c        ****                 LF_DAC_1_Start();   // (1,2,3,4,5,6)
 478              		.loc 1 266 0
 479 020c FFF7FEFF 		bl	LF_DAC_1_Start
 267:main.c        ****                 
 268:main.c        ****                 // Trigger "User Input" Interrupt
 269:main.c        ****                 Input_Flag_Write(1);
 480              		.loc 1 269 0
 481 0210 0120     		movs	r0, #1
 482 0212 FFF7FEFF 		bl	Input_Flag_Write
 270:main.c        ****                 
 271:main.c        ****                 break;
 483              		.loc 1 271 0
 484 0216 0EE1     		b	.L27
 485              	.L17:
 272:main.c        ****                 
 273:main.c        ****             case '2':
 274:main.c        ****                 UART_1_PutString("2");
 486              		.loc 1 274 0
 487 0218 6848     		ldr	r0, .L33+32
 488 021a FFF7FEFF 		bl	UART_1_PutString
 275:main.c        ****                 DisableAllDigitalToAnalogConverters();
 489              		.loc 1 275 0
 490 021e FFF7FEFF 		bl	DisableAllDigitalToAnalogConverters
 276:main.c        ****                 
 277:main.c        ****                 // Configure Muxes
 278:main.c        ****                 HF_SW1_Write(1);    // 1336 Hz (2,5,8,0)
 491              		.loc 1 278 0
 492 0222 0120     		movs	r0, #1
 493 0224 FFF7FEFF 		bl	HF_SW1_Write
 279:main.c        ****                 LF_SW1_Write(0);    // 697  Hz (1,2,3)
 494              		.loc 1 279 0
 495 0228 0020     		movs	r0, #0
 496 022a FFF7FEFF 		bl	LF_SW1_Write
 280:main.c        ****                 
 281:main.c        ****                 // Enable Components
 282:main.c        ****                 HF_DAC_1_Start();   // (1,2,4,5,7,8,*,0)
 497              		.loc 1 282 0
 498 022e FFF7FEFF 		bl	HF_DAC_1_Start
 283:main.c        ****                 LF_DAC_1_Start();   // (1,2,3,4,5,6)
 499              		.loc 1 283 0
 500 0232 FFF7FEFF 		bl	LF_DAC_1_Start
ARM GAS  C:\Users\herreral\AppData\Local\Temp\cc258W7h.s 			page 15


 284:main.c        ****                 
 285:main.c        ****                 // Trigger "User Input" Interrupt
 286:main.c        ****                 Input_Flag_Write(1);
 501              		.loc 1 286 0
 502 0236 0120     		movs	r0, #1
 503 0238 FFF7FEFF 		bl	Input_Flag_Write
 287:main.c        ****                 
 288:main.c        ****                 break;
 504              		.loc 1 288 0
 505 023c FBE0     		b	.L27
 506              	.L18:
 289:main.c        ****                 
 290:main.c        ****             case '3':
 291:main.c        ****                 UART_1_PutString("3");
 507              		.loc 1 291 0
 508 023e 6048     		ldr	r0, .L33+36
 509 0240 FFF7FEFF 		bl	UART_1_PutString
 292:main.c        ****                 DisableAllDigitalToAnalogConverters();
 510              		.loc 1 292 0
 511 0244 FFF7FEFF 		bl	DisableAllDigitalToAnalogConverters
 293:main.c        ****                 
 294:main.c        ****                 // Configure Muxes
 295:main.c        ****                 HF_SW2_Write(0);    // 1477 Hz (3,6,9,#)
 512              		.loc 1 295 0
 513 0248 0020     		movs	r0, #0
 514 024a FFF7FEFF 		bl	HF_SW2_Write
 296:main.c        ****                 LF_SW1_Write(0);    // 697  Hz (1,2,3)
 515              		.loc 1 296 0
 516 024e 0020     		movs	r0, #0
 517 0250 FFF7FEFF 		bl	LF_SW1_Write
 297:main.c        ****                 
 298:main.c        ****                 // Enable Components
 299:main.c        ****                 HF_DAC_2_Start();   // (3,6,9,#)
 518              		.loc 1 299 0
 519 0254 FFF7FEFF 		bl	HF_DAC_2_Start
 300:main.c        ****                 LF_DAC_1_Start();   // (1,2,3,4,5,6)
 520              		.loc 1 300 0
 521 0258 FFF7FEFF 		bl	LF_DAC_1_Start
 301:main.c        ****                 
 302:main.c        ****                 // Trigger "User Input" Interrupt
 303:main.c        ****                 Input_Flag_Write(1);
 522              		.loc 1 303 0
 523 025c 0120     		movs	r0, #1
 524 025e FFF7FEFF 		bl	Input_Flag_Write
 304:main.c        ****                 
 305:main.c        ****                 break;
 525              		.loc 1 305 0
 526 0262 E8E0     		b	.L27
 527              	.L19:
 306:main.c        ****                 
 307:main.c        ****             case '4':
 308:main.c        ****                 UART_1_PutString("4");
 528              		.loc 1 308 0
 529 0264 5748     		ldr	r0, .L33+40
 530 0266 FFF7FEFF 		bl	UART_1_PutString
 309:main.c        ****                 DisableAllDigitalToAnalogConverters();
 531              		.loc 1 309 0
ARM GAS  C:\Users\herreral\AppData\Local\Temp\cc258W7h.s 			page 16


 532 026a FFF7FEFF 		bl	DisableAllDigitalToAnalogConverters
 310:main.c        ****                 
 311:main.c        ****                 // Configure Muxes
 312:main.c        ****                 HF_SW1_Write(0);    // 1209 Hz (1,4,7,*)
 533              		.loc 1 312 0
 534 026e 0020     		movs	r0, #0
 535 0270 FFF7FEFF 		bl	HF_SW1_Write
 313:main.c        ****                 LF_SW1_Write(1);    // 770  Hz (4,5,6)
 536              		.loc 1 313 0
 537 0274 0120     		movs	r0, #1
 538 0276 FFF7FEFF 		bl	LF_SW1_Write
 314:main.c        ****                 
 315:main.c        ****                 // Enable Components
 316:main.c        ****                 HF_DAC_1_Start();   // (1,2,4,5,7,8,*,0)
 539              		.loc 1 316 0
 540 027a FFF7FEFF 		bl	HF_DAC_1_Start
 317:main.c        ****                 LF_DAC_1_Start();   // (1,2,3,4,5,6)
 541              		.loc 1 317 0
 542 027e FFF7FEFF 		bl	LF_DAC_1_Start
 318:main.c        ****                 
 319:main.c        ****                 // Trigger "User Input" Interrupt
 320:main.c        ****                 Input_Flag_Write(1);
 543              		.loc 1 320 0
 544 0282 0120     		movs	r0, #1
 545 0284 FFF7FEFF 		bl	Input_Flag_Write
 321:main.c        ****                 
 322:main.c        ****                 break;
 546              		.loc 1 322 0
 547 0288 D5E0     		b	.L27
 548              	.L20:
 323:main.c        ****                 
 324:main.c        ****             case '5':
 325:main.c        ****                 UART_1_PutString("5");
 549              		.loc 1 325 0
 550 028a 4F48     		ldr	r0, .L33+44
 551 028c FFF7FEFF 		bl	UART_1_PutString
 326:main.c        ****                 DisableAllDigitalToAnalogConverters();
 552              		.loc 1 326 0
 553 0290 FFF7FEFF 		bl	DisableAllDigitalToAnalogConverters
 327:main.c        ****                 
 328:main.c        ****                 // Configure Muxes
 329:main.c        ****                 HF_SW1_Write(1);    // 1336 Hz (2,5,8,0)
 554              		.loc 1 329 0
 555 0294 0120     		movs	r0, #1
 556 0296 FFF7FEFF 		bl	HF_SW1_Write
 330:main.c        ****                 LF_SW1_Write(1);    // 770  Hz (4,5,6)
 557              		.loc 1 330 0
 558 029a 0120     		movs	r0, #1
 559 029c FFF7FEFF 		bl	LF_SW1_Write
 331:main.c        ****                 
 332:main.c        ****                 // Enable Components
 333:main.c        ****                 HF_DAC_1_Start();   // (1,2,4,5,7,8,*,0)
 560              		.loc 1 333 0
 561 02a0 FFF7FEFF 		bl	HF_DAC_1_Start
 334:main.c        ****                 LF_DAC_1_Start();   // (1,2,3,4,5,6)
 562              		.loc 1 334 0
 563 02a4 FFF7FEFF 		bl	LF_DAC_1_Start
ARM GAS  C:\Users\herreral\AppData\Local\Temp\cc258W7h.s 			page 17


 335:main.c        ****                 
 336:main.c        ****                 // Trigger "User Input" Interrupt
 337:main.c        ****                 Input_Flag_Write(1);
 564              		.loc 1 337 0
 565 02a8 0120     		movs	r0, #1
 566 02aa FFF7FEFF 		bl	Input_Flag_Write
 338:main.c        ****                 
 339:main.c        ****                 break;
 567              		.loc 1 339 0
 568 02ae C2E0     		b	.L27
 569              	.L21:
 340:main.c        ****                 
 341:main.c        ****             case '6':
 342:main.c        ****                 UART_1_PutString("6");
 570              		.loc 1 342 0
 571 02b0 4648     		ldr	r0, .L33+48
 572 02b2 FFF7FEFF 		bl	UART_1_PutString
 343:main.c        ****                 DisableAllDigitalToAnalogConverters();
 573              		.loc 1 343 0
 574 02b6 FFF7FEFF 		bl	DisableAllDigitalToAnalogConverters
 344:main.c        ****                 
 345:main.c        ****                 // Configure Muxes
 346:main.c        ****                 HF_SW2_Write(0);    // 1477 Hz (3,6,9,#)
 575              		.loc 1 346 0
 576 02ba 0020     		movs	r0, #0
 577 02bc FFF7FEFF 		bl	HF_SW2_Write
 347:main.c        ****                 LF_SW1_Write(1);    // 770  Hz (4,5,6)
 578              		.loc 1 347 0
 579 02c0 0120     		movs	r0, #1
 580 02c2 FFF7FEFF 		bl	LF_SW1_Write
 348:main.c        ****                 
 349:main.c        ****                 // Enable Components
 350:main.c        ****                 HF_DAC_2_Start();   // (3,6,9,#)
 581              		.loc 1 350 0
 582 02c6 FFF7FEFF 		bl	HF_DAC_2_Start
 351:main.c        ****                 LF_DAC_1_Start();   // (1,2,3,4,5,6)
 583              		.loc 1 351 0
 584 02ca FFF7FEFF 		bl	LF_DAC_1_Start
 352:main.c        ****                 
 353:main.c        ****                 // Trigger "User Input" Interrupt
 354:main.c        ****                 Input_Flag_Write(1);
 585              		.loc 1 354 0
 586 02ce 0120     		movs	r0, #1
 587 02d0 FFF7FEFF 		bl	Input_Flag_Write
 355:main.c        ****                 
 356:main.c        ****                 break;
 588              		.loc 1 356 0
 589 02d4 AFE0     		b	.L27
 590              	.L22:
 357:main.c        ****                 
 358:main.c        ****             case '7':
 359:main.c        ****                 UART_1_PutString("7");
 591              		.loc 1 359 0
 592 02d6 3E48     		ldr	r0, .L33+52
 593 02d8 FFF7FEFF 		bl	UART_1_PutString
 360:main.c        ****                 DisableAllDigitalToAnalogConverters();
 594              		.loc 1 360 0
ARM GAS  C:\Users\herreral\AppData\Local\Temp\cc258W7h.s 			page 18


 595 02dc FFF7FEFF 		bl	DisableAllDigitalToAnalogConverters
 361:main.c        ****                 
 362:main.c        ****                 // Configure Muxes
 363:main.c        ****                 HF_SW1_Write(0);    // 1209 Hz (1,4,7,*)
 596              		.loc 1 363 0
 597 02e0 0020     		movs	r0, #0
 598 02e2 FFF7FEFF 		bl	HF_SW1_Write
 364:main.c        ****                 LF_SW2_Write(0);    // 852  Hz (7,8,9)
 599              		.loc 1 364 0
 600 02e6 0020     		movs	r0, #0
 601 02e8 FFF7FEFF 		bl	LF_SW2_Write
 365:main.c        ****                 
 366:main.c        ****                 // Enable Components
 367:main.c        ****                 HF_DAC_1_Start();   // (1,2,4,5,7,8,*,0)
 602              		.loc 1 367 0
 603 02ec FFF7FEFF 		bl	HF_DAC_1_Start
 368:main.c        ****                 LF_DAC_2_Start();   // (7,8,9,*,0,#)
 604              		.loc 1 368 0
 605 02f0 FFF7FEFF 		bl	LF_DAC_2_Start
 369:main.c        ****                 
 370:main.c        ****                 // Trigger "User Input" Interrupt
 371:main.c        ****                 Input_Flag_Write(1);
 606              		.loc 1 371 0
 607 02f4 0120     		movs	r0, #1
 608 02f6 FFF7FEFF 		bl	Input_Flag_Write
 372:main.c        ****                 
 373:main.c        ****                 break;
 609              		.loc 1 373 0
 610 02fa 9CE0     		b	.L27
 611              	.L23:
 374:main.c        ****                 
 375:main.c        ****             case '8':
 376:main.c        ****                 UART_1_PutString("8");
 612              		.loc 1 376 0
 613 02fc 3548     		ldr	r0, .L33+56
 614 02fe FFF7FEFF 		bl	UART_1_PutString
 377:main.c        ****                 DisableAllDigitalToAnalogConverters();
 615              		.loc 1 377 0
 616 0302 FFF7FEFF 		bl	DisableAllDigitalToAnalogConverters
 378:main.c        ****                 
 379:main.c        ****                 // Configure Muxes
 380:main.c        ****                 HF_SW1_Write(1);    // 1336 Hz (2,5,8,0)
 617              		.loc 1 380 0
 618 0306 0120     		movs	r0, #1
 619 0308 FFF7FEFF 		bl	HF_SW1_Write
 381:main.c        ****                 LF_SW2_Write(0);    // 852  Hz (7,8,9)
 620              		.loc 1 381 0
 621 030c 0020     		movs	r0, #0
 622 030e FFF7FEFF 		bl	LF_SW2_Write
 382:main.c        ****                 
 383:main.c        ****                 // Enable Components
 384:main.c        ****                 HF_DAC_1_Start();   // (1,2,4,5,7,8,*,0)
 623              		.loc 1 384 0
 624 0312 FFF7FEFF 		bl	HF_DAC_1_Start
 385:main.c        ****                 LF_DAC_2_Start();   // (7,8,9,*,0,#)
 625              		.loc 1 385 0
 626 0316 FFF7FEFF 		bl	LF_DAC_2_Start
ARM GAS  C:\Users\herreral\AppData\Local\Temp\cc258W7h.s 			page 19


 386:main.c        ****                 
 387:main.c        ****                 // Trigger "User Input" Interrupt
 388:main.c        ****                 Input_Flag_Write(1);
 627              		.loc 1 388 0
 628 031a 0120     		movs	r0, #1
 629 031c FFF7FEFF 		bl	Input_Flag_Write
 389:main.c        ****                 
 390:main.c        ****                 break;
 630              		.loc 1 390 0
 631 0320 89E0     		b	.L27
 632              	.L24:
 391:main.c        ****                 
 392:main.c        ****             case '9':
 393:main.c        ****                 UART_1_PutString("9");
 633              		.loc 1 393 0
 634 0322 2D48     		ldr	r0, .L33+60
 635 0324 FFF7FEFF 		bl	UART_1_PutString
 394:main.c        ****                 DisableAllDigitalToAnalogConverters();
 636              		.loc 1 394 0
 637 0328 FFF7FEFF 		bl	DisableAllDigitalToAnalogConverters
 395:main.c        ****                 
 396:main.c        ****                 // Configure Muxes
 397:main.c        ****                 HF_SW2_Write(0);    // 1477 Hz (3,6,9,#)
 638              		.loc 1 397 0
 639 032c 0020     		movs	r0, #0
 640 032e FFF7FEFF 		bl	HF_SW2_Write
 398:main.c        ****                 LF_SW2_Write(0);    // 852  Hz (7,8,9)
 641              		.loc 1 398 0
 642 0332 0020     		movs	r0, #0
 643 0334 FFF7FEFF 		bl	LF_SW2_Write
 399:main.c        ****                 
 400:main.c        ****                 // Enable Components
 401:main.c        ****                 HF_DAC_2_Start();   // (3,6,9,#)
 644              		.loc 1 401 0
 645 0338 FFF7FEFF 		bl	HF_DAC_2_Start
 402:main.c        ****                 LF_DAC_2_Start();   // (7,8,9,*,0,#)
 646              		.loc 1 402 0
 647 033c FFF7FEFF 		bl	LF_DAC_2_Start
 403:main.c        ****                 
 404:main.c        ****                 // Trigger "User Input" Interrupt
 405:main.c        ****                 Input_Flag_Write(1);
 648              		.loc 1 405 0
 649 0340 0120     		movs	r0, #1
 650 0342 FFF7FEFF 		bl	Input_Flag_Write
 406:main.c        ****                 
 407:main.c        ****                 break;
 651              		.loc 1 407 0
 652 0346 76E0     		b	.L27
 653              	.L14:
 408:main.c        ****                 
 409:main.c        ****             case '*':
 410:main.c        ****                 UART_1_PutString("*");
 654              		.loc 1 410 0
 655 0348 2448     		ldr	r0, .L33+64
 656 034a FFF7FEFF 		bl	UART_1_PutString
 411:main.c        ****                 DisableAllDigitalToAnalogConverters();
 657              		.loc 1 411 0
ARM GAS  C:\Users\herreral\AppData\Local\Temp\cc258W7h.s 			page 20


 658 034e FFF7FEFF 		bl	DisableAllDigitalToAnalogConverters
 412:main.c        ****                 
 413:main.c        ****                 // Configure Muxes
 414:main.c        ****                 HF_SW1_Write(0);    // 1209 Hz (1,4,7,*)
 659              		.loc 1 414 0
 660 0352 0020     		movs	r0, #0
 661 0354 FFF7FEFF 		bl	HF_SW1_Write
 415:main.c        ****                 LF_SW2_Write(1);    // 941  Hz (*,0,#)
 662              		.loc 1 415 0
 663 0358 0120     		movs	r0, #1
 664 035a FFF7FEFF 		bl	LF_SW2_Write
 416:main.c        ****                 
 417:main.c        ****                 // Enable Components
 418:main.c        ****                 HF_DAC_1_Start();   // (1,2,4,5,7,8,*,0)
 665              		.loc 1 418 0
 666 035e FFF7FEFF 		bl	HF_DAC_1_Start
 419:main.c        ****                 LF_DAC_2_Start();   // (7,8,9,*,0,#)
 667              		.loc 1 419 0
 668 0362 FFF7FEFF 		bl	LF_DAC_2_Start
 420:main.c        ****                 
 421:main.c        ****                 // Trigger "User Input" Interrupt
 422:main.c        ****                 Input_Flag_Write(1);
 669              		.loc 1 422 0
 670 0366 0120     		movs	r0, #1
 671 0368 FFF7FEFF 		bl	Input_Flag_Write
 423:main.c        ****                 
 424:main.c        ****                 break;
 672              		.loc 1 424 0
 673 036c 63E0     		b	.L27
 674              	.L12:
 425:main.c        ****                 
 426:main.c        ****             case '#':
 427:main.c        ****                 UART_1_PutString("#");
 675              		.loc 1 427 0
 676 036e 1C48     		ldr	r0, .L33+68
 677 0370 FFF7FEFF 		bl	UART_1_PutString
 428:main.c        ****                 DisableAllDigitalToAnalogConverters();
 678              		.loc 1 428 0
 679 0374 FFF7FEFF 		bl	DisableAllDigitalToAnalogConverters
 429:main.c        ****                 
 430:main.c        ****                 // Configure Muxes
 431:main.c        ****                 HF_SW2_Write(0);    // 1477 Hz (3,6,9,#)
 680              		.loc 1 431 0
 681 0378 0020     		movs	r0, #0
 682 037a FFF7FEFF 		bl	HF_SW2_Write
 432:main.c        ****                 LF_SW2_Write(1);    // 941  Hz (*,0,#)
 683              		.loc 1 432 0
 684 037e 0120     		movs	r0, #1
 685 0380 FFF7FEFF 		bl	LF_SW2_Write
 433:main.c        ****                 
 434:main.c        ****                 // Enable Components
 435:main.c        ****                 HF_DAC_2_Start();   // (3,6,9,#)
 686              		.loc 1 435 0
 687 0384 FFF7FEFF 		bl	HF_DAC_2_Start
 436:main.c        ****                 LF_DAC_2_Start();   // (7,8,9,*,0,#)
 688              		.loc 1 436 0
 689 0388 FFF7FEFF 		bl	LF_DAC_2_Start
ARM GAS  C:\Users\herreral\AppData\Local\Temp\cc258W7h.s 			page 21


 437:main.c        ****                 
 438:main.c        ****                 // Trigger "User Input" Interrupt
 439:main.c        ****                 Input_Flag_Write(1);
 690              		.loc 1 439 0
 691 038c 0120     		movs	r0, #1
 692 038e FFF7FEFF 		bl	Input_Flag_Write
 440:main.c        ****                 
 441:main.c        ****                 break;
 693              		.loc 1 441 0
 694 0392 50E0     		b	.L27
 695              	.L25:
 696              	.LBB2:
 442:main.c        **** 
 443:main.c        ****             case 'S':
 444:main.c        ****             case 's':
 445:main.c        ****                 //Get Samples
 446:main.c        ****                 for (int16 sampleNumber = 0; sampleNumber < NUMBER_OF_SAMPLES; sampleNumber += 0)
 697              		.loc 1 446 0
 698 0394 0023     		movs	r3, #0
 699 0396 FB80     		strh	r3, [r7, #6]	@ movhi
 700 0398 3EE0     		b	.L28
 701              	.L34:
 702 039a 00BF     		.align	2
 703              	.L33:
 704 039c 00000000 		.word	ContinuouslySendData
 705 03a0 00000000 		.word	SendSingleByte
 706 03a4 00000000 		.word	SendEmulatedData
 707 03a8 00000000 		.word	EmulatedData
 708 03ac 00000000 		.word	Transmit
 709 03b0 00000000 		.word	UserInput
 710 03b4 10000000 		.word	.LC4
 711 03b8 14000000 		.word	.LC5
 712 03bc 18000000 		.word	.LC6
 713 03c0 1C000000 		.word	.LC7
 714 03c4 20000000 		.word	.LC8
 715 03c8 24000000 		.word	.LC9
 716 03cc 28000000 		.word	.LC10
 717 03d0 2C000000 		.word	.LC11
 718 03d4 30000000 		.word	.LC12
 719 03d8 34000000 		.word	.LC13
 720 03dc 38000000 		.word	.LC14
 721 03e0 3C000000 		.word	.LC15
 722              	.L30:
 447:main.c        ****                 {                 
 448:main.c        ****                     /* Check to see if an ADC conversion has completed */
 449:main.c        ****                     if(ADC_DelSig_1_IsEndConversion(ADC_DelSig_1_RETURN_STATUS))
 723              		.loc 1 449 0
 724 03e4 0120     		movs	r0, #1
 725 03e6 FFF7FEFF 		bl	ADC_DelSig_1_IsEndConversion
 726 03ea 0346     		mov	r3, r0
 727 03ec 002B     		cmp	r3, #0
 728 03ee 13D0     		beq	.L28
 450:main.c        ****                     {
 451:main.c        ****                         Output = ADC_DelSig_1_GetResult16();
 729              		.loc 1 451 0
 730 03f0 FFF7FEFF 		bl	ADC_DelSig_1_GetResult16
 731 03f4 0346     		mov	r3, r0
ARM GAS  C:\Users\herreral\AppData\Local\Temp\cc258W7h.s 			page 22


 732 03f6 9AB2     		uxth	r2, r3
 733 03f8 0F4B     		ldr	r3, .L35
 734 03fa 1A80     		strh	r2, [r3]	@ movhi
 452:main.c        ****                         array[sampleNumber] = Output;                       
 735              		.loc 1 452 0
 736 03fc B7F90630 		ldrsh	r3, [r7, #6]
 737 0400 0D4A     		ldr	r2, .L35
 738 0402 1288     		ldrh	r2, [r2]
 739 0404 11B2     		sxth	r1, r2
 740 0406 0D4A     		ldr	r2, .L35+4
 741 0408 22F81310 		strh	r1, [r2, r3, lsl #1]	@ movhi
 453:main.c        ****                         sampleNumber ++;
 742              		.loc 1 453 0
 743 040c B7F90630 		ldrsh	r3, [r7, #6]
 744 0410 9BB2     		uxth	r3, r3
 745 0412 0133     		adds	r3, r3, #1
 746 0414 9BB2     		uxth	r3, r3
 747 0416 FB80     		strh	r3, [r7, #6]	@ movhi
 748              	.L28:
 446:main.c        ****                 {                 
 749              		.loc 1 446 0 discriminator 1
 750 0418 B7F90630 		ldrsh	r3, [r7, #6]
 751 041c B3F5FA6F 		cmp	r3, #2000
 752 0420 E0DB     		blt	.L30
 753              	.LBE2:
 454:main.c        ****                     }
 455:main.c        ****                 }
 456:main.c        ****                 // Print samples 
 457:main.c        ****                 //for (int16 sampleNumber = 0; sampleNumber < NUMBER_OF_SAMPLES; sampleNumber ++)
 458:main.c        ****                 //{
 459:main.c        ****                     //sprintf(TransmitBuffer, "%d\r\n", array[sampleNumber]);
 460:main.c        ****                     //UART_1_PutString(TransmitBuffer);
 461:main.c        ****                 //}
 462:main.c        ****                 // Decode data
 463:main.c        ****                 
 464:main.c        ****                 DTMF();              
 754              		.loc 1 464 0
 755 0422 FFF7FEFF 		bl	DTMF
 465:main.c        ****                 
 466:main.c        ****                 break;
 756              		.loc 1 466 0
 757 0426 06E0     		b	.L27
 758              	.L26:
 467:main.c        ****             
 468:main.c        ****             case 'X':    
 469:main.c        ****             case 'x':
 470:main.c        ****                 UART_1_PutString("Disabling DACs ...");
 759              		.loc 1 470 0
 760 0428 0548     		ldr	r0, .L35+8
 761 042a FFF7FEFF 		bl	UART_1_PutString
 471:main.c        ****                 DisableAllDigitalToAnalogConverters();
 762              		.loc 1 471 0
 763 042e FFF7FEFF 		bl	DisableAllDigitalToAnalogConverters
 472:main.c        ****                 
 473:main.c        ****                 break;
 764              		.loc 1 473 0
 765 0432 00E0     		b	.L27
ARM GAS  C:\Users\herreral\AppData\Local\Temp\cc258W7h.s 			page 23


 766              	.L32:
 474:main.c        ****                 
 475:main.c        ****             default:
 476:main.c        ****                 /* Place error handling code here */
 477:main.c        ****                 break;    
 767              		.loc 1 477 0
 768 0434 00BF     		nop
 769              	.L27:
 478:main.c        ****         }
 479:main.c        ****         
 480:main.c        ****     }
 770              		.loc 1 480 0 discriminator 1
 771 0436 11E6     		b	.L31
 772              	.L36:
 773              		.align	2
 774              	.L35:
 775 0438 00000000 		.word	Output
 776 043c 00000000 		.word	array
 777 0440 40000000 		.word	.LC16
 778              		.cfi_endproc
 779              	.LFE67:
 780              		.size	main, .-main
 781              		.global	__aeabi_i2d
 782              		.global	__aeabi_dmul
 783              		.global	__aeabi_ddiv
 784              		.section	.rodata
 785 0053 00       		.align	2
 786              	.LC17:
 787 0054 4C6F3D25 		.ascii	"Lo=%d\015\012\000"
 787      640D0A00 
 788              		.align	2
 789              	.LC18:
 790 005c 48693D25 		.ascii	"Hi=%d\015\012\000"
 790      640D0A00 
 791              		.align	2
 792              	.LC0:
 793 0064 B9020000 		.word	697
 794 0068 02030000 		.word	770
 795 006c 54030000 		.word	852
 796 0070 AD030000 		.word	941
 797              		.align	2
 798              	.LC1:
 799 0074 B9040000 		.word	1209
 800 0078 38050000 		.word	1336
 801 007c C5050000 		.word	1477
 802              		.section	.text.DTMF,"ax",%progbits
 803              		.align	2
 804              		.global	DTMF
 805              		.thumb
 806              		.thumb_func
 807              		.type	DTMF, %function
 808              	DTMF:
 809              	.LFB68:
 481:main.c        **** }
 482:main.c        **** 
 483:main.c        **** 
 484:main.c        **** 
ARM GAS  C:\Users\herreral\AppData\Local\Temp\cc258W7h.s 			page 24


 485:main.c        **** void DTMF()
 486:main.c        **** {
 810              		.loc 1 486 0
 811              		.cfi_startproc
 812              		@ args = 0, pretend = 0, frame = 16112
 813              		@ frame_needed = 1, uses_anonymous_args = 0
 814 0000 90B5     		push	{r4, r7, lr}
 815              		.cfi_def_cfa_offset 12
 816              		.cfi_offset 4, -12
 817              		.cfi_offset 7, -8
 818              		.cfi_offset 14, -4
 819 0002 ADF57B5D 		sub	sp, sp, #16064
 820              		.cfi_def_cfa_offset 16076
 821 0006 8DB0     		sub	sp, sp, #52
 822              		.cfi_def_cfa_offset 16128
 823 0008 00AF     		add	r7, sp, #0
 824              		.cfi_def_cfa_register 7
 825              	.LBB3:
 487:main.c        ****     //UART_1_PutString("DTMF\n\r");
 488:main.c        ****     double signal[NUMBER_OF_SAMPLES];
 489:main.c        ****     for(int i = 0; i < NUMBER_OF_SAMPLES; i++)
 826              		.loc 1 489 0
 827 000a 0023     		movs	r3, #0
 828 000c 07F57B52 		add	r2, r7, #16064
 829 0010 02F12C02 		add	r2, r2, #44
 830 0014 1360     		str	r3, [r2]
 831 0016 54E0     		b	.L38
 832              	.L39:
 833              	.LBB4:
 490:main.c        ****     {
 491:main.c        ****         double pdata = (double)array[i];
 834              		.loc 1 491 0 discriminator 3
 835 0018 A44A     		ldr	r2, .L44
 836 001a 07F57B53 		add	r3, r7, #16064
 837 001e 03F12C03 		add	r3, r3, #44
 838 0022 1B68     		ldr	r3, [r3]
 839 0024 32F91330 		ldrsh	r3, [r2, r3, lsl #1]
 840 0028 1846     		mov	r0, r3
 841 002a FFF7FEFF 		bl	__aeabi_i2d
 842 002e 0346     		mov	r3, r0
 843 0030 0C46     		mov	r4, r1
 844 0032 07F57B52 		add	r2, r7, #16064
 845 0036 02F12002 		add	r2, r2, #32
 846 003a C2E90034 		strd	r3, [r2]
 492:main.c        ****         pdata = pdata*0.5;
 847              		.loc 1 492 0 discriminator 3
 848 003e 4FF00002 		mov	r2, #0
 849 0042 9B4B     		ldr	r3, .L44+4
 850 0044 07F57B51 		add	r1, r7, #16064
 851 0048 01F12001 		add	r1, r1, #32
 852 004c D1E90001 		ldrd	r0, [r1]
 853 0050 FFF7FEFF 		bl	__aeabi_dmul
 854 0054 0346     		mov	r3, r0
 855 0056 0C46     		mov	r4, r1
 856 0058 07F57B52 		add	r2, r7, #16064
 857 005c 02F12002 		add	r2, r2, #32
 858 0060 C2E90034 		strd	r3, [r2]
ARM GAS  C:\Users\herreral\AppData\Local\Temp\cc258W7h.s 			page 25


 493:main.c        ****         pdata = pdata/128;
 859              		.loc 1 493 0 discriminator 3
 860 0064 4FF00002 		mov	r2, #0
 861 0068 924B     		ldr	r3, .L44+8
 862 006a 07F57B51 		add	r1, r7, #16064
 863 006e 01F12001 		add	r1, r1, #32
 864 0072 D1E90001 		ldrd	r0, [r1]
 865 0076 FFF7FEFF 		bl	__aeabi_ddiv
 866 007a 0346     		mov	r3, r0
 867 007c 0C46     		mov	r4, r1
 868 007e 07F57B52 		add	r2, r7, #16064
 869 0082 02F12002 		add	r2, r2, #32
 870 0086 C2E90034 		strd	r3, [r2]
 494:main.c        ****         signal[i] = pdata;
 871              		.loc 1 494 0 discriminator 3
 872 008a 07F17003 		add	r3, r7, #112
 873 008e 183B     		subs	r3, r3, #24
 874 0090 07F57B52 		add	r2, r7, #16064
 875 0094 02F12C02 		add	r2, r2, #44
 876 0098 1268     		ldr	r2, [r2]
 877 009a D200     		lsls	r2, r2, #3
 878 009c 1A44     		add	r2, r2, r3
 879 009e 07F57B53 		add	r3, r7, #16064
 880 00a2 03F12003 		add	r3, r3, #32
 881 00a6 18CB     		ldmia	r3, {r3-r4}
 882 00a8 C2E90034 		strd	r3, [r2]
 883              	.LBE4:
 489:main.c        ****     {
 884              		.loc 1 489 0 discriminator 3
 885 00ac 07F57B53 		add	r3, r7, #16064
 886 00b0 03F12C03 		add	r3, r3, #44
 887 00b4 1B68     		ldr	r3, [r3]
 888 00b6 0133     		adds	r3, r3, #1
 889 00b8 07F57B52 		add	r2, r7, #16064
 890 00bc 02F12C02 		add	r2, r2, #44
 891 00c0 1360     		str	r3, [r2]
 892              	.L38:
 489:main.c        ****     {
 893              		.loc 1 489 0 is_stmt 0 discriminator 1
 894 00c2 07F57B53 		add	r3, r7, #16064
 895 00c6 03F12C03 		add	r3, r3, #44
 896 00ca 1B68     		ldr	r3, [r3]
 897 00cc B3F5FA6F 		cmp	r3, #2000
 898 00d0 A2DB     		blt	.L39
 899              	.LBE3:
 495:main.c        ****     }
 496:main.c        ****     
 497:main.c        ****     
 498:main.c        ****     double loAmplitudes[4] = {0, 0, 0, 0};
 900              		.loc 1 498 0 is_stmt 1
 901 00d2 07F17003 		add	r3, r7, #112
 902 00d6 383B     		subs	r3, r3, #56
 903 00d8 1846     		mov	r0, r3
 904 00da 2023     		movs	r3, #32
 905 00dc 1A46     		mov	r2, r3
 906 00de 0021     		movs	r1, #0
 907 00e0 FFF7FEFF 		bl	memset
ARM GAS  C:\Users\herreral\AppData\Local\Temp\cc258W7h.s 			page 26


 499:main.c        ****     double hiAmplitudes[3] = {0, 0, 0};
 908              		.loc 1 499 0
 909 00e4 07F13003 		add	r3, r7, #48
 910 00e8 103B     		subs	r3, r3, #16
 911 00ea 4FF00001 		mov	r1, #0
 912 00ee 4FF00002 		mov	r2, #0
 913 00f2 C3E90012 		strd	r1, [r3]
 914 00f6 07F13003 		add	r3, r7, #48
 915 00fa 103B     		subs	r3, r3, #16
 916 00fc 4FF00001 		mov	r1, #0
 917 0100 4FF00002 		mov	r2, #0
 918 0104 C3E90212 		strd	r1, [r3, #8]
 919 0108 07F13003 		add	r3, r7, #48
 920 010c 103B     		subs	r3, r3, #16
 921 010e 4FF00001 		mov	r1, #0
 922 0112 4FF00002 		mov	r2, #0
 923 0116 C3E90412 		strd	r1, [r3, #16]
 500:main.c        ****     int loFrequency[4] = {697, 770, 852, 941};
 924              		.loc 1 500 0
 925 011a 07F13003 		add	r3, r7, #48
 926 011e 203B     		subs	r3, r3, #32
 927 0120 654A     		ldr	r2, .L44+12
 928 0122 1C46     		mov	r4, r3
 929 0124 1346     		mov	r3, r2
 930 0126 0FCB     		ldmia	r3, {r0, r1, r2, r3}
 931 0128 84E80F00 		stmia	r4, {r0, r1, r2, r3}
 501:main.c        ****     int hiFrecuency[3] = {1209, 1336, 1477};
 932              		.loc 1 501 0
 933 012c 07F13003 		add	r3, r7, #48
 934 0130 2C3B     		subs	r3, r3, #44
 935 0132 624A     		ldr	r2, .L44+16
 936 0134 07CA     		ldmia	r2, {r0, r1, r2}
 937 0136 83E80700 		stmia	r3, {r0, r1, r2}
 938              	.LBB5:
 502:main.c        ****     
 503:main.c        ****     for(uint8 i = 0; i < 4; i++)
 939              		.loc 1 503 0
 940 013a 0023     		movs	r3, #0
 941 013c 07F57B52 		add	r2, r7, #16064
 942 0140 02F12B02 		add	r2, r2, #43
 943 0144 1370     		strb	r3, [r2]
 944 0146 2BE0     		b	.L40
 945              	.L41:
 504:main.c        ****     {
 505:main.c        ****         loAmplitudes[i] = Goertzel(NUMBER_OF_SAMPLES,loFrequency[i],SAMPLING_RATE, signal);
 946              		.loc 1 505 0 discriminator 3
 947 0148 07F57B53 		add	r3, r7, #16064
 948 014c 03F12B03 		add	r3, r3, #43
 949 0150 1C78     		ldrb	r4, [r3]	@ zero_extendqisi2
 950 0152 07F57B53 		add	r3, r7, #16064
 951 0156 03F12B03 		add	r3, r3, #43
 952 015a 1A78     		ldrb	r2, [r3]	@ zero_extendqisi2
 953 015c 07F13003 		add	r3, r7, #48
 954 0160 203B     		subs	r3, r3, #32
 955 0162 53F82210 		ldr	r1, [r3, r2, lsl #2]
 956 0166 07F17003 		add	r3, r7, #112
 957 016a 183B     		subs	r3, r3, #24
ARM GAS  C:\Users\herreral\AppData\Local\Temp\cc258W7h.s 			page 27


 958 016c 42F21072 		movw	r2, #10000
 959 0170 4FF4FA60 		mov	r0, #2000
 960 0174 FFF7FEFF 		bl	Goertzel
 961 0178 0A46     		mov	r2, r1
 962 017a 0146     		mov	r1, r0
 963 017c 07F17003 		add	r3, r7, #112
 964 0180 383B     		subs	r3, r3, #56
 965 0182 E000     		lsls	r0, r4, #3
 966 0184 0344     		add	r3, r3, r0
 967 0186 C3E90012 		strd	r1, [r3]
 503:main.c        ****     {
 968              		.loc 1 503 0 discriminator 3
 969 018a 07F57B53 		add	r3, r7, #16064
 970 018e 03F12B03 		add	r3, r3, #43
 971 0192 1B78     		ldrb	r3, [r3]	@ zero_extendqisi2
 972 0194 0133     		adds	r3, r3, #1
 973 0196 07F57B52 		add	r2, r7, #16064
 974 019a 02F12B02 		add	r2, r2, #43
 975 019e 1370     		strb	r3, [r2]
 976              	.L40:
 503:main.c        ****     {
 977              		.loc 1 503 0 is_stmt 0 discriminator 1
 978 01a0 07F57B53 		add	r3, r7, #16064
 979 01a4 03F12B03 		add	r3, r3, #43
 980 01a8 1B78     		ldrb	r3, [r3]	@ zero_extendqisi2
 981 01aa 032B     		cmp	r3, #3
 982 01ac CCD9     		bls	.L41
 983              	.LBE5:
 984              	.LBB6:
 506:main.c        ****     }
 507:main.c        ****     
 508:main.c        ****     for(uint8 i = 0; i < 3; i++)
 985              		.loc 1 508 0 is_stmt 1
 986 01ae 0023     		movs	r3, #0
 987 01b0 07F57B52 		add	r2, r7, #16064
 988 01b4 02F12A02 		add	r2, r2, #42
 989 01b8 1370     		strb	r3, [r2]
 990 01ba 2BE0     		b	.L42
 991              	.L43:
 509:main.c        ****     {
 510:main.c        ****         hiAmplitudes[i] = Goertzel(NUMBER_OF_SAMPLES,hiFrecuency[i],SAMPLING_RATE, signal);
 992              		.loc 1 510 0 discriminator 3
 993 01bc 07F57B53 		add	r3, r7, #16064
 994 01c0 03F12A03 		add	r3, r3, #42
 995 01c4 1C78     		ldrb	r4, [r3]	@ zero_extendqisi2
 996 01c6 07F57B53 		add	r3, r7, #16064
 997 01ca 03F12A03 		add	r3, r3, #42
 998 01ce 1A78     		ldrb	r2, [r3]	@ zero_extendqisi2
 999 01d0 07F13003 		add	r3, r7, #48
 1000 01d4 2C3B     		subs	r3, r3, #44
 1001 01d6 53F82210 		ldr	r1, [r3, r2, lsl #2]
 1002 01da 07F17003 		add	r3, r7, #112
 1003 01de 183B     		subs	r3, r3, #24
 1004 01e0 42F21072 		movw	r2, #10000
 1005 01e4 4FF4FA60 		mov	r0, #2000
 1006 01e8 FFF7FEFF 		bl	Goertzel
 1007 01ec 0A46     		mov	r2, r1
ARM GAS  C:\Users\herreral\AppData\Local\Temp\cc258W7h.s 			page 28


 1008 01ee 0146     		mov	r1, r0
 1009 01f0 07F13003 		add	r3, r7, #48
 1010 01f4 103B     		subs	r3, r3, #16
 1011 01f6 E000     		lsls	r0, r4, #3
 1012 01f8 0344     		add	r3, r3, r0
 1013 01fa C3E90012 		strd	r1, [r3]
 508:main.c        ****     {
 1014              		.loc 1 508 0 discriminator 3
 1015 01fe 07F57B53 		add	r3, r7, #16064
 1016 0202 03F12A03 		add	r3, r3, #42
 1017 0206 1B78     		ldrb	r3, [r3]	@ zero_extendqisi2
 1018 0208 0133     		adds	r3, r3, #1
 1019 020a 07F57B52 		add	r2, r7, #16064
 1020 020e 02F12A02 		add	r2, r2, #42
 1021 0212 1370     		strb	r3, [r2]
 1022              	.L42:
 508:main.c        ****     {
 1023              		.loc 1 508 0 is_stmt 0 discriminator 1
 1024 0214 07F57B53 		add	r3, r7, #16064
 1025 0218 03F12A03 		add	r3, r3, #42
 1026 021c 1B78     		ldrb	r3, [r3]	@ zero_extendqisi2
 1027 021e 022B     		cmp	r3, #2
 1028 0220 CCD9     		bls	.L43
 1029              	.LBE6:
 511:main.c        ****     }
 512:main.c        ****     
 513:main.c        ****     uint16 loAmp = getMaxValue(loAmplitudes, 4);
 1030              		.loc 1 513 0 is_stmt 1
 1031 0222 07F17003 		add	r3, r7, #112
 1032 0226 383B     		subs	r3, r3, #56
 1033 0228 0421     		movs	r1, #4
 1034 022a 1846     		mov	r0, r3
 1035 022c FFF7FEFF 		bl	getMaxValue
 1036 0230 0346     		mov	r3, r0
 1037 0232 07F57B52 		add	r2, r7, #16064
 1038 0236 02F11E02 		add	r2, r2, #30
 1039 023a 1380     		strh	r3, [r2]	@ movhi
 514:main.c        ****     uint16 hiAmp = getMaxValue(hiAmplitudes, 3);
 1040              		.loc 1 514 0
 1041 023c 07F13003 		add	r3, r7, #48
 1042 0240 103B     		subs	r3, r3, #16
 1043 0242 0321     		movs	r1, #3
 1044 0244 1846     		mov	r0, r3
 1045 0246 FFF7FEFF 		bl	getMaxValue
 1046 024a 0346     		mov	r3, r0
 1047 024c 07F57B52 		add	r2, r7, #16064
 1048 0250 02F11C02 		add	r2, r2, #28
 1049 0254 1380     		strh	r3, [r2]	@ movhi
 515:main.c        ****     
 516:main.c        ****     
 517:main.c        ****     sprintf(TransmitBuffer, "Lo=%d\r\n", loFrequency[loAmp]);
 1050              		.loc 1 517 0
 1051 0256 07F57B53 		add	r3, r7, #16064
 1052 025a 03F11E03 		add	r3, r3, #30
 1053 025e 1A88     		ldrh	r2, [r3]
 1054 0260 07F13003 		add	r3, r7, #48
 1055 0264 203B     		subs	r3, r3, #32
ARM GAS  C:\Users\herreral\AppData\Local\Temp\cc258W7h.s 			page 29


 1056 0266 53F82230 		ldr	r3, [r3, r2, lsl #2]
 1057 026a 1A46     		mov	r2, r3
 1058 026c 1449     		ldr	r1, .L44+20
 1059 026e 1548     		ldr	r0, .L44+24
 1060 0270 FFF7FEFF 		bl	sprintf
 518:main.c        ****     UART_1_PutString(TransmitBuffer);
 1061              		.loc 1 518 0
 1062 0274 1348     		ldr	r0, .L44+24
 1063 0276 FFF7FEFF 		bl	UART_1_PutString
 519:main.c        ****     sprintf(TransmitBuffer, "Hi=%d\r\n", hiFrecuency[hiAmp]);
 1064              		.loc 1 519 0
 1065 027a 07F57B53 		add	r3, r7, #16064
 1066 027e 03F11C03 		add	r3, r3, #28
 1067 0282 1A88     		ldrh	r2, [r3]
 1068 0284 07F13003 		add	r3, r7, #48
 1069 0288 2C3B     		subs	r3, r3, #44
 1070 028a 53F82230 		ldr	r3, [r3, r2, lsl #2]
 1071 028e 1A46     		mov	r2, r3
 1072 0290 0D49     		ldr	r1, .L44+28
 1073 0292 0C48     		ldr	r0, .L44+24
 1074 0294 FFF7FEFF 		bl	sprintf
 520:main.c        ****     UART_1_PutString(TransmitBuffer);
 1075              		.loc 1 520 0
 1076 0298 0A48     		ldr	r0, .L44+24
 1077 029a FFF7FEFF 		bl	UART_1_PutString
 521:main.c        **** }
 1078              		.loc 1 521 0
 1079 029e 00BF     		nop
 1080 02a0 07F57B57 		add	r7, r7, #16064
 1081 02a4 3437     		adds	r7, r7, #52
 1082              		.cfi_def_cfa_offset 12
 1083 02a6 BD46     		mov	sp, r7
 1084              		.cfi_def_cfa_register 13
 1085              		@ sp needed
 1086 02a8 90BD     		pop	{r4, r7, pc}
 1087              	.L45:
 1088 02aa 00BF     		.align	2
 1089              	.L44:
 1090 02ac 00000000 		.word	array
 1091 02b0 0000E03F 		.word	1071644672
 1092 02b4 00006040 		.word	1080033280
 1093 02b8 64000000 		.word	.LC0
 1094 02bc 74000000 		.word	.LC1
 1095 02c0 54000000 		.word	.LC17
 1096 02c4 00000000 		.word	TransmitBuffer
 1097 02c8 5C000000 		.word	.LC18
 1098              		.cfi_endproc
 1099              	.LFE68:
 1100              		.size	DTMF, .-DTMF
 1101              		.global	__aeabi_dadd
 1102              		.global	__aeabi_d2iz
 1103              		.global	__aeabi_dsub
 1104              		.section	.text.Goertzel,"ax",%progbits
 1105              		.align	2
 1106              		.global	Goertzel
 1107              		.thumb
 1108              		.thumb_func
ARM GAS  C:\Users\herreral\AppData\Local\Temp\cc258W7h.s 			page 30


 1109              		.type	Goertzel, %function
 1110              	Goertzel:
 1111              	.LFB69:
 522:main.c        **** 
 523:main.c        **** double Goertzel(int numSamples, int tFrequency,int tSamplingRate, double data[])
 524:main.c        **** {
 1112              		.loc 1 524 0
 1113              		.cfi_startproc
 1114              		@ args = 0, pretend = 0, frame = 136
 1115              		@ frame_needed = 1, uses_anonymous_args = 0
 1116 0000 B0B5     		push	{r4, r5, r7, lr}
 1117              		.cfi_def_cfa_offset 16
 1118              		.cfi_offset 4, -16
 1119              		.cfi_offset 5, -12
 1120              		.cfi_offset 7, -8
 1121              		.cfi_offset 14, -4
 1122 0002 A2B0     		sub	sp, sp, #136
 1123              		.cfi_def_cfa_offset 152
 1124 0004 00AF     		add	r7, sp, #0
 1125              		.cfi_def_cfa_register 7
 1126 0006 F860     		str	r0, [r7, #12]
 1127 0008 B960     		str	r1, [r7, #8]
 1128 000a 7A60     		str	r2, [r7, #4]
 1129 000c 3B60     		str	r3, [r7]
 525:main.c        ****     int k;
 526:main.c        ****     int i;
 527:main.c        ****     double floatnumSamples;
 528:main.c        ****     double omega;
 529:main.c        ****     double sine;
 530:main.c        ****     double cosine;
 531:main.c        ****     double coeff;
 532:main.c        ****     double q0;
 533:main.c        ****     double q1;
 534:main.c        ****     double q2;
 535:main.c        ****     double magnitude;
 536:main.c        ****     double real;
 537:main.c        ****     double imag;
 538:main.c        ****     
 539:main.c        ****     double scalingFactor = numSamples / 2.0;
 1130              		.loc 1 539 0
 1131 000e F868     		ldr	r0, [r7, #12]
 1132 0010 FFF7FEFF 		bl	__aeabi_i2d
 1133 0014 4FF00002 		mov	r2, #0
 1134 0018 4FF08043 		mov	r3, #1073741824
 1135 001c FFF7FEFF 		bl	__aeabi_ddiv
 1136 0020 0346     		mov	r3, r0
 1137 0022 0C46     		mov	r4, r1
 1138 0024 C7E91A34 		strd	r3, [r7, #104]
 540:main.c        **** 
 541:main.c        ****     floatnumSamples = numSamples;
 1139              		.loc 1 541 0
 1140 0028 F868     		ldr	r0, [r7, #12]
 1141 002a FFF7FEFF 		bl	__aeabi_i2d
 1142 002e 0346     		mov	r3, r0
 1143 0030 0C46     		mov	r4, r1
 1144 0032 C7E91834 		strd	r3, [r7, #96]
 542:main.c        ****     k = (0.5 + ((floatnumSamples * tFrequency) / tSamplingRate));
ARM GAS  C:\Users\herreral\AppData\Local\Temp\cc258W7h.s 			page 31


 1145              		.loc 1 542 0
 1146 0036 B868     		ldr	r0, [r7, #8]
 1147 0038 FFF7FEFF 		bl	__aeabi_i2d
 1148 003c D7E91823 		ldrd	r2, [r7, #96]
 1149 0040 FFF7FEFF 		bl	__aeabi_dmul
 1150 0044 0346     		mov	r3, r0
 1151 0046 0C46     		mov	r4, r1
 1152 0048 2546     		mov	r5, r4
 1153 004a 1C46     		mov	r4, r3
 1154 004c 7868     		ldr	r0, [r7, #4]
 1155 004e FFF7FEFF 		bl	__aeabi_i2d
 1156 0052 0246     		mov	r2, r0
 1157 0054 0B46     		mov	r3, r1
 1158 0056 2046     		mov	r0, r4
 1159 0058 2946     		mov	r1, r5
 1160 005a FFF7FEFF 		bl	__aeabi_ddiv
 1161 005e 0346     		mov	r3, r0
 1162 0060 0C46     		mov	r4, r1
 1163 0062 1846     		mov	r0, r3
 1164 0064 2146     		mov	r1, r4
 1165 0066 4FF00002 		mov	r2, #0
 1166 006a 6B4B     		ldr	r3, .L50+8
 1167 006c FFF7FEFF 		bl	__aeabi_dadd
 1168 0070 0346     		mov	r3, r0
 1169 0072 0C46     		mov	r4, r1
 1170 0074 1846     		mov	r0, r3
 1171 0076 2146     		mov	r1, r4
 1172 0078 FFF7FEFF 		bl	__aeabi_d2iz
 1173 007c 0346     		mov	r3, r0
 1174 007e FB65     		str	r3, [r7, #92]
 543:main.c        ****     omega = (2.0 * M_PI * k) / floatnumSamples;
 1175              		.loc 1 543 0
 1176 0080 F86D     		ldr	r0, [r7, #92]
 1177 0082 FFF7FEFF 		bl	__aeabi_i2d
 1178 0086 62A3     		adr	r3, .L50
 1179 0088 D3E90023 		ldrd	r2, [r3]
 1180 008c FFF7FEFF 		bl	__aeabi_dmul
 1181 0090 0346     		mov	r3, r0
 1182 0092 0C46     		mov	r4, r1
 1183 0094 1846     		mov	r0, r3
 1184 0096 2146     		mov	r1, r4
 1185 0098 D7E91823 		ldrd	r2, [r7, #96]
 1186 009c FFF7FEFF 		bl	__aeabi_ddiv
 1187 00a0 0346     		mov	r3, r0
 1188 00a2 0C46     		mov	r4, r1
 1189 00a4 C7E91434 		strd	r3, [r7, #80]
 544:main.c        ****     sine = sin(omega);
 1190              		.loc 1 544 0
 1191 00a8 D7E91401 		ldrd	r0, [r7, #80]
 1192 00ac FFF7FEFF 		bl	sin
 1193 00b0 C7E91201 		strd	r0, [r7, #72]
 545:main.c        ****     cosine = cos(omega);
 1194              		.loc 1 545 0
 1195 00b4 D7E91401 		ldrd	r0, [r7, #80]
 1196 00b8 FFF7FEFF 		bl	cos
 1197 00bc C7E91001 		strd	r0, [r7, #64]
 546:main.c        ****     coeff = 2.0 * cosine;
ARM GAS  C:\Users\herreral\AppData\Local\Temp\cc258W7h.s 			page 32


 1198              		.loc 1 546 0
 1199 00c0 D7E91001 		ldrd	r0, [r7, #64]
 1200 00c4 0246     		mov	r2, r0
 1201 00c6 0B46     		mov	r3, r1
 1202 00c8 FFF7FEFF 		bl	__aeabi_dadd
 1203 00cc 0346     		mov	r3, r0
 1204 00ce 0C46     		mov	r4, r1
 1205 00d0 C7E90E34 		strd	r3, [r7, #56]
 547:main.c        ****     q0=0;
 1206              		.loc 1 547 0
 1207 00d4 4FF00003 		mov	r3, #0
 1208 00d8 4FF00004 		mov	r4, #0
 1209 00dc C7E90C34 		strd	r3, [r7, #48]
 548:main.c        ****     q1=0;
 1210              		.loc 1 548 0
 1211 00e0 4FF00003 		mov	r3, #0
 1212 00e4 4FF00004 		mov	r4, #0
 1213 00e8 C7E92034 		strd	r3, [r7, #128]
 549:main.c        ****     q2=0;
 1214              		.loc 1 549 0
 1215 00ec 4FF00003 		mov	r3, #0
 1216 00f0 4FF00004 		mov	r4, #0
 1217 00f4 C7E91E34 		strd	r3, [r7, #120]
 1218              	.LBB7:
 550:main.c        ****     
 551:main.c        ****     for(uint16 i = 0; i < numSamples; i++)
 1219              		.loc 1 551 0
 1220 00f8 0023     		movs	r3, #0
 1221 00fa A7F87630 		strh	r3, [r7, #118]	@ movhi
 1222 00fe 2EE0     		b	.L47
 1223              	.L48:
 1224              	.LBB8:
 552:main.c        ****     {
 553:main.c        ****         double mdata =  data[i];
 1225              		.loc 1 553 0 discriminator 3
 1226 0100 B7F87630 		ldrh	r3, [r7, #118]
 1227 0104 DB00     		lsls	r3, r3, #3
 1228 0106 3A68     		ldr	r2, [r7]
 1229 0108 1344     		add	r3, r3, r2
 1230 010a 18CB     		ldmia	r3, {r3-r4}
 1231 010c C7E90A34 		strd	r3, [r7, #40]
 554:main.c        ****         
 555:main.c        ****         q0 = coeff * q1 - q2 + mdata;
 1232              		.loc 1 555 0 discriminator 3
 1233 0110 D7E92023 		ldrd	r2, [r7, #128]
 1234 0114 D7E90E01 		ldrd	r0, [r7, #56]
 1235 0118 FFF7FEFF 		bl	__aeabi_dmul
 1236 011c 0346     		mov	r3, r0
 1237 011e 0C46     		mov	r4, r1
 1238 0120 1846     		mov	r0, r3
 1239 0122 2146     		mov	r1, r4
 1240 0124 D7E91E23 		ldrd	r2, [r7, #120]
 1241 0128 FFF7FEFF 		bl	__aeabi_dsub
 1242 012c 0346     		mov	r3, r0
 1243 012e 0C46     		mov	r4, r1
 1244 0130 1846     		mov	r0, r3
 1245 0132 2146     		mov	r1, r4
ARM GAS  C:\Users\herreral\AppData\Local\Temp\cc258W7h.s 			page 33


 1246 0134 D7E90A23 		ldrd	r2, [r7, #40]
 1247 0138 FFF7FEFF 		bl	__aeabi_dadd
 1248 013c 0346     		mov	r3, r0
 1249 013e 0C46     		mov	r4, r1
 1250 0140 C7E90C34 		strd	r3, [r7, #48]
 556:main.c        ****         q2 = q1;
 1251              		.loc 1 556 0 discriminator 3
 1252 0144 D7E92034 		ldrd	r3, [r7, #128]
 1253 0148 C7E91E34 		strd	r3, [r7, #120]
 557:main.c        ****         q1 = q0;
 1254              		.loc 1 557 0 discriminator 3
 1255 014c D7E90C34 		ldrd	r3, [r7, #48]
 1256 0150 C7E92034 		strd	r3, [r7, #128]
 1257              	.LBE8:
 551:main.c        ****     {
 1258              		.loc 1 551 0 discriminator 3
 1259 0154 B7F87630 		ldrh	r3, [r7, #118]
 1260 0158 0133     		adds	r3, r3, #1
 1261 015a A7F87630 		strh	r3, [r7, #118]	@ movhi
 1262              	.L47:
 551:main.c        ****     {
 1263              		.loc 1 551 0 is_stmt 0 discriminator 1
 1264 015e B7F87620 		ldrh	r2, [r7, #118]
 1265 0162 FB68     		ldr	r3, [r7, #12]
 1266 0164 9A42     		cmp	r2, r3
 1267 0166 CBDB     		blt	.L48
 1268              	.LBE7:
 558:main.c        ****     }
 559:main.c        **** 
 560:main.c        ****     // calculate the real and imaginary results
 561:main.c        ****     // scaling appropriately
 562:main.c        ****     real = (q1 - q2 * cosine) / scalingFactor;
 1269              		.loc 1 562 0 is_stmt 1
 1270 0168 D7E91023 		ldrd	r2, [r7, #64]
 1271 016c D7E91E01 		ldrd	r0, [r7, #120]
 1272 0170 FFF7FEFF 		bl	__aeabi_dmul
 1273 0174 0346     		mov	r3, r0
 1274 0176 0C46     		mov	r4, r1
 1275 0178 1A46     		mov	r2, r3
 1276 017a 2346     		mov	r3, r4
 1277 017c D7E92001 		ldrd	r0, [r7, #128]
 1278 0180 FFF7FEFF 		bl	__aeabi_dsub
 1279 0184 0346     		mov	r3, r0
 1280 0186 0C46     		mov	r4, r1
 1281 0188 1846     		mov	r0, r3
 1282 018a 2146     		mov	r1, r4
 1283 018c D7E91A23 		ldrd	r2, [r7, #104]
 1284 0190 FFF7FEFF 		bl	__aeabi_ddiv
 1285 0194 0346     		mov	r3, r0
 1286 0196 0C46     		mov	r4, r1
 1287 0198 C7E90834 		strd	r3, [r7, #32]
 563:main.c        ****     imag = (q2 * sine) / scalingFactor;
 1288              		.loc 1 563 0
 1289 019c D7E91223 		ldrd	r2, [r7, #72]
 1290 01a0 D7E91E01 		ldrd	r0, [r7, #120]
 1291 01a4 FFF7FEFF 		bl	__aeabi_dmul
 1292 01a8 0346     		mov	r3, r0
ARM GAS  C:\Users\herreral\AppData\Local\Temp\cc258W7h.s 			page 34


 1293 01aa 0C46     		mov	r4, r1
 1294 01ac 1846     		mov	r0, r3
 1295 01ae 2146     		mov	r1, r4
 1296 01b0 D7E91A23 		ldrd	r2, [r7, #104]
 1297 01b4 FFF7FEFF 		bl	__aeabi_ddiv
 1298 01b8 0346     		mov	r3, r0
 1299 01ba 0C46     		mov	r4, r1
 1300 01bc C7E90634 		strd	r3, [r7, #24]
 564:main.c        **** 
 565:main.c        ****     magnitude = sqrt(real*real + imag*imag);
 1301              		.loc 1 565 0
 1302 01c0 D7E90823 		ldrd	r2, [r7, #32]
 1303 01c4 D7E90801 		ldrd	r0, [r7, #32]
 1304 01c8 FFF7FEFF 		bl	__aeabi_dmul
 1305 01cc 0346     		mov	r3, r0
 1306 01ce 0C46     		mov	r4, r1
 1307 01d0 2546     		mov	r5, r4
 1308 01d2 1C46     		mov	r4, r3
 1309 01d4 D7E90623 		ldrd	r2, [r7, #24]
 1310 01d8 D7E90601 		ldrd	r0, [r7, #24]
 1311 01dc FFF7FEFF 		bl	__aeabi_dmul
 1312 01e0 0246     		mov	r2, r0
 1313 01e2 0B46     		mov	r3, r1
 1314 01e4 2046     		mov	r0, r4
 1315 01e6 2946     		mov	r1, r5
 1316 01e8 FFF7FEFF 		bl	__aeabi_dadd
 1317 01ec 0346     		mov	r3, r0
 1318 01ee 0C46     		mov	r4, r1
 1319 01f0 1846     		mov	r0, r3
 1320 01f2 2146     		mov	r1, r4
 1321 01f4 FFF7FEFF 		bl	sqrt
 1322 01f8 C7E90401 		strd	r0, [r7, #16]
 566:main.c        ****     return magnitude;
 1323              		.loc 1 566 0
 1324 01fc D7E90434 		ldrd	r3, [r7, #16]
 567:main.c        **** }
 1325              		.loc 1 567 0
 1326 0200 1846     		mov	r0, r3
 1327 0202 2146     		mov	r1, r4
 1328 0204 8837     		adds	r7, r7, #136
 1329              		.cfi_def_cfa_offset 16
 1330 0206 BD46     		mov	sp, r7
 1331              		.cfi_def_cfa_register 13
 1332              		@ sp needed
 1333 0208 B0BD     		pop	{r4, r5, r7, pc}
 1334              	.L51:
 1335 020a 00BFAFF3 		.align	3
 1335      0080
 1336              	.L50:
 1337 0210 182D4454 		.word	1413754136
 1338 0214 FB211940 		.word	1075388923
 1339 0218 0000E03F 		.word	1071644672
 1340              		.cfi_endproc
 1341              	.LFE69:
 1342              		.size	Goertzel, .-Goertzel
 1343              		.global	__aeabi_dcmpgt
 1344              		.section	.text.getMaxValue,"ax",%progbits
ARM GAS  C:\Users\herreral\AppData\Local\Temp\cc258W7h.s 			page 35


 1345              		.align	2
 1346              		.global	getMaxValue
 1347              		.thumb
 1348              		.thumb_func
 1349              		.type	getMaxValue, %function
 1350              	getMaxValue:
 1351              	.LFB70:
 568:main.c        **** 
 569:main.c        **** uint16 getMaxValue(double *arrayData,uint8 size)
 570:main.c        **** {
 1352              		.loc 1 570 0
 1353              		.cfi_startproc
 1354              		@ args = 0, pretend = 0, frame = 24
 1355              		@ frame_needed = 1, uses_anonymous_args = 0
 1356 0000 90B5     		push	{r4, r7, lr}
 1357              		.cfi_def_cfa_offset 12
 1358              		.cfi_offset 4, -12
 1359              		.cfi_offset 7, -8
 1360              		.cfi_offset 14, -4
 1361 0002 87B0     		sub	sp, sp, #28
 1362              		.cfi_def_cfa_offset 40
 1363 0004 00AF     		add	r7, sp, #0
 1364              		.cfi_def_cfa_register 7
 1365 0006 7860     		str	r0, [r7, #4]
 1366 0008 0B46     		mov	r3, r1
 1367 000a FB70     		strb	r3, [r7, #3]
 571:main.c        ****     double maxValue = arrayData[0];
 1368              		.loc 1 571 0
 1369 000c 7B68     		ldr	r3, [r7, #4]
 1370 000e 18CB     		ldmia	r3, {r3-r4}
 1371 0010 C7E90434 		strd	r3, [r7, #16]
 572:main.c        ****     uint16 index = 0;
 1372              		.loc 1 572 0
 1373 0014 0023     		movs	r3, #0
 1374 0016 FB81     		strh	r3, [r7, #14]	@ movhi
 1375              	.LBB9:
 573:main.c        ****     for (uint16 i = 1; i < size; ++i) 
 1376              		.loc 1 573 0
 1377 0018 0123     		movs	r3, #1
 1378 001a BB81     		strh	r3, [r7, #12]	@ movhi
 1379 001c 18E0     		b	.L53
 1380              	.L56:
 574:main.c        ****     {
 575:main.c        ****         if ( arrayData[i] > maxValue ) 
 1381              		.loc 1 575 0
 1382 001e BB89     		ldrh	r3, [r7, #12]
 1383 0020 DB00     		lsls	r3, r3, #3
 1384 0022 7A68     		ldr	r2, [r7, #4]
 1385 0024 1344     		add	r3, r3, r2
 1386 0026 D3E90001 		ldrd	r0, [r3]
 1387 002a D7E90423 		ldrd	r2, [r7, #16]
 1388 002e FFF7FEFF 		bl	__aeabi_dcmpgt
 1389 0032 0346     		mov	r3, r0
 1390 0034 002B     		cmp	r3, #0
 1391 0036 08D0     		beq	.L54
 576:main.c        ****         {
 577:main.c        ****             maxValue = arrayData[i];
ARM GAS  C:\Users\herreral\AppData\Local\Temp\cc258W7h.s 			page 36


 1392              		.loc 1 577 0
 1393 0038 BB89     		ldrh	r3, [r7, #12]
 1394 003a DB00     		lsls	r3, r3, #3
 1395 003c 7A68     		ldr	r2, [r7, #4]
 1396 003e 1344     		add	r3, r3, r2
 1397 0040 18CB     		ldmia	r3, {r3-r4}
 1398 0042 C7E90434 		strd	r3, [r7, #16]
 578:main.c        ****             index = i;
 1399              		.loc 1 578 0
 1400 0046 BB89     		ldrh	r3, [r7, #12]	@ movhi
 1401 0048 FB81     		strh	r3, [r7, #14]	@ movhi
 1402              	.L54:
 573:main.c        ****     {
 1403              		.loc 1 573 0 discriminator 2
 1404 004a BB89     		ldrh	r3, [r7, #12]	@ movhi
 1405 004c 0133     		adds	r3, r3, #1
 1406 004e BB81     		strh	r3, [r7, #12]	@ movhi
 1407              	.L53:
 573:main.c        ****     {
 1408              		.loc 1 573 0 is_stmt 0 discriminator 1
 1409 0050 FB78     		ldrb	r3, [r7, #3]	@ zero_extendqisi2
 1410 0052 9BB2     		uxth	r3, r3
 1411 0054 BA89     		ldrh	r2, [r7, #12]
 1412 0056 9A42     		cmp	r2, r3
 1413 0058 E1D3     		bcc	.L56
 1414              	.LBE9:
 579:main.c        ****         }
 580:main.c        ****     }
 581:main.c        ****     
 582:main.c        ****     return index;
 1415              		.loc 1 582 0 is_stmt 1
 1416 005a FB89     		ldrh	r3, [r7, #14]
 583:main.c        **** }
 1417              		.loc 1 583 0
 1418 005c 1846     		mov	r0, r3
 1419 005e 1C37     		adds	r7, r7, #28
 1420              		.cfi_def_cfa_offset 12
 1421 0060 BD46     		mov	sp, r7
 1422              		.cfi_def_cfa_register 13
 1423              		@ sp needed
 1424 0062 90BD     		pop	{r4, r7, pc}
 1425              		.cfi_endproc
 1426              	.LFE70:
 1427              		.size	getMaxValue, .-getMaxValue
 1428              		.section	.rodata
 1429              		.align	2
 1430              	.LC19:
 1431 0080 310A0D00 		.ascii	"1\012\015\000"
 1432              		.align	2
 1433              	.LC20:
 1434 0084 320A0D00 		.ascii	"2\012\015\000"
 1435              		.align	2
 1436              	.LC21:
 1437 0088 330A0D00 		.ascii	"3\012\015\000"
 1438              		.align	2
 1439              	.LC22:
 1440 008c 340A0D00 		.ascii	"4\012\015\000"
ARM GAS  C:\Users\herreral\AppData\Local\Temp\cc258W7h.s 			page 37


 1441              		.align	2
 1442              	.LC23:
 1443 0090 350A0D00 		.ascii	"5\012\015\000"
 1444              		.align	2
 1445              	.LC24:
 1446 0094 360A0D00 		.ascii	"6\012\015\000"
 1447              		.align	2
 1448              	.LC25:
 1449 0098 370A0D00 		.ascii	"7\012\015\000"
 1450              		.align	2
 1451              	.LC26:
 1452 009c 380A0D00 		.ascii	"8\012\015\000"
 1453              		.align	2
 1454              	.LC27:
 1455 00a0 390A0D00 		.ascii	"9\012\015\000"
 1456              		.align	2
 1457              	.LC28:
 1458 00a4 2A0A0D00 		.ascii	"*\012\015\000"
 1459              		.align	2
 1460              	.LC29:
 1461 00a8 300A0D00 		.ascii	"0\012\015\000"
 1462              		.align	2
 1463              	.LC30:
 1464 00ac 230A0D00 		.ascii	"#\012\015\000"
 1465              		.section	.text.Decoder,"ax",%progbits
 1466              		.align	2
 1467              		.global	Decoder
 1468              		.thumb
 1469              		.thumb_func
 1470              		.type	Decoder, %function
 1471              	Decoder:
 1472              	.LFB71:
 584:main.c        **** 
 585:main.c        **** void Decoder(uint16 loFrec, uint16 hiFrec)
 586:main.c        **** {
 1473              		.loc 1 586 0
 1474              		.cfi_startproc
 1475              		@ args = 0, pretend = 0, frame = 16
 1476              		@ frame_needed = 1, uses_anonymous_args = 0
 1477 0000 80B5     		push	{r7, lr}
 1478              		.cfi_def_cfa_offset 8
 1479              		.cfi_offset 7, -8
 1480              		.cfi_offset 14, -4
 1481 0002 84B0     		sub	sp, sp, #16
 1482              		.cfi_def_cfa_offset 24
 1483 0004 00AF     		add	r7, sp, #0
 1484              		.cfi_def_cfa_register 7
 1485 0006 0346     		mov	r3, r0
 1486 0008 0A46     		mov	r2, r1
 1487 000a FB80     		strh	r3, [r7, #6]	@ movhi
 1488 000c 1346     		mov	r3, r2	@ movhi
 1489 000e BB80     		strh	r3, [r7, #4]	@ movhi
 587:main.c        ****     uint16 data = loFrec & hiFrec;
 1490              		.loc 1 587 0
 1491 0010 FA88     		ldrh	r2, [r7, #6]	@ movhi
 1492 0012 BB88     		ldrh	r3, [r7, #4]	@ movhi
 1493 0014 1340     		ands	r3, r3, r2
ARM GAS  C:\Users\herreral\AppData\Local\Temp\cc258W7h.s 			page 38


 1494 0016 FB81     		strh	r3, [r7, #14]	@ movhi
 588:main.c        ****     
 589:main.c        ****     switch(data)
 1495              		.loc 1 589 0
 1496 0018 FB89     		ldrh	r3, [r7, #14]
 1497 001a 40F66602 		movw	r2, #2150
 1498 001e 9342     		cmp	r3, r2
 1499 0020 5FD0     		beq	.L61
 1500 0022 40F66602 		movw	r2, #2150
 1501 0026 9342     		cmp	r3, r2
 1502 0028 19DC     		bgt	.L62
 1503 002a 40F2F172 		movw	r2, #2033
 1504 002e 9342     		cmp	r3, r2
 1505 0030 37D0     		beq	.L63
 1506 0032 40F2F172 		movw	r2, #2033
 1507 0036 9342     		cmp	r3, r2
 1508 0038 08DC     		bgt	.L64
 1509 003a 40F27272 		movw	r2, #1906
 1510 003e 9342     		cmp	r3, r2
 1511 0040 2BD0     		beq	.L65
 1512 0042 40F2BB72 		movw	r2, #1979
 1513 0046 9342     		cmp	r3, r2
 1514 0048 33D0     		beq	.L66
 590:main.c        ****     {
 591:main.c        ****         case 1906:
 592:main.c        ****             UART_1_PutString("1\n\r");
 593:main.c        ****             break;
 594:main.c        ****         case 2033:
 595:main.c        ****             UART_1_PutString("2\n\r");
 596:main.c        ****             break;
 597:main.c        ****         case 2174:
 598:main.c        ****             UART_1_PutString("3\n\r");
 599:main.c        ****             break;
 600:main.c        ****         case 1979:
 601:main.c        ****             UART_1_PutString("4\n\r");
 602:main.c        ****             break;
 603:main.c        ****         case 2106:
 604:main.c        ****             UART_1_PutString("5\n\r");
 605:main.c        ****             break;
 606:main.c        ****         case 2247:
 607:main.c        ****             UART_1_PutString("6\n\r");
 608:main.c        ****             break;
 609:main.c        ****         case 2061:
 610:main.c        ****             UART_1_PutString("7\n\r");
 611:main.c        ****             break;
 612:main.c        ****         case 2188:
 613:main.c        ****             UART_1_PutString("8\n\r");
 614:main.c        ****             break;
 615:main.c        ****         case 2329:
 616:main.c        ****             UART_1_PutString("9\n\r");
 617:main.c        ****             break;
 618:main.c        ****         case 2150:
 619:main.c        ****             UART_1_PutString("*\n\r");
 620:main.c        ****             break;
 621:main.c        ****         case 2277:
 622:main.c        ****             UART_1_PutString("0\n\r");
 623:main.c        ****             break;
ARM GAS  C:\Users\herreral\AppData\Local\Temp\cc258W7h.s 			page 39


 624:main.c        ****         case 2418:
 625:main.c        ****             UART_1_PutString("#\n\r");
 626:main.c        ****             break;
 627:main.c        ****          default:
 628:main.c        ****             break;
 1515              		.loc 1 628 0
 1516 004a 56E0     		b	.L76
 1517              	.L64:
 589:main.c        ****     {
 1518              		.loc 1 589 0
 1519 004c 40F60D02 		movw	r2, #2061
 1520 0050 9342     		cmp	r3, r2
 1521 0052 3AD0     		beq	.L67
 1522 0054 40F63A02 		movw	r2, #2106
 1523 0058 9342     		cmp	r3, r2
 1524 005a 2ED0     		beq	.L68
 1525              		.loc 1 628 0
 1526 005c 4DE0     		b	.L76
 1527              	.L62:
 589:main.c        ****     {
 1528              		.loc 1 589 0
 1529 005e 40F6C702 		movw	r2, #2247
 1530 0062 9342     		cmp	r3, r2
 1531 0064 2DD0     		beq	.L69
 1532 0066 40F6C702 		movw	r2, #2247
 1533 006a 9342     		cmp	r3, r2
 1534 006c 08DC     		bgt	.L70
 1535 006e 40F67E02 		movw	r2, #2174
 1536 0072 9342     		cmp	r3, r2
 1537 0074 19D0     		beq	.L71
 1538 0076 40F68C02 		movw	r2, #2188
 1539 007a 9342     		cmp	r3, r2
 1540 007c 29D0     		beq	.L72
 1541              		.loc 1 628 0
 1542 007e 3CE0     		b	.L76
 1543              	.L70:
 589:main.c        ****     {
 1544              		.loc 1 589 0
 1545 0080 40F61912 		movw	r2, #2329
 1546 0084 9342     		cmp	r3, r2
 1547 0086 28D0     		beq	.L73
 1548 0088 40F67212 		movw	r2, #2418
 1549 008c 9342     		cmp	r3, r2
 1550 008e 30D0     		beq	.L74
 1551 0090 40F6E502 		movw	r2, #2277
 1552 0094 9342     		cmp	r3, r2
 1553 0096 28D0     		beq	.L75
 1554              		.loc 1 628 0
 1555 0098 2FE0     		b	.L76
 1556              	.L65:
 592:main.c        ****             break;
 1557              		.loc 1 592 0
 1558 009a 1A48     		ldr	r0, .L77
 1559 009c FFF7FEFF 		bl	UART_1_PutString
 593:main.c        ****         case 2033:
 1560              		.loc 1 593 0
 1561 00a0 2BE0     		b	.L76
ARM GAS  C:\Users\herreral\AppData\Local\Temp\cc258W7h.s 			page 40


 1562              	.L63:
 595:main.c        ****             break;
 1563              		.loc 1 595 0
 1564 00a2 1948     		ldr	r0, .L77+4
 1565 00a4 FFF7FEFF 		bl	UART_1_PutString
 596:main.c        ****         case 2174:
 1566              		.loc 1 596 0
 1567 00a8 27E0     		b	.L76
 1568              	.L71:
 598:main.c        ****             break;
 1569              		.loc 1 598 0
 1570 00aa 1848     		ldr	r0, .L77+8
 1571 00ac FFF7FEFF 		bl	UART_1_PutString
 599:main.c        ****         case 1979:
 1572              		.loc 1 599 0
 1573 00b0 23E0     		b	.L76
 1574              	.L66:
 601:main.c        ****             break;
 1575              		.loc 1 601 0
 1576 00b2 1748     		ldr	r0, .L77+12
 1577 00b4 FFF7FEFF 		bl	UART_1_PutString
 602:main.c        ****         case 2106:
 1578              		.loc 1 602 0
 1579 00b8 1FE0     		b	.L76
 1580              	.L68:
 604:main.c        ****             break;
 1581              		.loc 1 604 0
 1582 00ba 1648     		ldr	r0, .L77+16
 1583 00bc FFF7FEFF 		bl	UART_1_PutString
 605:main.c        ****         case 2247:
 1584              		.loc 1 605 0
 1585 00c0 1BE0     		b	.L76
 1586              	.L69:
 607:main.c        ****             break;
 1587              		.loc 1 607 0
 1588 00c2 1548     		ldr	r0, .L77+20
 1589 00c4 FFF7FEFF 		bl	UART_1_PutString
 608:main.c        ****         case 2061:
 1590              		.loc 1 608 0
 1591 00c8 17E0     		b	.L76
 1592              	.L67:
 610:main.c        ****             break;
 1593              		.loc 1 610 0
 1594 00ca 1448     		ldr	r0, .L77+24
 1595 00cc FFF7FEFF 		bl	UART_1_PutString
 611:main.c        ****         case 2188:
 1596              		.loc 1 611 0
 1597 00d0 13E0     		b	.L76
 1598              	.L72:
 613:main.c        ****             break;
 1599              		.loc 1 613 0
 1600 00d2 1348     		ldr	r0, .L77+28
 1601 00d4 FFF7FEFF 		bl	UART_1_PutString
 614:main.c        ****         case 2329:
 1602              		.loc 1 614 0
 1603 00d8 0FE0     		b	.L76
 1604              	.L73:
ARM GAS  C:\Users\herreral\AppData\Local\Temp\cc258W7h.s 			page 41


 616:main.c        ****             break;
 1605              		.loc 1 616 0
 1606 00da 1248     		ldr	r0, .L77+32
 1607 00dc FFF7FEFF 		bl	UART_1_PutString
 617:main.c        ****         case 2150:
 1608              		.loc 1 617 0
 1609 00e0 0BE0     		b	.L76
 1610              	.L61:
 619:main.c        ****             break;
 1611              		.loc 1 619 0
 1612 00e2 1148     		ldr	r0, .L77+36
 1613 00e4 FFF7FEFF 		bl	UART_1_PutString
 620:main.c        ****         case 2277:
 1614              		.loc 1 620 0
 1615 00e8 07E0     		b	.L76
 1616              	.L75:
 622:main.c        ****             break;
 1617              		.loc 1 622 0
 1618 00ea 1048     		ldr	r0, .L77+40
 1619 00ec FFF7FEFF 		bl	UART_1_PutString
 623:main.c        ****         case 2418:
 1620              		.loc 1 623 0
 1621 00f0 03E0     		b	.L76
 1622              	.L74:
 625:main.c        ****             break;
 1623              		.loc 1 625 0
 1624 00f2 0F48     		ldr	r0, .L77+44
 1625 00f4 FFF7FEFF 		bl	UART_1_PutString
 626:main.c        ****          default:
 1626              		.loc 1 626 0
 1627 00f8 00BF     		nop
 1628              	.L76:
 629:main.c        ****     }
 630:main.c        **** }
 1629              		.loc 1 630 0
 1630 00fa 00BF     		nop
 1631 00fc 1037     		adds	r7, r7, #16
 1632              		.cfi_def_cfa_offset 8
 1633 00fe BD46     		mov	sp, r7
 1634              		.cfi_def_cfa_register 13
 1635              		@ sp needed
 1636 0100 80BD     		pop	{r7, pc}
 1637              	.L78:
 1638 0102 00BF     		.align	2
 1639              	.L77:
 1640 0104 80000000 		.word	.LC19
 1641 0108 84000000 		.word	.LC20
 1642 010c 88000000 		.word	.LC21
 1643 0110 8C000000 		.word	.LC22
 1644 0114 90000000 		.word	.LC23
 1645 0118 94000000 		.word	.LC24
 1646 011c 98000000 		.word	.LC25
 1647 0120 9C000000 		.word	.LC26
 1648 0124 A0000000 		.word	.LC27
 1649 0128 A4000000 		.word	.LC28
 1650 012c A8000000 		.word	.LC29
 1651 0130 AC000000 		.word	.LC30
ARM GAS  C:\Users\herreral\AppData\Local\Temp\cc258W7h.s 			page 42


 1652              		.cfi_endproc
 1653              	.LFE71:
 1654              		.size	Decoder, .-Decoder
 1655              		.text
 1656              	.Letext0:
 1657              		.file 2 "c:\\program files (x86)\\cypress\\psoc creator\\4.1\\psoc creator\\import\\gnu\\arm\\5.4.
 1658              		.file 3 "c:\\program files (x86)\\cypress\\psoc creator\\4.1\\psoc creator\\import\\gnu\\arm\\5.4.
 1659              		.file 4 "Generated_Source\\PSoC5/cytypes.h"
 1660              		.file 5 "Generated_Source\\PSoC5/core_cm3.h"