ARM GAS  C:\Users\riveraes\AppData\Local\Temp\cchOuINw.s 			page 1


   1              		.syntax unified
   2              		.cpu cortex-m3
   3              		.fpu softvfp
   4              		.eabi_attribute 20, 1
   5              		.eabi_attribute 21, 1
   6              		.eabi_attribute 23, 3
   7              		.eabi_attribute 24, 1
   8              		.eabi_attribute 25, 1
   9              		.eabi_attribute 26, 1
  10              		.eabi_attribute 30, 6
  11              		.eabi_attribute 34, 1
  12              		.eabi_attribute 18, 4
  13              		.thumb
  14              		.syntax unified
  15              		.file	"main.c"
  16              		.text
  17              	.Ltext0:
  18              		.cfi_sections	.debug_frame
  19              		.comm	TransmitBuffer,16,4
  20              		.comm	Output,2,2
  21              		.comm	array,1300,4
  22              		.global	loFrequency
  23              		.data
  24              		.align	2
  25              		.type	loFrequency, %object
  26              		.size	loFrequency, 20
  27              	loFrequency:
  28 0000 96000000 		.word	150
  29 0004 B9020000 		.word	697
  30 0008 02030000 		.word	770
  31 000c 54030000 		.word	852
  32 0010 AD030000 		.word	941
  33              		.global	hiFrequency
  34              		.align	2
  35              		.type	hiFrequency, %object
  36              		.size	hiFrequency, 16
  37              	hiFrequency:
  38 0014 96000000 		.word	150
  39 0018 B9040000 		.word	1209
  40 001c 38050000 		.word	1336
  41 0020 C5050000 		.word	1477
  42              		.section	.text.Transmit,"ax",%progbits
  43              		.align	2
  44              		.global	Transmit
  45              		.thumb
  46              		.thumb_func
  47              		.type	Transmit, %function
  48              	Transmit:
  49              	.LFB64:
  50              		.file 1 "main.c"
   1:main.c        **** /******************************************************************************
   2:main.c        **** * Project Name		: DualToneMultiFrequency TX
   3:main.c        **** * File Name			: main.c
   4:main.c        **** *
   5:main.c        **** *******************************************************************************/
   6:main.c        **** 
   7:main.c        **** #include <device.h>
ARM GAS  C:\Users\riveraes\AppData\Local\Temp\cchOuINw.s 			page 2


   8:main.c        **** #include "stdio.h"
   9:main.c        **** #include "math.h"
  10:main.c        **** 
  11:main.c        **** /* Project Defines */
  12:main.c        **** #define FALSE  0
  13:main.c        **** #define TRUE   1
  14:main.c        **** #define TRANSMIT_BUFFER_SIZE  16
  15:main.c        **** #define NUMBER_OF_SAMPLES 650
  16:main.c        **** #define SAMPLING_RATE 10000
  17:main.c        **** #define LOW_FREQ_DAC_NUMBER_OF_SAMPLES 200
  18:main.c        **** #define HIGH_FREQ_DAC_NUMBER_OF_SAMPLES 300
  19:main.c        **** #define MASTER_CLOCK_FREQUENCY 24000000
  20:main.c        **** #define LOW_FREQUENCIES_ANALIZED 5
  21:main.c        **** #define HIGH_FREQUENCIES_ANALIZED 4
  22:main.c        **** 
  23:main.c        **** /* Transmit Buffer */
  24:main.c        **** char TransmitBuffer[TRANSMIT_BUFFER_SIZE];
  25:main.c        **** // Variables to store ADC data
  26:main.c        **** uint16 Output;
  27:main.c        **** int16 array[NUMBER_OF_SAMPLES];
  28:main.c        **** // DualTone Frequencies
  29:main.c        **** int loFrequency[LOW_FREQUENCIES_ANALIZED] = {150, 697, 770, 852, 941};
  30:main.c        **** int hiFrequency[HIGH_FREQUENCIES_ANALIZED] = {150, 1209, 1336, 1477};
  31:main.c        **** 
  32:main.c        **** // Function prototypes
  33:main.c        **** void InitSettings(void);
  34:main.c        **** void SetHighFrequencyDacOutput(int OutputFrequency);
  35:main.c        **** void SetLowFrequencyDacOutput(int OutputFrequency);
  36:main.c        **** double Goertzel(int numSamples, int tFrequency, int tSamplingRate, double data[]);
  37:main.c        **** uint16 getMaxValue(double arrayData[], uint8 size);
  38:main.c        **** void DTMF(void);
  39:main.c        **** void DecodeInput(int loFrequency, int hiFrecuency);
  40:main.c        **** 
  41:main.c        **** 
  42:main.c        **** /*******************************************************************************
  43:main.c        **** * Interrupt routine
  44:main.c        **** *******************************************************************************/
  45:main.c        **** CY_ISR(Transmit)
  46:main.c        **** {
  51              		.loc 1 46 0
  52              		.cfi_startproc
  53              		@ args = 0, pretend = 0, frame = 0
  54              		@ frame_needed = 1, uses_anonymous_args = 0
  55              		@ link register save eliminated.
  56 0000 80B4     		push	{r7}
  57              		.cfi_def_cfa_offset 4
  58              		.cfi_offset 7, -4
  59 0002 00AF     		add	r7, sp, #0
  60              		.cfi_def_cfa_register 7
  47:main.c        ****     // Not used
  48:main.c        **** }
  61              		.loc 1 48 0
  62 0004 00BF     		nop
  63 0006 BD46     		mov	sp, r7
  64              		.cfi_def_cfa_register 13
  65              		@ sp needed
  66 0008 80BC     		pop	{r7}
ARM GAS  C:\Users\riveraes\AppData\Local\Temp\cchOuINw.s 			page 3


  67              		.cfi_restore 7
  68              		.cfi_def_cfa_offset 0
  69 000a 7047     		bx	lr
  70              		.cfi_endproc
  71              	.LFE64:
  72              		.size	Transmit, .-Transmit
  73              		.section	.text.UserInput,"ax",%progbits
  74              		.align	2
  75              		.global	UserInput
  76              		.thumb
  77              		.thumb_func
  78              		.type	UserInput, %function
  79              	UserInput:
  80              	.LFB65:
  49:main.c        **** 
  50:main.c        **** 
  51:main.c        **** /*******************************************************************************
  52:main.c        **** * Interrupt routine
  53:main.c        **** *******************************************************************************/
  54:main.c        **** CY_ISR(UserInput)
  55:main.c        **** {
  81              		.loc 1 55 0
  82              		.cfi_startproc
  83              		@ args = 0, pretend = 0, frame = 0
  84              		@ frame_needed = 1, uses_anonymous_args = 0
  85              		@ link register save eliminated.
  86 0000 80B4     		push	{r7}
  87              		.cfi_def_cfa_offset 4
  88              		.cfi_offset 7, -4
  89 0002 00AF     		add	r7, sp, #0
  90              		.cfi_def_cfa_register 7
  56:main.c        ****     //UART_1_PutString("Input Detected!\r\n");
  57:main.c        **** }
  91              		.loc 1 57 0
  92 0004 00BF     		nop
  93 0006 BD46     		mov	sp, r7
  94              		.cfi_def_cfa_register 13
  95              		@ sp needed
  96 0008 80BC     		pop	{r7}
  97              		.cfi_restore 7
  98              		.cfi_def_cfa_offset 0
  99 000a 7047     		bx	lr
 100              		.cfi_endproc
 101              	.LFE65:
 102              		.size	UserInput, .-UserInput
 103              		.section	.rodata
 104              		.align	2
 105              	.LC0:
 106 0000 5458202D 		.ascii	"TX - Ready\015\012\000"
 106      20526561 
 106      64790D0A 
 106      00
 107 000d 000000   		.align	2
 108              	.LC1:
 109 0010 300D0A00 		.ascii	"0\015\012\000"
 110              		.align	2
 111              	.LC2:
ARM GAS  C:\Users\riveraes\AppData\Local\Temp\cchOuINw.s 			page 4


 112 0014 310D0A00 		.ascii	"1\015\012\000"
 113              		.align	2
 114              	.LC3:
 115 0018 320D0A00 		.ascii	"2\015\012\000"
 116              		.align	2
 117              	.LC4:
 118 001c 330D0A00 		.ascii	"3\015\012\000"
 119              		.align	2
 120              	.LC5:
 121 0020 340D0A00 		.ascii	"4\015\012\000"
 122              		.align	2
 123              	.LC6:
 124 0024 350D0A00 		.ascii	"5\015\012\000"
 125              		.align	2
 126              	.LC7:
 127 0028 360D0A00 		.ascii	"6\015\012\000"
 128              		.align	2
 129              	.LC8:
 130 002c 370D0A00 		.ascii	"7\015\012\000"
 131              		.align	2
 132              	.LC9:
 133 0030 380D0A00 		.ascii	"8\015\012\000"
 134              		.align	2
 135              	.LC10:
 136 0034 390D0A00 		.ascii	"9\015\012\000"
 137              		.align	2
 138              	.LC11:
 139 0038 2A0D0A00 		.ascii	"*\015\012\000"
 140              		.align	2
 141              	.LC12:
 142 003c 230D0A00 		.ascii	"#\015\012\000"
 143              		.align	2
 144              	.LC13:
 145 0040 2D2D2D2D 		.ascii	"-----> Samples Init\015\012\000"
 145      2D3E2053 
 145      616D706C 
 145      65732049 
 145      6E69740D 
 146 0056 0000     		.align	2
 147              	.LC14:
 148 0058 25640D0A 		.ascii	"%d\015\012\000"
 148      00
 149 005d 000000   		.align	2
 150              	.LC15:
 151 0060 2D2D2D2D 		.ascii	"-----> Samples End\015\012\000"
 151      2D3E2053 
 151      616D706C 
 151      65732045 
 151      6E640D0A 
 152 0075 000000   		.align	2
 153              	.LC16:
 154 0078 44756D6D 		.ascii	"Dummy Frequency ...\015\012\000"
 154      79204672 
 154      65717565 
 154      6E637920 
 154      2E2E2E0D 
 155              		.section	.text.main,"ax",%progbits
ARM GAS  C:\Users\riveraes\AppData\Local\Temp\cchOuINw.s 			page 5


 156              		.align	2
 157              		.global	main
 158              		.thumb
 159              		.thumb_func
 160              		.type	main, %function
 161              	main:
 162              	.LFB66:
  58:main.c        **** 
  59:main.c        **** 
  60:main.c        **** /*******************************************************************************
  61:main.c        **** * Function Name: main
  62:main.c        **** *******************************************************************************/
  63:main.c        **** int main()
  64:main.c        **** {
 163              		.loc 1 64 0
 164              		.cfi_startproc
 165              		@ args = 0, pretend = 0, frame = 8
 166              		@ frame_needed = 1, uses_anonymous_args = 0
 167 0000 80B5     		push	{r7, lr}
 168              		.cfi_def_cfa_offset 8
 169              		.cfi_offset 7, -8
 170              		.cfi_offset 14, -4
 171 0002 82B0     		sub	sp, sp, #8
 172              		.cfi_def_cfa_offset 16
 173 0004 00AF     		add	r7, sp, #0
 174              		.cfi_def_cfa_register 7
  65:main.c        ****     /* Variable to store UART received character */
  66:main.c        ****     uint8 Ch;
  67:main.c        ****     
  68:main.c        ****     /* Start the components */
  69:main.c        ****     ADC_DelSig_1_Start();
 175              		.loc 1 69 0
 176 0006 FFF7FEFF 		bl	ADC_DelSig_1_Start
  70:main.c        ****     UART_1_Start();
 177              		.loc 1 70 0
 178 000a FFF7FEFF 		bl	UART_1_Start
  71:main.c        ****         
  72:main.c        ****     /* Start the ADC conversion */
  73:main.c        ****     ADC_DelSig_1_StartConvert();
 179              		.loc 1 73 0
 180 000e FFF7FEFF 		bl	ADC_DelSig_1_StartConvert
  74:main.c        ****     
  75:main.c        ****     /* Send message to verify COM port is connected properly */
  76:main.c        ****     UART_1_PutString("TX - Ready\r\n");
 181              		.loc 1 76 0
 182 0012 CD48     		ldr	r0, .L32
 183 0014 FFF7FEFF 		bl	UART_1_PutString
  77:main.c        ****     
  78:main.c        ****     // Enable Interrupts
  79:main.c        ****     CyGlobalIntEnable;
 184              		.loc 1 79 0
 185              		.syntax unified
 186              	@ 79 "main.c" 1
 187 0018 62B6     		CPSIE   i
 188              	@ 0 "" 2
  80:main.c        ****     
  81:main.c        ****     // Init Settings
ARM GAS  C:\Users\riveraes\AppData\Local\Temp\cchOuINw.s 			page 6


  82:main.c        ****     // - Output dummy 4KHz sine wave
  83:main.c        ****     // - Turn off blue LED
  84:main.c        ****     InitSettings();  
 189              		.loc 1 84 0
 190              		.thumb
 191              		.syntax unified
 192 001a FFF7FEFF 		bl	InitSettings
 193              	.L30:
  85:main.c        ****     
  86:main.c        ****     for(;;)
  87:main.c        ****     {        
  88:main.c        ****         /* Non-blocking call to get the latest data recieved  */
  89:main.c        ****         Ch = UART_1_GetChar();
 194              		.loc 1 89 0
 195 001e FFF7FEFF 		bl	UART_1_GetChar
 196 0022 0346     		mov	r3, r0
 197 0024 7B70     		strb	r3, [r7, #1]
  90:main.c        ****         
  91:main.c        ****         /* Set flags based on UART command */
  92:main.c        ****         switch(Ch)
 198              		.loc 1 92 0
 199 0026 7B78     		ldrb	r3, [r7, #1]	@ zero_extendqisi2
 200 0028 233B     		subs	r3, r3, #35
 201 002a 552B     		cmp	r3, #85
 202 002c 00F2DF81 		bhi	.L31
 203 0030 01A2     		adr	r2, .L6
 204 0032 52F823F0 		ldr	pc, [r2, r3, lsl #2]
 205 0036 00BF     		.p2align 2
 206              	.L6:
 207 0038 99020000 		.word	.L5+1
 208 003c EF030000 		.word	.L31+1
 209 0040 EF030000 		.word	.L31+1
 210 0044 EF030000 		.word	.L31+1
 211 0048 EF030000 		.word	.L31+1
 212 004c EF030000 		.word	.L31+1
 213 0050 EF030000 		.word	.L31+1
 214 0054 81020000 		.word	.L7+1
 215 0058 EF030000 		.word	.L31+1
 216 005c EF030000 		.word	.L31+1
 217 0060 EF030000 		.word	.L31+1
 218 0064 EF030000 		.word	.L31+1
 219 0068 EF030000 		.word	.L31+1
 220 006c 91010000 		.word	.L8+1
 221 0070 A9010000 		.word	.L9+1
 222 0074 C1010000 		.word	.L10+1
 223 0078 D9010000 		.word	.L11+1
 224 007c F1010000 		.word	.L12+1
 225 0080 09020000 		.word	.L13+1
 226 0084 21020000 		.word	.L14+1
 227 0088 39020000 		.word	.L15+1
 228 008c 51020000 		.word	.L16+1
 229 0090 69020000 		.word	.L17+1
 230 0094 EF030000 		.word	.L31+1
 231 0098 EF030000 		.word	.L31+1
 232 009c EF030000 		.word	.L31+1
 233 00a0 EF030000 		.word	.L31+1
 234 00a4 EF030000 		.word	.L31+1
ARM GAS  C:\Users\riveraes\AppData\Local\Temp\cchOuINw.s 			page 7


 235 00a8 EF030000 		.word	.L31+1
 236 00ac EF030000 		.word	.L31+1
 237 00b0 EF030000 		.word	.L31+1
 238 00b4 EF030000 		.word	.L31+1
 239 00b8 EF030000 		.word	.L31+1
 240 00bc B1020000 		.word	.L18+1
 241 00c0 EF030000 		.word	.L31+1
 242 00c4 EF030000 		.word	.L31+1
 243 00c8 EF030000 		.word	.L31+1
 244 00cc EF030000 		.word	.L31+1
 245 00d0 EF030000 		.word	.L31+1
 246 00d4 EF030000 		.word	.L31+1
 247 00d8 EF030000 		.word	.L31+1
 248 00dc EF030000 		.word	.L31+1
 249 00e0 EF030000 		.word	.L31+1
 250 00e4 EF030000 		.word	.L31+1
 251 00e8 EF030000 		.word	.L31+1
 252 00ec EF030000 		.word	.L31+1
 253 00f0 EF030000 		.word	.L31+1
 254 00f4 EF030000 		.word	.L31+1
 255 00f8 41030000 		.word	.L19+1
 256 00fc EF030000 		.word	.L31+1
 257 0100 EF030000 		.word	.L31+1
 258 0104 EF030000 		.word	.L31+1
 259 0108 EF030000 		.word	.L31+1
 260 010c DB030000 		.word	.L20+1
 261 0110 EF030000 		.word	.L31+1
 262 0114 EF030000 		.word	.L31+1
 263 0118 EF030000 		.word	.L31+1
 264 011c EF030000 		.word	.L31+1
 265 0120 EF030000 		.word	.L31+1
 266 0124 EF030000 		.word	.L31+1
 267 0128 EF030000 		.word	.L31+1
 268 012c EF030000 		.word	.L31+1
 269 0130 EF030000 		.word	.L31+1
 270 0134 EF030000 		.word	.L31+1
 271 0138 EF030000 		.word	.L31+1
 272 013c B1020000 		.word	.L18+1
 273 0140 EF030000 		.word	.L31+1
 274 0144 EF030000 		.word	.L31+1
 275 0148 EF030000 		.word	.L31+1
 276 014c EF030000 		.word	.L31+1
 277 0150 EF030000 		.word	.L31+1
 278 0154 EF030000 		.word	.L31+1
 279 0158 EF030000 		.word	.L31+1
 280 015c EF030000 		.word	.L31+1
 281 0160 EF030000 		.word	.L31+1
 282 0164 EF030000 		.word	.L31+1
 283 0168 EF030000 		.word	.L31+1
 284 016c EF030000 		.word	.L31+1
 285 0170 EF030000 		.word	.L31+1
 286 0174 EF030000 		.word	.L31+1
 287 0178 41030000 		.word	.L19+1
 288 017c EF030000 		.word	.L31+1
 289 0180 EF030000 		.word	.L31+1
 290 0184 EF030000 		.word	.L31+1
 291 0188 EF030000 		.word	.L31+1
ARM GAS  C:\Users\riveraes\AppData\Local\Temp\cchOuINw.s 			page 8


 292 018c DB030000 		.word	.L20+1
 293              		.p2align 1
 294              	.L8:
  93:main.c        ****         {
  94:main.c        ****             case '0':
  95:main.c        ****                 UART_1_PutString("0\r\n");
 295              		.loc 1 95 0
 296 0190 6E48     		ldr	r0, .L32+4
 297 0192 FFF7FEFF 		bl	UART_1_PutString
  96:main.c        ****                 SetLowFrequencyDacOutput(941);
 298              		.loc 1 96 0
 299 0196 40F2AD30 		movw	r0, #941
 300 019a FFF7FEFF 		bl	SetLowFrequencyDacOutput
  97:main.c        ****                 SetHighFrequencyDacOutput(1336);
 301              		.loc 1 97 0
 302 019e 4FF4A760 		mov	r0, #1336
 303 01a2 FFF7FEFF 		bl	SetHighFrequencyDacOutput
  98:main.c        ****                 
  99:main.c        ****                 break;
 304              		.loc 1 99 0
 305 01a6 23E1     		b	.L21
 306              	.L9:
 100:main.c        ****                 
 101:main.c        ****             case '1':
 102:main.c        ****                 UART_1_PutString("1\r\n");
 307              		.loc 1 102 0
 308 01a8 6948     		ldr	r0, .L32+8
 309 01aa FFF7FEFF 		bl	UART_1_PutString
 103:main.c        ****                 SetLowFrequencyDacOutput(697);
 310              		.loc 1 103 0
 311 01ae 40F2B920 		movw	r0, #697
 312 01b2 FFF7FEFF 		bl	SetLowFrequencyDacOutput
 104:main.c        ****                 SetHighFrequencyDacOutput(1209);
 313              		.loc 1 104 0
 314 01b6 40F2B940 		movw	r0, #1209
 315 01ba FFF7FEFF 		bl	SetHighFrequencyDacOutput
 105:main.c        ****                 
 106:main.c        ****                 break;
 316              		.loc 1 106 0
 317 01be 17E1     		b	.L21
 318              	.L10:
 107:main.c        ****                 
 108:main.c        ****             case '2':
 109:main.c        ****                 UART_1_PutString("2\r\n");
 319              		.loc 1 109 0
 320 01c0 6448     		ldr	r0, .L32+12
 321 01c2 FFF7FEFF 		bl	UART_1_PutString
 110:main.c        ****                 SetLowFrequencyDacOutput(697);
 322              		.loc 1 110 0
 323 01c6 40F2B920 		movw	r0, #697
 324 01ca FFF7FEFF 		bl	SetLowFrequencyDacOutput
 111:main.c        ****                 SetHighFrequencyDacOutput(1336);
 325              		.loc 1 111 0
 326 01ce 4FF4A760 		mov	r0, #1336
 327 01d2 FFF7FEFF 		bl	SetHighFrequencyDacOutput
 112:main.c        ****                 
 113:main.c        ****                 break;
ARM GAS  C:\Users\riveraes\AppData\Local\Temp\cchOuINw.s 			page 9


 328              		.loc 1 113 0
 329 01d6 0BE1     		b	.L21
 330              	.L11:
 114:main.c        ****                 
 115:main.c        ****             case '3':
 116:main.c        ****                 UART_1_PutString("3\r\n");
 331              		.loc 1 116 0
 332 01d8 5F48     		ldr	r0, .L32+16
 333 01da FFF7FEFF 		bl	UART_1_PutString
 117:main.c        ****                 SetLowFrequencyDacOutput(697);
 334              		.loc 1 117 0
 335 01de 40F2B920 		movw	r0, #697
 336 01e2 FFF7FEFF 		bl	SetLowFrequencyDacOutput
 118:main.c        ****                 SetHighFrequencyDacOutput(1477);
 337              		.loc 1 118 0
 338 01e6 40F2C550 		movw	r0, #1477
 339 01ea FFF7FEFF 		bl	SetHighFrequencyDacOutput
 119:main.c        ****                 
 120:main.c        ****                 break;
 340              		.loc 1 120 0
 341 01ee FFE0     		b	.L21
 342              	.L12:
 121:main.c        ****                 
 122:main.c        ****             case '4':
 123:main.c        ****                 UART_1_PutString("4\r\n");
 343              		.loc 1 123 0
 344 01f0 5A48     		ldr	r0, .L32+20
 345 01f2 FFF7FEFF 		bl	UART_1_PutString
 124:main.c        ****                 SetLowFrequencyDacOutput(770);
 346              		.loc 1 124 0
 347 01f6 40F20230 		movw	r0, #770
 348 01fa FFF7FEFF 		bl	SetLowFrequencyDacOutput
 125:main.c        ****                 SetHighFrequencyDacOutput(1209);
 349              		.loc 1 125 0
 350 01fe 40F2B940 		movw	r0, #1209
 351 0202 FFF7FEFF 		bl	SetHighFrequencyDacOutput
 126:main.c        ****                 
 127:main.c        ****                 break;
 352              		.loc 1 127 0
 353 0206 F3E0     		b	.L21
 354              	.L13:
 128:main.c        ****                 
 129:main.c        ****             case '5':
 130:main.c        ****                 UART_1_PutString("5\r\n");
 355              		.loc 1 130 0
 356 0208 5548     		ldr	r0, .L32+24
 357 020a FFF7FEFF 		bl	UART_1_PutString
 131:main.c        ****                 SetLowFrequencyDacOutput(770);
 358              		.loc 1 131 0
 359 020e 40F20230 		movw	r0, #770
 360 0212 FFF7FEFF 		bl	SetLowFrequencyDacOutput
 132:main.c        ****                 SetHighFrequencyDacOutput(1336);
 361              		.loc 1 132 0
 362 0216 4FF4A760 		mov	r0, #1336
 363 021a FFF7FEFF 		bl	SetHighFrequencyDacOutput
 133:main.c        ****                 
 134:main.c        ****                 break;
ARM GAS  C:\Users\riveraes\AppData\Local\Temp\cchOuINw.s 			page 10


 364              		.loc 1 134 0
 365 021e E7E0     		b	.L21
 366              	.L14:
 135:main.c        ****                 
 136:main.c        ****             case '6':
 137:main.c        ****                 UART_1_PutString("6\r\n");
 367              		.loc 1 137 0
 368 0220 5048     		ldr	r0, .L32+28
 369 0222 FFF7FEFF 		bl	UART_1_PutString
 138:main.c        ****                 SetLowFrequencyDacOutput(770);
 370              		.loc 1 138 0
 371 0226 40F20230 		movw	r0, #770
 372 022a FFF7FEFF 		bl	SetLowFrequencyDacOutput
 139:main.c        ****                 SetHighFrequencyDacOutput(1477);
 373              		.loc 1 139 0
 374 022e 40F2C550 		movw	r0, #1477
 375 0232 FFF7FEFF 		bl	SetHighFrequencyDacOutput
 140:main.c        ****                 
 141:main.c        ****                 break;
 376              		.loc 1 141 0
 377 0236 DBE0     		b	.L21
 378              	.L15:
 142:main.c        ****                 
 143:main.c        ****             case '7':
 144:main.c        ****                 UART_1_PutString("7\r\n");
 379              		.loc 1 144 0
 380 0238 4B48     		ldr	r0, .L32+32
 381 023a FFF7FEFF 		bl	UART_1_PutString
 145:main.c        ****                 SetLowFrequencyDacOutput(852);
 382              		.loc 1 145 0
 383 023e 4FF45570 		mov	r0, #852
 384 0242 FFF7FEFF 		bl	SetLowFrequencyDacOutput
 146:main.c        ****                 SetHighFrequencyDacOutput(1209);
 385              		.loc 1 146 0
 386 0246 40F2B940 		movw	r0, #1209
 387 024a FFF7FEFF 		bl	SetHighFrequencyDacOutput
 147:main.c        ****                 
 148:main.c        ****                 break;
 388              		.loc 1 148 0
 389 024e CFE0     		b	.L21
 390              	.L16:
 149:main.c        ****                 
 150:main.c        ****             case '8':
 151:main.c        ****                 UART_1_PutString("8\r\n");
 391              		.loc 1 151 0
 392 0250 4648     		ldr	r0, .L32+36
 393 0252 FFF7FEFF 		bl	UART_1_PutString
 152:main.c        ****                 SetLowFrequencyDacOutput(852);
 394              		.loc 1 152 0
 395 0256 4FF45570 		mov	r0, #852
 396 025a FFF7FEFF 		bl	SetLowFrequencyDacOutput
 153:main.c        ****                 SetHighFrequencyDacOutput(1336);
 397              		.loc 1 153 0
 398 025e 4FF4A760 		mov	r0, #1336
 399 0262 FFF7FEFF 		bl	SetHighFrequencyDacOutput
 154:main.c        ****                 
 155:main.c        ****                 break;
ARM GAS  C:\Users\riveraes\AppData\Local\Temp\cchOuINw.s 			page 11


 400              		.loc 1 155 0
 401 0266 C3E0     		b	.L21
 402              	.L17:
 156:main.c        ****                 
 157:main.c        ****             case '9':
 158:main.c        ****                 UART_1_PutString("9\r\n");
 403              		.loc 1 158 0
 404 0268 4148     		ldr	r0, .L32+40
 405 026a FFF7FEFF 		bl	UART_1_PutString
 159:main.c        ****                 SetLowFrequencyDacOutput(852);
 406              		.loc 1 159 0
 407 026e 4FF45570 		mov	r0, #852
 408 0272 FFF7FEFF 		bl	SetLowFrequencyDacOutput
 160:main.c        ****                 SetHighFrequencyDacOutput(1477);
 409              		.loc 1 160 0
 410 0276 40F2C550 		movw	r0, #1477
 411 027a FFF7FEFF 		bl	SetHighFrequencyDacOutput
 161:main.c        ****                 
 162:main.c        ****                 break;
 412              		.loc 1 162 0
 413 027e B7E0     		b	.L21
 414              	.L7:
 163:main.c        ****                 
 164:main.c        ****             case '*':
 165:main.c        ****                 UART_1_PutString("*\r\n");
 415              		.loc 1 165 0
 416 0280 3C48     		ldr	r0, .L32+44
 417 0282 FFF7FEFF 		bl	UART_1_PutString
 166:main.c        ****                 SetLowFrequencyDacOutput(941);
 418              		.loc 1 166 0
 419 0286 40F2AD30 		movw	r0, #941
 420 028a FFF7FEFF 		bl	SetLowFrequencyDacOutput
 167:main.c        ****                 SetHighFrequencyDacOutput(1209);
 421              		.loc 1 167 0
 422 028e 40F2B940 		movw	r0, #1209
 423 0292 FFF7FEFF 		bl	SetHighFrequencyDacOutput
 168:main.c        ****                 
 169:main.c        ****                 break;
 424              		.loc 1 169 0
 425 0296 ABE0     		b	.L21
 426              	.L5:
 170:main.c        ****                 
 171:main.c        ****             case '#':
 172:main.c        ****                 UART_1_PutString("#\r\n");
 427              		.loc 1 172 0
 428 0298 3748     		ldr	r0, .L32+48
 429 029a FFF7FEFF 		bl	UART_1_PutString
 173:main.c        ****                 SetLowFrequencyDacOutput(941);
 430              		.loc 1 173 0
 431 029e 40F2AD30 		movw	r0, #941
 432 02a2 FFF7FEFF 		bl	SetLowFrequencyDacOutput
 174:main.c        ****                 SetHighFrequencyDacOutput(1477);
 433              		.loc 1 174 0
 434 02a6 40F2C550 		movw	r0, #1477
 435 02aa FFF7FEFF 		bl	SetHighFrequencyDacOutput
 175:main.c        ****                 
 176:main.c        ****                 break;
ARM GAS  C:\Users\riveraes\AppData\Local\Temp\cchOuINw.s 			page 12


 436              		.loc 1 176 0
 437 02ae 9FE0     		b	.L21
 438              	.L18:
 439              	.LBB2:
 177:main.c        ****             
 178:main.c        ****             case 'D':
 179:main.c        ****             case 'd':
 180:main.c        ****                 //Get Samples
 181:main.c        ****                 for (int16 sampleNumber = 0; sampleNumber < NUMBER_OF_SAMPLES; sampleNumber += 0)
 440              		.loc 1 181 0
 441 02b0 0023     		movs	r3, #0
 442 02b2 FB80     		strh	r3, [r7, #6]	@ movhi
 443 02b4 19E0     		b	.L22
 444              	.L24:
 182:main.c        ****                 {                 
 183:main.c        ****                     /* Check to see if an ADC conversion has completed */
 184:main.c        ****                     if(ADC_DelSig_1_IsEndConversion(ADC_DelSig_1_RETURN_STATUS))
 445              		.loc 1 184 0
 446 02b6 0120     		movs	r0, #1
 447 02b8 FFF7FEFF 		bl	ADC_DelSig_1_IsEndConversion
 448 02bc 0346     		mov	r3, r0
 449 02be 002B     		cmp	r3, #0
 450 02c0 13D0     		beq	.L22
 185:main.c        ****                     {
 186:main.c        ****                         Output = ADC_DelSig_1_GetResult16();
 451              		.loc 1 186 0
 452 02c2 FFF7FEFF 		bl	ADC_DelSig_1_GetResult16
 453 02c6 0346     		mov	r3, r0
 454 02c8 9AB2     		uxth	r2, r3
 455 02ca 2C4B     		ldr	r3, .L32+52
 456 02cc 1A80     		strh	r2, [r3]	@ movhi
 187:main.c        ****                         array[sampleNumber] = Output;                       
 457              		.loc 1 187 0
 458 02ce B7F90630 		ldrsh	r3, [r7, #6]
 459 02d2 2A4A     		ldr	r2, .L32+52
 460 02d4 1288     		ldrh	r2, [r2]
 461 02d6 11B2     		sxth	r1, r2
 462 02d8 294A     		ldr	r2, .L32+56
 463 02da 22F81310 		strh	r1, [r2, r3, lsl #1]	@ movhi
 188:main.c        ****                         sampleNumber ++;
 464              		.loc 1 188 0
 465 02de B7F90630 		ldrsh	r3, [r7, #6]
 466 02e2 9BB2     		uxth	r3, r3
 467 02e4 0133     		adds	r3, r3, #1
 468 02e6 9BB2     		uxth	r3, r3
 469 02e8 FB80     		strh	r3, [r7, #6]	@ movhi
 470              	.L22:
 181:main.c        ****                 {                 
 471              		.loc 1 181 0 discriminator 1
 472 02ea B7F90630 		ldrsh	r3, [r7, #6]
 473 02ee 40F28922 		movw	r2, #649
 474 02f2 9342     		cmp	r3, r2
 475 02f4 DFDD     		ble	.L24
 476              	.LBE2:
 189:main.c        ****                     }
 190:main.c        ****                 }
 191:main.c        ****                 
ARM GAS  C:\Users\riveraes\AppData\Local\Temp\cchOuINw.s 			page 13


 192:main.c        ****                 // Print samples
 193:main.c        ****                 UART_1_PutString("-----> Samples Init\r\n");
 477              		.loc 1 193 0
 478 02f6 2348     		ldr	r0, .L32+60
 479 02f8 FFF7FEFF 		bl	UART_1_PutString
 480              	.LBB3:
 194:main.c        ****                 for (int16 sampleNumber = 0; sampleNumber < NUMBER_OF_SAMPLES; sampleNumber ++)
 481              		.loc 1 194 0
 482 02fc 0023     		movs	r3, #0
 483 02fe BB80     		strh	r3, [r7, #4]	@ movhi
 484 0300 12E0     		b	.L25
 485              	.L26:
 195:main.c        ****                 {
 196:main.c        ****                     sprintf(TransmitBuffer, "%d\r\n", array[sampleNumber]);
 486              		.loc 1 196 0 discriminator 3
 487 0302 B7F90430 		ldrsh	r3, [r7, #4]
 488 0306 1E4A     		ldr	r2, .L32+56
 489 0308 32F91330 		ldrsh	r3, [r2, r3, lsl #1]
 490 030c 1A46     		mov	r2, r3
 491 030e 1E49     		ldr	r1, .L32+64
 492 0310 1E48     		ldr	r0, .L32+68
 493 0312 FFF7FEFF 		bl	sprintf
 197:main.c        ****                     UART_1_PutString(TransmitBuffer);
 494              		.loc 1 197 0 discriminator 3
 495 0316 1D48     		ldr	r0, .L32+68
 496 0318 FFF7FEFF 		bl	UART_1_PutString
 194:main.c        ****                 for (int16 sampleNumber = 0; sampleNumber < NUMBER_OF_SAMPLES; sampleNumber ++)
 497              		.loc 1 194 0 discriminator 3
 498 031c B7F90430 		ldrsh	r3, [r7, #4]
 499 0320 9BB2     		uxth	r3, r3
 500 0322 0133     		adds	r3, r3, #1
 501 0324 9BB2     		uxth	r3, r3
 502 0326 BB80     		strh	r3, [r7, #4]	@ movhi
 503              	.L25:
 194:main.c        ****                 for (int16 sampleNumber = 0; sampleNumber < NUMBER_OF_SAMPLES; sampleNumber ++)
 504              		.loc 1 194 0 is_stmt 0 discriminator 1
 505 0328 B7F90430 		ldrsh	r3, [r7, #4]
 506 032c 40F28922 		movw	r2, #649
 507 0330 9342     		cmp	r3, r2
 508 0332 E6DD     		ble	.L26
 509              	.LBE3:
 198:main.c        ****                 }
 199:main.c        ****                 UART_1_PutString("-----> Samples End\r\n");
 510              		.loc 1 199 0 is_stmt 1
 511 0334 1648     		ldr	r0, .L32+72
 512 0336 FFF7FEFF 		bl	UART_1_PutString
 200:main.c        ****                 
 201:main.c        ****                 // Decode data              
 202:main.c        ****                 DTMF();            
 513              		.loc 1 202 0
 514 033a FFF7FEFF 		bl	DTMF
 203:main.c        ****                 
 204:main.c        ****                 break;
 515              		.loc 1 204 0
 516 033e 57E0     		b	.L21
 517              	.L19:
 518              	.LBB4:
ARM GAS  C:\Users\riveraes\AppData\Local\Temp\cchOuINw.s 			page 14


 205:main.c        ****                 
 206:main.c        ****             case 'S':
 207:main.c        ****             case 's':
 208:main.c        ****                 //Get Samples
 209:main.c        ****                 for (int16 sampleNumber = 0; sampleNumber < NUMBER_OF_SAMPLES; sampleNumber += 0)
 519              		.loc 1 209 0
 520 0340 0023     		movs	r3, #0
 521 0342 7B80     		strh	r3, [r7, #2]	@ movhi
 522 0344 40E0     		b	.L27
 523              	.L33:
 524 0346 00BF     		.align	2
 525              	.L32:
 526 0348 00000000 		.word	.LC0
 527 034c 10000000 		.word	.LC1
 528 0350 14000000 		.word	.LC2
 529 0354 18000000 		.word	.LC3
 530 0358 1C000000 		.word	.LC4
 531 035c 20000000 		.word	.LC5
 532 0360 24000000 		.word	.LC6
 533 0364 28000000 		.word	.LC7
 534 0368 2C000000 		.word	.LC8
 535 036c 30000000 		.word	.LC9
 536 0370 34000000 		.word	.LC10
 537 0374 38000000 		.word	.LC11
 538 0378 3C000000 		.word	.LC12
 539 037c 00000000 		.word	Output
 540 0380 00000000 		.word	array
 541 0384 40000000 		.word	.LC13
 542 0388 58000000 		.word	.LC14
 543 038c 00000000 		.word	TransmitBuffer
 544 0390 60000000 		.word	.LC15
 545              	.L29:
 210:main.c        ****                 {                 
 211:main.c        ****                     /* Check to see if an ADC conversion has completed */
 212:main.c        ****                     if(ADC_DelSig_1_IsEndConversion(ADC_DelSig_1_RETURN_STATUS))
 546              		.loc 1 212 0
 547 0394 0120     		movs	r0, #1
 548 0396 FFF7FEFF 		bl	ADC_DelSig_1_IsEndConversion
 549 039a 0346     		mov	r3, r0
 550 039c 002B     		cmp	r3, #0
 551 039e 13D0     		beq	.L27
 213:main.c        ****                     {
 214:main.c        ****                         Output = ADC_DelSig_1_GetResult16();
 552              		.loc 1 214 0
 553 03a0 FFF7FEFF 		bl	ADC_DelSig_1_GetResult16
 554 03a4 0346     		mov	r3, r0
 555 03a6 9AB2     		uxth	r2, r3
 556 03a8 124B     		ldr	r3, .L34
 557 03aa 1A80     		strh	r2, [r3]	@ movhi
 215:main.c        ****                         array[sampleNumber] = Output;                       
 558              		.loc 1 215 0
 559 03ac B7F90230 		ldrsh	r3, [r7, #2]
 560 03b0 104A     		ldr	r2, .L34
 561 03b2 1288     		ldrh	r2, [r2]
 562 03b4 11B2     		sxth	r1, r2
 563 03b6 104A     		ldr	r2, .L34+4
 564 03b8 22F81310 		strh	r1, [r2, r3, lsl #1]	@ movhi
ARM GAS  C:\Users\riveraes\AppData\Local\Temp\cchOuINw.s 			page 15


 216:main.c        ****                         sampleNumber ++;
 565              		.loc 1 216 0
 566 03bc B7F90230 		ldrsh	r3, [r7, #2]
 567 03c0 9BB2     		uxth	r3, r3
 568 03c2 0133     		adds	r3, r3, #1
 569 03c4 9BB2     		uxth	r3, r3
 570 03c6 7B80     		strh	r3, [r7, #2]	@ movhi
 571              	.L27:
 209:main.c        ****                 {                 
 572              		.loc 1 209 0 discriminator 1
 573 03c8 B7F90230 		ldrsh	r3, [r7, #2]
 574 03cc 40F28922 		movw	r2, #649
 575 03d0 9342     		cmp	r3, r2
 576 03d2 DFDD     		ble	.L29
 577              	.LBE4:
 217:main.c        ****                     }
 218:main.c        ****                 }
 219:main.c        ****                 
 220:main.c        ****                 // Decode data              
 221:main.c        ****                 DTMF();              
 578              		.loc 1 221 0
 579 03d4 FFF7FEFF 		bl	DTMF
 222:main.c        ****                 
 223:main.c        ****                 break;
 580              		.loc 1 223 0
 581 03d8 0AE0     		b	.L21
 582              	.L20:
 224:main.c        ****             
 225:main.c        ****             case 'X':    
 226:main.c        ****             case 'x':
 227:main.c        ****                 UART_1_PutString("Dummy Frequency ...\r\n");                             
 583              		.loc 1 227 0
 584 03da 0848     		ldr	r0, .L34+8
 585 03dc FFF7FEFF 		bl	UART_1_PutString
 228:main.c        ****                 SetLowFrequencyDacOutput(150);
 586              		.loc 1 228 0
 587 03e0 9620     		movs	r0, #150
 588 03e2 FFF7FEFF 		bl	SetLowFrequencyDacOutput
 229:main.c        ****                 SetHighFrequencyDacOutput(150);
 589              		.loc 1 229 0
 590 03e6 9620     		movs	r0, #150
 591 03e8 FFF7FEFF 		bl	SetHighFrequencyDacOutput
 230:main.c        ****                 
 231:main.c        ****                 break;
 592              		.loc 1 231 0
 593 03ec 00E0     		b	.L21
 594              	.L31:
 232:main.c        ****                 
 233:main.c        ****             default:
 234:main.c        ****                 /* Place error handling code here */
 235:main.c        ****                 break;    
 595              		.loc 1 235 0
 596 03ee 00BF     		nop
 597              	.L21:
 236:main.c        ****         }
 237:main.c        ****         
 238:main.c        ****     }
ARM GAS  C:\Users\riveraes\AppData\Local\Temp\cchOuINw.s 			page 16


 598              		.loc 1 238 0 discriminator 1
 599 03f0 15E6     		b	.L30
 600              	.L35:
 601 03f2 00BF     		.align	2
 602              	.L34:
 603 03f4 00000000 		.word	Output
 604 03f8 00000000 		.word	array
 605 03fc 78000000 		.word	.LC16
 606              		.cfi_endproc
 607              	.LFE66:
 608              		.size	main, .-main
 609              		.global	__aeabi_i2d
 610              		.global	__aeabi_ddiv
 611              		.global	__aeabi_d2iz
 612              		.section	.text.SetHighFrequencyDacOutput,"ax",%progbits
 613              		.align	2
 614              		.global	SetHighFrequencyDacOutput
 615              		.thumb
 616              		.thumb_func
 617              		.type	SetHighFrequencyDacOutput, %function
 618              	SetHighFrequencyDacOutput:
 619              	.LFB67:
 239:main.c        **** }
 240:main.c        **** 
 241:main.c        **** /*******************************************************************************
 242:main.c        **** * Function - Init Settings
 243:main.c        **** *******************************************************************************/
 244:main.c        **** void SetHighFrequencyDacOutput(int OutputFrequency)
 245:main.c        **** {   
 620              		.loc 1 245 0
 621              		.cfi_startproc
 622              		@ args = 0, pretend = 0, frame = 24
 623              		@ frame_needed = 1, uses_anonymous_args = 0
 624 0000 90B5     		push	{r4, r7, lr}
 625              		.cfi_def_cfa_offset 12
 626              		.cfi_offset 4, -12
 627              		.cfi_offset 7, -8
 628              		.cfi_offset 14, -4
 629 0002 87B0     		sub	sp, sp, #28
 630              		.cfi_def_cfa_offset 40
 631 0004 00AF     		add	r7, sp, #0
 632              		.cfi_def_cfa_register 7
 633 0006 7860     		str	r0, [r7, #4]
 246:main.c        ****     double KSPS = HIGH_FREQ_DAC_NUMBER_OF_SAMPLES * OutputFrequency;
 634              		.loc 1 246 0
 635 0008 7B68     		ldr	r3, [r7, #4]
 636 000a 4FF49672 		mov	r2, #300
 637 000e 02FB03F3 		mul	r3, r2, r3
 638 0012 1846     		mov	r0, r3
 639 0014 FFF7FEFF 		bl	__aeabi_i2d
 640 0018 0346     		mov	r3, r0
 641 001a 0C46     		mov	r4, r1
 642 001c C7E90434 		strd	r3, [r7, #16]
 247:main.c        ****     double ClockDivider = MASTER_CLOCK_FREQUENCY / KSPS;
 643              		.loc 1 247 0
 644 0020 D7E90423 		ldrd	r2, [r7, #16]
 645 0024 0CA1     		adr	r1, .L37
ARM GAS  C:\Users\riveraes\AppData\Local\Temp\cchOuINw.s 			page 17


 646 0026 D1E90001 		ldrd	r0, [r1]
 647 002a FFF7FEFF 		bl	__aeabi_ddiv
 648 002e 0346     		mov	r3, r0
 649 0030 0C46     		mov	r4, r1
 650 0032 C7E90234 		strd	r3, [r7, #8]
 248:main.c        ****     HF_DAC_CLK_SetDividerValue((int)ClockDivider);
 651              		.loc 1 248 0
 652 0036 D7E90201 		ldrd	r0, [r7, #8]
 653 003a FFF7FEFF 		bl	__aeabi_d2iz
 654 003e 0346     		mov	r3, r0
 655 0040 9BB2     		uxth	r3, r3
 656 0042 013B     		subs	r3, r3, #1
 657 0044 9BB2     		uxth	r3, r3
 658 0046 0121     		movs	r1, #1
 659 0048 1846     		mov	r0, r3
 660 004a FFF7FEFF 		bl	HF_DAC_CLK_SetDividerRegister
 249:main.c        **** }
 661              		.loc 1 249 0
 662 004e 00BF     		nop
 663 0050 1C37     		adds	r7, r7, #28
 664              		.cfi_def_cfa_offset 12
 665 0052 BD46     		mov	sp, r7
 666              		.cfi_def_cfa_register 13
 667              		@ sp needed
 668 0054 90BD     		pop	{r4, r7, pc}
 669              	.L38:
 670 0056 00BF     		.align	3
 671              	.L37:
 672 0058 00000000 		.word	0
 673 005c 60E37641 		.word	1098310496
 674              		.cfi_endproc
 675              	.LFE67:
 676              		.size	SetHighFrequencyDacOutput, .-SetHighFrequencyDacOutput
 677              		.section	.text.SetLowFrequencyDacOutput,"ax",%progbits
 678              		.align	2
 679              		.global	SetLowFrequencyDacOutput
 680              		.thumb
 681              		.thumb_func
 682              		.type	SetLowFrequencyDacOutput, %function
 683              	SetLowFrequencyDacOutput:
 684              	.LFB68:
 250:main.c        **** 
 251:main.c        **** /*******************************************************************************
 252:main.c        **** * Function - Init Settings
 253:main.c        **** *******************************************************************************/
 254:main.c        **** void SetLowFrequencyDacOutput(int OutputFrequency)
 255:main.c        **** {   
 685              		.loc 1 255 0
 686              		.cfi_startproc
 687              		@ args = 0, pretend = 0, frame = 24
 688              		@ frame_needed = 1, uses_anonymous_args = 0
 689 0000 90B5     		push	{r4, r7, lr}
 690              		.cfi_def_cfa_offset 12
 691              		.cfi_offset 4, -12
 692              		.cfi_offset 7, -8
 693              		.cfi_offset 14, -4
 694 0002 87B0     		sub	sp, sp, #28
ARM GAS  C:\Users\riveraes\AppData\Local\Temp\cchOuINw.s 			page 18


 695              		.cfi_def_cfa_offset 40
 696 0004 00AF     		add	r7, sp, #0
 697              		.cfi_def_cfa_register 7
 698 0006 7860     		str	r0, [r7, #4]
 256:main.c        ****     double KSPS = LOW_FREQ_DAC_NUMBER_OF_SAMPLES * OutputFrequency; 
 699              		.loc 1 256 0
 700 0008 7B68     		ldr	r3, [r7, #4]
 701 000a C822     		movs	r2, #200
 702 000c 02FB03F3 		mul	r3, r2, r3
 703 0010 1846     		mov	r0, r3
 704 0012 FFF7FEFF 		bl	__aeabi_i2d
 705 0016 0346     		mov	r3, r0
 706 0018 0C46     		mov	r4, r1
 707 001a C7E90434 		strd	r3, [r7, #16]
 257:main.c        ****     double ClockDivider = MASTER_CLOCK_FREQUENCY / KSPS;
 708              		.loc 1 257 0
 709 001e D7E90423 		ldrd	r2, [r7, #16]
 710 0022 0DA1     		adr	r1, .L40
 711 0024 D1E90001 		ldrd	r0, [r1]
 712 0028 FFF7FEFF 		bl	__aeabi_ddiv
 713 002c 0346     		mov	r3, r0
 714 002e 0C46     		mov	r4, r1
 715 0030 C7E90234 		strd	r3, [r7, #8]
 258:main.c        ****     LF_DAC_CLK_SetDividerValue((int)ClockDivider);
 716              		.loc 1 258 0
 717 0034 D7E90201 		ldrd	r0, [r7, #8]
 718 0038 FFF7FEFF 		bl	__aeabi_d2iz
 719 003c 0346     		mov	r3, r0
 720 003e 9BB2     		uxth	r3, r3
 721 0040 013B     		subs	r3, r3, #1
 722 0042 9BB2     		uxth	r3, r3
 723 0044 0121     		movs	r1, #1
 724 0046 1846     		mov	r0, r3
 725 0048 FFF7FEFF 		bl	LF_DAC_CLK_SetDividerRegister
 259:main.c        **** }
 726              		.loc 1 259 0
 727 004c 00BF     		nop
 728 004e 1C37     		adds	r7, r7, #28
 729              		.cfi_def_cfa_offset 12
 730 0050 BD46     		mov	sp, r7
 731              		.cfi_def_cfa_register 13
 732              		@ sp needed
 733 0052 90BD     		pop	{r4, r7, pc}
 734              	.L41:
 735 0054 AFF30080 		.align	3
 736              	.L40:
 737 0058 00000000 		.word	0
 738 005c 60E37641 		.word	1098310496
 739              		.cfi_endproc
 740              	.LFE68:
 741              		.size	SetLowFrequencyDacOutput, .-SetLowFrequencyDacOutput
 742              		.section	.text.InitSettings,"ax",%progbits
 743              		.align	2
 744              		.global	InitSettings
 745              		.thumb
 746              		.thumb_func
 747              		.type	InitSettings, %function
ARM GAS  C:\Users\riveraes\AppData\Local\Temp\cchOuINw.s 			page 19


 748              	InitSettings:
 749              	.LFB69:
 260:main.c        **** 
 261:main.c        **** /*******************************************************************************
 262:main.c        **** * Function - Init Settings
 263:main.c        **** *******************************************************************************/
 264:main.c        **** void InitSettings(void)
 265:main.c        **** {   
 750              		.loc 1 265 0
 751              		.cfi_startproc
 752              		@ args = 0, pretend = 0, frame = 0
 753              		@ frame_needed = 1, uses_anonymous_args = 0
 754 0000 80B5     		push	{r7, lr}
 755              		.cfi_def_cfa_offset 8
 756              		.cfi_offset 7, -8
 757              		.cfi_offset 14, -4
 758 0002 00AF     		add	r7, sp, #0
 759              		.cfi_def_cfa_register 7
 266:main.c        ****     // Configure Muxes
 267:main.c        ****     HF_SW1_Write(0);    
 760              		.loc 1 267 0
 761 0004 0020     		movs	r0, #0
 762 0006 FFF7FEFF 		bl	HF_SW1_Write
 268:main.c        ****     LF_SW1_Write(0);
 763              		.loc 1 268 0
 764 000a 0020     		movs	r0, #0
 765 000c FFF7FEFF 		bl	LF_SW1_Write
 269:main.c        ****     
 270:main.c        ****     // Configure DAC's external clocks
 271:main.c        ****     SetLowFrequencyDacOutput(150);
 766              		.loc 1 271 0
 767 0010 9620     		movs	r0, #150
 768 0012 FFF7FEFF 		bl	SetLowFrequencyDacOutput
 272:main.c        ****     SetHighFrequencyDacOutput(150);
 769              		.loc 1 272 0
 770 0016 9620     		movs	r0, #150
 771 0018 FFF7FEFF 		bl	SetHighFrequencyDacOutput
 273:main.c        ****     
 274:main.c        ****     // Enable Components
 275:main.c        ****     HF_DAC_1_Start();   // (3,6,9,#,Dummy)
 772              		.loc 1 275 0
 773 001c FFF7FEFF 		bl	HF_DAC_1_Start
 276:main.c        ****     LF_DAC_1_Start();   // (7,8,9,*,0,#)
 774              		.loc 1 276 0
 775 0020 FFF7FEFF 		bl	LF_DAC_1_Start
 277:main.c        **** }
 776              		.loc 1 277 0
 777 0024 00BF     		nop
 778 0026 80BD     		pop	{r7, pc}
 779              		.cfi_endproc
 780              	.LFE69:
 781              		.size	InitSettings, .-InitSettings
 782              		.global	__aeabi_dmul
 783              		.section	.rodata
 784 008e 0000     		.align	2
 785              	.LC17:
 786 0090 4C6F3D25 		.ascii	"Lo=%dHz\000"
ARM GAS  C:\Users\riveraes\AppData\Local\Temp\cchOuINw.s 			page 20


 786      64487A00 
 787              		.align	2
 788              	.LC18:
 789 0098 202D2000 		.ascii	" - \000"
 790              		.align	2
 791              	.LC19:
 792 009c 48693D25 		.ascii	"Hi=%dHz\015\012\000"
 792      64487A0D 
 792      0A00
 793              		.section	.text.DTMF,"ax",%progbits
 794              		.align	2
 795              		.global	DTMF
 796              		.thumb
 797              		.thumb_func
 798              		.type	DTMF, %function
 799              	DTMF:
 800              	.LFB70:
 278:main.c        **** 
 279:main.c        **** /*******************************************************************************
 280:main.c        **** * Function - Find DTMF Frequencies
 281:main.c        **** *******************************************************************************/
 282:main.c        **** void DTMF()
 283:main.c        **** {
 801              		.loc 1 283 0
 802              		.cfi_startproc
 803              		@ args = 0, pretend = 0, frame = 5296
 804              		@ frame_needed = 1, uses_anonymous_args = 0
 805 0000 90B5     		push	{r4, r7, lr}
 806              		.cfi_def_cfa_offset 12
 807              		.cfi_offset 4, -12
 808              		.cfi_offset 7, -8
 809              		.cfi_offset 14, -4
 810 0002 ADF5A55D 		sub	sp, sp, #5280
 811              		.cfi_def_cfa_offset 5292
 812 0006 85B0     		sub	sp, sp, #20
 813              		.cfi_def_cfa_offset 5312
 814 0008 00AF     		add	r7, sp, #0
 815              		.cfi_def_cfa_register 7
 816              	.LBB5:
 284:main.c        ****     double signal[NUMBER_OF_SAMPLES];
 285:main.c        ****     for(int i = 0; i < NUMBER_OF_SAMPLES; i++)
 817              		.loc 1 285 0
 818 000a 0023     		movs	r3, #0
 819 000c 07F5A552 		add	r2, r7, #5280
 820 0010 02F10C02 		add	r2, r2, #12
 821 0014 1360     		str	r3, [r2]
 822 0016 48E0     		b	.L44
 823              	.L45:
 824              	.LBB6:
 286:main.c        ****     {
 287:main.c        ****         double pdata = (double)array[i];
 825              		.loc 1 287 0 discriminator 3
 826 0018 944A     		ldr	r2, .L50
 827 001a 07F5A553 		add	r3, r7, #5280
 828 001e 03F10C03 		add	r3, r3, #12
 829 0022 1B68     		ldr	r3, [r3]
 830 0024 32F91330 		ldrsh	r3, [r2, r3, lsl #1]
ARM GAS  C:\Users\riveraes\AppData\Local\Temp\cchOuINw.s 			page 21


 831 0028 1846     		mov	r0, r3
 832 002a FFF7FEFF 		bl	__aeabi_i2d
 833 002e 0346     		mov	r3, r0
 834 0030 0C46     		mov	r4, r1
 835 0032 07F5A552 		add	r2, r7, #5280
 836 0036 C2E90034 		strd	r3, [r2]
 288:main.c        ****         pdata = pdata*0.5;
 837              		.loc 1 288 0 discriminator 3
 838 003a 4FF00002 		mov	r2, #0
 839 003e 8C4B     		ldr	r3, .L50+4
 840 0040 07F5A551 		add	r1, r7, #5280
 841 0044 D1E90001 		ldrd	r0, [r1]
 842 0048 FFF7FEFF 		bl	__aeabi_dmul
 843 004c 0346     		mov	r3, r0
 844 004e 0C46     		mov	r4, r1
 845 0050 07F5A552 		add	r2, r7, #5280
 846 0054 C2E90034 		strd	r3, [r2]
 289:main.c        ****         pdata = pdata/128;
 847              		.loc 1 289 0 discriminator 3
 848 0058 4FF00002 		mov	r2, #0
 849 005c 854B     		ldr	r3, .L50+8
 850 005e 07F5A551 		add	r1, r7, #5280
 851 0062 D1E90001 		ldrd	r0, [r1]
 852 0066 FFF7FEFF 		bl	__aeabi_ddiv
 853 006a 0346     		mov	r3, r0
 854 006c 0C46     		mov	r4, r1
 855 006e 07F5A552 		add	r2, r7, #5280
 856 0072 C2E90034 		strd	r3, [r2]
 290:main.c        ****         signal[i] = pdata;
 857              		.loc 1 290 0 discriminator 3
 858 0076 07F15003 		add	r3, r7, #80
 859 007a 083B     		subs	r3, r3, #8
 860 007c 07F5A552 		add	r2, r7, #5280
 861 0080 02F10C02 		add	r2, r2, #12
 862 0084 1268     		ldr	r2, [r2]
 863 0086 D200     		lsls	r2, r2, #3
 864 0088 1A44     		add	r2, r2, r3
 865 008a 07F5A553 		add	r3, r7, #5280
 866 008e 18CB     		ldmia	r3, {r3-r4}
 867 0090 C2E90034 		strd	r3, [r2]
 868              	.LBE6:
 285:main.c        ****     {
 869              		.loc 1 285 0 discriminator 3
 870 0094 07F5A553 		add	r3, r7, #5280
 871 0098 03F10C03 		add	r3, r3, #12
 872 009c 1B68     		ldr	r3, [r3]
 873 009e 0133     		adds	r3, r3, #1
 874 00a0 07F5A552 		add	r2, r7, #5280
 875 00a4 02F10C02 		add	r2, r2, #12
 876 00a8 1360     		str	r3, [r2]
 877              	.L44:
 285:main.c        ****     {
 878              		.loc 1 285 0 is_stmt 0 discriminator 1
 879 00aa 07F5A553 		add	r3, r7, #5280
 880 00ae 03F10C03 		add	r3, r3, #12
 881 00b2 1B68     		ldr	r3, [r3]
 882 00b4 40F28922 		movw	r2, #649
ARM GAS  C:\Users\riveraes\AppData\Local\Temp\cchOuINw.s 			page 22


 883 00b8 9342     		cmp	r3, r2
 884 00ba ADDD     		ble	.L45
 885              	.LBE5:
 291:main.c        ****     }
 292:main.c        ****     
 293:main.c        ****     double loAmplitudes[LOW_FREQUENCIES_ANALIZED] = {0, 0, 0, 0, 0};
 886              		.loc 1 293 0 is_stmt 1
 887 00bc 07F13003 		add	r3, r7, #48
 888 00c0 103B     		subs	r3, r3, #16
 889 00c2 1846     		mov	r0, r3
 890 00c4 2823     		movs	r3, #40
 891 00c6 1A46     		mov	r2, r3
 892 00c8 0021     		movs	r1, #0
 893 00ca FFF7FEFF 		bl	memset
 294:main.c        ****     double hiAmplitudes[HIGH_FREQUENCIES_ANALIZED] = {0, 0, 0, 0};
 894              		.loc 1 294 0
 895 00ce 07F11003 		add	r3, r7, #16
 896 00d2 103B     		subs	r3, r3, #16
 897 00d4 1846     		mov	r0, r3
 898 00d6 2023     		movs	r3, #32
 899 00d8 1A46     		mov	r2, r3
 900 00da 0021     		movs	r1, #0
 901 00dc FFF7FEFF 		bl	memset
 902              	.LBB7:
 295:main.c        ****     
 296:main.c        ****     for(uint8 i = 0; i < LOW_FREQUENCIES_ANALIZED; i++)
 903              		.loc 1 296 0
 904 00e0 0023     		movs	r3, #0
 905 00e2 07F5A552 		add	r2, r7, #5280
 906 00e6 02F10B02 		add	r2, r2, #11
 907 00ea 1370     		strb	r3, [r2]
 908 00ec 29E0     		b	.L46
 909              	.L47:
 297:main.c        ****     {
 298:main.c        ****         loAmplitudes[i] = Goertzel(NUMBER_OF_SAMPLES,loFrequency[i],SAMPLING_RATE, signal);
 910              		.loc 1 298 0 discriminator 3
 911 00ee 07F5A553 		add	r3, r7, #5280
 912 00f2 03F10B03 		add	r3, r3, #11
 913 00f6 1C78     		ldrb	r4, [r3]	@ zero_extendqisi2
 914 00f8 07F5A553 		add	r3, r7, #5280
 915 00fc 03F10B03 		add	r3, r3, #11
 916 0100 1B78     		ldrb	r3, [r3]	@ zero_extendqisi2
 917 0102 5D4A     		ldr	r2, .L50+12
 918 0104 52F82310 		ldr	r1, [r2, r3, lsl #2]
 919 0108 07F15003 		add	r3, r7, #80
 920 010c 083B     		subs	r3, r3, #8
 921 010e 42F21072 		movw	r2, #10000
 922 0112 40F28A20 		movw	r0, #650
 923 0116 FFF7FEFF 		bl	Goertzel
 924 011a 0A46     		mov	r2, r1
 925 011c 0146     		mov	r1, r0
 926 011e 07F13003 		add	r3, r7, #48
 927 0122 103B     		subs	r3, r3, #16
 928 0124 E000     		lsls	r0, r4, #3
 929 0126 0344     		add	r3, r3, r0
 930 0128 C3E90012 		strd	r1, [r3]
 296:main.c        ****     {
ARM GAS  C:\Users\riveraes\AppData\Local\Temp\cchOuINw.s 			page 23


 931              		.loc 1 296 0 discriminator 3
 932 012c 07F5A553 		add	r3, r7, #5280
 933 0130 03F10B03 		add	r3, r3, #11
 934 0134 1B78     		ldrb	r3, [r3]	@ zero_extendqisi2
 935 0136 0133     		adds	r3, r3, #1
 936 0138 07F5A552 		add	r2, r7, #5280
 937 013c 02F10B02 		add	r2, r2, #11
 938 0140 1370     		strb	r3, [r2]
 939              	.L46:
 296:main.c        ****     {
 940              		.loc 1 296 0 is_stmt 0 discriminator 1
 941 0142 07F5A553 		add	r3, r7, #5280
 942 0146 03F10B03 		add	r3, r3, #11
 943 014a 1B78     		ldrb	r3, [r3]	@ zero_extendqisi2
 944 014c 042B     		cmp	r3, #4
 945 014e CED9     		bls	.L47
 946              	.LBE7:
 947              	.LBB8:
 299:main.c        ****     }
 300:main.c        ****     
 301:main.c        ****     for(uint8 i = 0; i < HIGH_FREQUENCIES_ANALIZED; i++)
 948              		.loc 1 301 0 is_stmt 1
 949 0150 0023     		movs	r3, #0
 950 0152 07F5A552 		add	r2, r7, #5280
 951 0156 02F10A02 		add	r2, r2, #10
 952 015a 1370     		strb	r3, [r2]
 953 015c 29E0     		b	.L48
 954              	.L49:
 302:main.c        ****     {
 303:main.c        ****         hiAmplitudes[i] = Goertzel(NUMBER_OF_SAMPLES,hiFrequency[i],SAMPLING_RATE, signal);
 955              		.loc 1 303 0 discriminator 3
 956 015e 07F5A553 		add	r3, r7, #5280
 957 0162 03F10A03 		add	r3, r3, #10
 958 0166 1C78     		ldrb	r4, [r3]	@ zero_extendqisi2
 959 0168 07F5A553 		add	r3, r7, #5280
 960 016c 03F10A03 		add	r3, r3, #10
 961 0170 1B78     		ldrb	r3, [r3]	@ zero_extendqisi2
 962 0172 424A     		ldr	r2, .L50+16
 963 0174 52F82310 		ldr	r1, [r2, r3, lsl #2]
 964 0178 07F15003 		add	r3, r7, #80
 965 017c 083B     		subs	r3, r3, #8
 966 017e 42F21072 		movw	r2, #10000
 967 0182 40F28A20 		movw	r0, #650
 968 0186 FFF7FEFF 		bl	Goertzel
 969 018a 0A46     		mov	r2, r1
 970 018c 0146     		mov	r1, r0
 971 018e 07F11003 		add	r3, r7, #16
 972 0192 103B     		subs	r3, r3, #16
 973 0194 E000     		lsls	r0, r4, #3
 974 0196 0344     		add	r3, r3, r0
 975 0198 C3E90012 		strd	r1, [r3]
 301:main.c        ****     {
 976              		.loc 1 301 0 discriminator 3
 977 019c 07F5A553 		add	r3, r7, #5280
 978 01a0 03F10A03 		add	r3, r3, #10
 979 01a4 1B78     		ldrb	r3, [r3]	@ zero_extendqisi2
 980 01a6 0133     		adds	r3, r3, #1
ARM GAS  C:\Users\riveraes\AppData\Local\Temp\cchOuINw.s 			page 24


 981 01a8 07F5A552 		add	r2, r7, #5280
 982 01ac 02F10A02 		add	r2, r2, #10
 983 01b0 1370     		strb	r3, [r2]
 984              	.L48:
 301:main.c        ****     {
 985              		.loc 1 301 0 is_stmt 0 discriminator 1
 986 01b2 07F5A553 		add	r3, r7, #5280
 987 01b6 03F10A03 		add	r3, r3, #10
 988 01ba 1B78     		ldrb	r3, [r3]	@ zero_extendqisi2
 989 01bc 032B     		cmp	r3, #3
 990 01be CED9     		bls	.L49
 991              	.LBE8:
 304:main.c        ****     }
 305:main.c        ****     
 306:main.c        ****     uint16 loAmp = getMaxValue(loAmplitudes, LOW_FREQUENCIES_ANALIZED);
 992              		.loc 1 306 0 is_stmt 1
 993 01c0 07F13003 		add	r3, r7, #48
 994 01c4 103B     		subs	r3, r3, #16
 995 01c6 0521     		movs	r1, #5
 996 01c8 1846     		mov	r0, r3
 997 01ca FFF7FEFF 		bl	getMaxValue
 998 01ce 0346     		mov	r3, r0
 999 01d0 07F5A452 		add	r2, r7, #5248
 1000 01d4 02F11E02 		add	r2, r2, #30
 1001 01d8 1380     		strh	r3, [r2]	@ movhi
 307:main.c        ****     uint16 hiAmp = getMaxValue(hiAmplitudes, HIGH_FREQUENCIES_ANALIZED);   
 1002              		.loc 1 307 0
 1003 01da 07F11003 		add	r3, r7, #16
 1004 01de 103B     		subs	r3, r3, #16
 1005 01e0 0421     		movs	r1, #4
 1006 01e2 1846     		mov	r0, r3
 1007 01e4 FFF7FEFF 		bl	getMaxValue
 1008 01e8 0346     		mov	r3, r0
 1009 01ea 07F5A452 		add	r2, r7, #5248
 1010 01ee 02F11C02 		add	r2, r2, #28
 1011 01f2 1380     		strh	r3, [r2]	@ movhi
 308:main.c        ****     
 309:main.c        ****     // Print the low and High frequencies found
 310:main.c        ****     sprintf(TransmitBuffer, "Lo=%dHz", loFrequency[loAmp]);
 1012              		.loc 1 310 0
 1013 01f4 07F5A453 		add	r3, r7, #5248
 1014 01f8 03F11E03 		add	r3, r3, #30
 1015 01fc 1B88     		ldrh	r3, [r3]
 1016 01fe 1E4A     		ldr	r2, .L50+12
 1017 0200 52F82330 		ldr	r3, [r2, r3, lsl #2]
 1018 0204 1A46     		mov	r2, r3
 1019 0206 1E49     		ldr	r1, .L50+20
 1020 0208 1E48     		ldr	r0, .L50+24
 1021 020a FFF7FEFF 		bl	sprintf
 311:main.c        ****     UART_1_PutString(TransmitBuffer);
 1022              		.loc 1 311 0
 1023 020e 1D48     		ldr	r0, .L50+24
 1024 0210 FFF7FEFF 		bl	UART_1_PutString
 312:main.c        ****     UART_1_PutString(" - ");
 1025              		.loc 1 312 0
 1026 0214 1C48     		ldr	r0, .L50+28
 1027 0216 FFF7FEFF 		bl	UART_1_PutString
ARM GAS  C:\Users\riveraes\AppData\Local\Temp\cchOuINw.s 			page 25


 313:main.c        ****     sprintf(TransmitBuffer, "Hi=%dHz\r\n", hiFrequency[hiAmp]);
 1028              		.loc 1 313 0
 1029 021a 07F5A453 		add	r3, r7, #5248
 1030 021e 03F11C03 		add	r3, r3, #28
 1031 0222 1B88     		ldrh	r3, [r3]
 1032 0224 154A     		ldr	r2, .L50+16
 1033 0226 52F82330 		ldr	r3, [r2, r3, lsl #2]
 1034 022a 1A46     		mov	r2, r3
 1035 022c 1749     		ldr	r1, .L50+32
 1036 022e 1548     		ldr	r0, .L50+24
 1037 0230 FFF7FEFF 		bl	sprintf
 314:main.c        ****     UART_1_PutString(TransmitBuffer);
 1038              		.loc 1 314 0
 1039 0234 1348     		ldr	r0, .L50+24
 1040 0236 FFF7FEFF 		bl	UART_1_PutString
 315:main.c        ****     
 316:main.c        ****     // Decode the pressed key value
 317:main.c        ****     DecodeInput(loFrequency[loAmp], hiFrequency[hiAmp]);
 1041              		.loc 1 317 0
 1042 023a 07F5A453 		add	r3, r7, #5248
 1043 023e 03F11E03 		add	r3, r3, #30
 1044 0242 1B88     		ldrh	r3, [r3]
 1045 0244 0C4A     		ldr	r2, .L50+12
 1046 0246 52F82300 		ldr	r0, [r2, r3, lsl #2]
 1047 024a 07F5A453 		add	r3, r7, #5248
 1048 024e 03F11C03 		add	r3, r3, #28
 1049 0252 1B88     		ldrh	r3, [r3]
 1050 0254 094A     		ldr	r2, .L50+16
 1051 0256 52F82330 		ldr	r3, [r2, r3, lsl #2]
 1052 025a 1946     		mov	r1, r3
 1053 025c FFF7FEFF 		bl	DecodeInput
 318:main.c        **** }
 1054              		.loc 1 318 0
 1055 0260 00BF     		nop
 1056 0262 07F5A557 		add	r7, r7, #5280
 1057 0266 1437     		adds	r7, r7, #20
 1058              		.cfi_def_cfa_offset 12
 1059 0268 BD46     		mov	sp, r7
 1060              		.cfi_def_cfa_register 13
 1061              		@ sp needed
 1062 026a 90BD     		pop	{r4, r7, pc}
 1063              	.L51:
 1064              		.align	2
 1065              	.L50:
 1066 026c 00000000 		.word	array
 1067 0270 0000E03F 		.word	1071644672
 1068 0274 00006040 		.word	1080033280
 1069 0278 00000000 		.word	loFrequency
 1070 027c 00000000 		.word	hiFrequency
 1071 0280 90000000 		.word	.LC17
 1072 0284 00000000 		.word	TransmitBuffer
 1073 0288 98000000 		.word	.LC18
 1074 028c 9C000000 		.word	.LC19
 1075              		.cfi_endproc
 1076              	.LFE70:
 1077              		.size	DTMF, .-DTMF
 1078              		.global	__aeabi_dadd
ARM GAS  C:\Users\riveraes\AppData\Local\Temp\cchOuINw.s 			page 26


 1079              		.global	__aeabi_dsub
 1080              		.section	.text.Goertzel,"ax",%progbits
 1081              		.align	2
 1082              		.global	Goertzel
 1083              		.thumb
 1084              		.thumb_func
 1085              		.type	Goertzel, %function
 1086              	Goertzel:
 1087              	.LFB71:
 319:main.c        **** 
 320:main.c        **** /*******************************************************************************
 321:main.c        **** * Function - Goertzel algorithm
 322:main.c        **** *******************************************************************************/
 323:main.c        **** double Goertzel(int numSamples, int tFrequency,int tSamplingRate, double data[])
 324:main.c        **** {
 1088              		.loc 1 324 0
 1089              		.cfi_startproc
 1090              		@ args = 0, pretend = 0, frame = 136
 1091              		@ frame_needed = 1, uses_anonymous_args = 0
 1092 0000 B0B5     		push	{r4, r5, r7, lr}
 1093              		.cfi_def_cfa_offset 16
 1094              		.cfi_offset 4, -16
 1095              		.cfi_offset 5, -12
 1096              		.cfi_offset 7, -8
 1097              		.cfi_offset 14, -4
 1098 0002 A2B0     		sub	sp, sp, #136
 1099              		.cfi_def_cfa_offset 152
 1100 0004 00AF     		add	r7, sp, #0
 1101              		.cfi_def_cfa_register 7
 1102 0006 F860     		str	r0, [r7, #12]
 1103 0008 B960     		str	r1, [r7, #8]
 1104 000a 7A60     		str	r2, [r7, #4]
 1105 000c 3B60     		str	r3, [r7]
 325:main.c        ****     int k;
 326:main.c        ****     int i;
 327:main.c        ****     double floatnumSamples;
 328:main.c        ****     double omega;
 329:main.c        ****     double sine;
 330:main.c        ****     double cosine;
 331:main.c        ****     double coeff;
 332:main.c        ****     double q0;
 333:main.c        ****     double q1;
 334:main.c        ****     double q2;
 335:main.c        ****     double magnitude;
 336:main.c        ****     double real;
 337:main.c        ****     double imag;
 338:main.c        ****     
 339:main.c        ****     double scalingFactor = numSamples / 2.0;
 1106              		.loc 1 339 0
 1107 000e F868     		ldr	r0, [r7, #12]
 1108 0010 FFF7FEFF 		bl	__aeabi_i2d
 1109 0014 4FF00002 		mov	r2, #0
 1110 0018 4FF08043 		mov	r3, #1073741824
 1111 001c FFF7FEFF 		bl	__aeabi_ddiv
 1112 0020 0346     		mov	r3, r0
 1113 0022 0C46     		mov	r4, r1
 1114 0024 C7E91A34 		strd	r3, [r7, #104]
ARM GAS  C:\Users\riveraes\AppData\Local\Temp\cchOuINw.s 			page 27


 340:main.c        **** 
 341:main.c        ****     floatnumSamples = numSamples;
 1115              		.loc 1 341 0
 1116 0028 F868     		ldr	r0, [r7, #12]
 1117 002a FFF7FEFF 		bl	__aeabi_i2d
 1118 002e 0346     		mov	r3, r0
 1119 0030 0C46     		mov	r4, r1
 1120 0032 C7E91834 		strd	r3, [r7, #96]
 342:main.c        ****     k = (0.5 + ((floatnumSamples * tFrequency) / tSamplingRate));
 1121              		.loc 1 342 0
 1122 0036 B868     		ldr	r0, [r7, #8]
 1123 0038 FFF7FEFF 		bl	__aeabi_i2d
 1124 003c D7E91823 		ldrd	r2, [r7, #96]
 1125 0040 FFF7FEFF 		bl	__aeabi_dmul
 1126 0044 0346     		mov	r3, r0
 1127 0046 0C46     		mov	r4, r1
 1128 0048 2546     		mov	r5, r4
 1129 004a 1C46     		mov	r4, r3
 1130 004c 7868     		ldr	r0, [r7, #4]
 1131 004e FFF7FEFF 		bl	__aeabi_i2d
 1132 0052 0246     		mov	r2, r0
 1133 0054 0B46     		mov	r3, r1
 1134 0056 2046     		mov	r0, r4
 1135 0058 2946     		mov	r1, r5
 1136 005a FFF7FEFF 		bl	__aeabi_ddiv
 1137 005e 0346     		mov	r3, r0
 1138 0060 0C46     		mov	r4, r1
 1139 0062 1846     		mov	r0, r3
 1140 0064 2146     		mov	r1, r4
 1141 0066 4FF00002 		mov	r2, #0
 1142 006a 6B4B     		ldr	r3, .L56+8
 1143 006c FFF7FEFF 		bl	__aeabi_dadd
 1144 0070 0346     		mov	r3, r0
 1145 0072 0C46     		mov	r4, r1
 1146 0074 1846     		mov	r0, r3
 1147 0076 2146     		mov	r1, r4
 1148 0078 FFF7FEFF 		bl	__aeabi_d2iz
 1149 007c 0346     		mov	r3, r0
 1150 007e FB65     		str	r3, [r7, #92]
 343:main.c        ****     omega = (2.0 * M_PI * k) / floatnumSamples;
 1151              		.loc 1 343 0
 1152 0080 F86D     		ldr	r0, [r7, #92]
 1153 0082 FFF7FEFF 		bl	__aeabi_i2d
 1154 0086 62A3     		adr	r3, .L56
 1155 0088 D3E90023 		ldrd	r2, [r3]
 1156 008c FFF7FEFF 		bl	__aeabi_dmul
 1157 0090 0346     		mov	r3, r0
 1158 0092 0C46     		mov	r4, r1
 1159 0094 1846     		mov	r0, r3
 1160 0096 2146     		mov	r1, r4
 1161 0098 D7E91823 		ldrd	r2, [r7, #96]
 1162 009c FFF7FEFF 		bl	__aeabi_ddiv
 1163 00a0 0346     		mov	r3, r0
 1164 00a2 0C46     		mov	r4, r1
 1165 00a4 C7E91434 		strd	r3, [r7, #80]
 344:main.c        ****     sine = sin(omega);
 1166              		.loc 1 344 0
ARM GAS  C:\Users\riveraes\AppData\Local\Temp\cchOuINw.s 			page 28


 1167 00a8 D7E91401 		ldrd	r0, [r7, #80]
 1168 00ac FFF7FEFF 		bl	sin
 1169 00b0 C7E91201 		strd	r0, [r7, #72]
 345:main.c        ****     cosine = cos(omega);
 1170              		.loc 1 345 0
 1171 00b4 D7E91401 		ldrd	r0, [r7, #80]
 1172 00b8 FFF7FEFF 		bl	cos
 1173 00bc C7E91001 		strd	r0, [r7, #64]
 346:main.c        ****     coeff = 2.0 * cosine;
 1174              		.loc 1 346 0
 1175 00c0 D7E91001 		ldrd	r0, [r7, #64]
 1176 00c4 0246     		mov	r2, r0
 1177 00c6 0B46     		mov	r3, r1
 1178 00c8 FFF7FEFF 		bl	__aeabi_dadd
 1179 00cc 0346     		mov	r3, r0
 1180 00ce 0C46     		mov	r4, r1
 1181 00d0 C7E90E34 		strd	r3, [r7, #56]
 347:main.c        ****     q0=0;
 1182              		.loc 1 347 0
 1183 00d4 4FF00003 		mov	r3, #0
 1184 00d8 4FF00004 		mov	r4, #0
 1185 00dc C7E90C34 		strd	r3, [r7, #48]
 348:main.c        ****     q1=0;
 1186              		.loc 1 348 0
 1187 00e0 4FF00003 		mov	r3, #0
 1188 00e4 4FF00004 		mov	r4, #0
 1189 00e8 C7E92034 		strd	r3, [r7, #128]
 349:main.c        ****     q2=0;
 1190              		.loc 1 349 0
 1191 00ec 4FF00003 		mov	r3, #0
 1192 00f0 4FF00004 		mov	r4, #0
 1193 00f4 C7E91E34 		strd	r3, [r7, #120]
 1194              	.LBB9:
 350:main.c        ****     
 351:main.c        ****     for(uint16 i = 0; i < numSamples; i++)
 1195              		.loc 1 351 0
 1196 00f8 0023     		movs	r3, #0
 1197 00fa A7F87630 		strh	r3, [r7, #118]	@ movhi
 1198 00fe 2EE0     		b	.L53
 1199              	.L54:
 1200              	.LBB10:
 352:main.c        ****     {
 353:main.c        ****         double mdata =  data[i];
 1201              		.loc 1 353 0 discriminator 3
 1202 0100 B7F87630 		ldrh	r3, [r7, #118]
 1203 0104 DB00     		lsls	r3, r3, #3
 1204 0106 3A68     		ldr	r2, [r7]
 1205 0108 1344     		add	r3, r3, r2
 1206 010a 18CB     		ldmia	r3, {r3-r4}
 1207 010c C7E90A34 		strd	r3, [r7, #40]
 354:main.c        ****         
 355:main.c        ****         q0 = coeff * q1 - q2 + mdata;
 1208              		.loc 1 355 0 discriminator 3
 1209 0110 D7E92023 		ldrd	r2, [r7, #128]
 1210 0114 D7E90E01 		ldrd	r0, [r7, #56]
 1211 0118 FFF7FEFF 		bl	__aeabi_dmul
 1212 011c 0346     		mov	r3, r0
ARM GAS  C:\Users\riveraes\AppData\Local\Temp\cchOuINw.s 			page 29


 1213 011e 0C46     		mov	r4, r1
 1214 0120 1846     		mov	r0, r3
 1215 0122 2146     		mov	r1, r4
 1216 0124 D7E91E23 		ldrd	r2, [r7, #120]
 1217 0128 FFF7FEFF 		bl	__aeabi_dsub
 1218 012c 0346     		mov	r3, r0
 1219 012e 0C46     		mov	r4, r1
 1220 0130 1846     		mov	r0, r3
 1221 0132 2146     		mov	r1, r4
 1222 0134 D7E90A23 		ldrd	r2, [r7, #40]
 1223 0138 FFF7FEFF 		bl	__aeabi_dadd
 1224 013c 0346     		mov	r3, r0
 1225 013e 0C46     		mov	r4, r1
 1226 0140 C7E90C34 		strd	r3, [r7, #48]
 356:main.c        ****         q2 = q1;
 1227              		.loc 1 356 0 discriminator 3
 1228 0144 D7E92034 		ldrd	r3, [r7, #128]
 1229 0148 C7E91E34 		strd	r3, [r7, #120]
 357:main.c        ****         q1 = q0;
 1230              		.loc 1 357 0 discriminator 3
 1231 014c D7E90C34 		ldrd	r3, [r7, #48]
 1232 0150 C7E92034 		strd	r3, [r7, #128]
 1233              	.LBE10:
 351:main.c        ****     {
 1234              		.loc 1 351 0 discriminator 3
 1235 0154 B7F87630 		ldrh	r3, [r7, #118]
 1236 0158 0133     		adds	r3, r3, #1
 1237 015a A7F87630 		strh	r3, [r7, #118]	@ movhi
 1238              	.L53:
 351:main.c        ****     {
 1239              		.loc 1 351 0 is_stmt 0 discriminator 1
 1240 015e B7F87620 		ldrh	r2, [r7, #118]
 1241 0162 FB68     		ldr	r3, [r7, #12]
 1242 0164 9A42     		cmp	r2, r3
 1243 0166 CBDB     		blt	.L54
 1244              	.LBE9:
 358:main.c        ****     }
 359:main.c        **** 
 360:main.c        ****     // calculate the real and imaginary results
 361:main.c        ****     // scaling appropriately
 362:main.c        ****     real = (q1 - q2 * cosine) / scalingFactor;
 1245              		.loc 1 362 0 is_stmt 1
 1246 0168 D7E91023 		ldrd	r2, [r7, #64]
 1247 016c D7E91E01 		ldrd	r0, [r7, #120]
 1248 0170 FFF7FEFF 		bl	__aeabi_dmul
 1249 0174 0346     		mov	r3, r0
 1250 0176 0C46     		mov	r4, r1
 1251 0178 1A46     		mov	r2, r3
 1252 017a 2346     		mov	r3, r4
 1253 017c D7E92001 		ldrd	r0, [r7, #128]
 1254 0180 FFF7FEFF 		bl	__aeabi_dsub
 1255 0184 0346     		mov	r3, r0
 1256 0186 0C46     		mov	r4, r1
 1257 0188 1846     		mov	r0, r3
 1258 018a 2146     		mov	r1, r4
 1259 018c D7E91A23 		ldrd	r2, [r7, #104]
 1260 0190 FFF7FEFF 		bl	__aeabi_ddiv
ARM GAS  C:\Users\riveraes\AppData\Local\Temp\cchOuINw.s 			page 30


 1261 0194 0346     		mov	r3, r0
 1262 0196 0C46     		mov	r4, r1
 1263 0198 C7E90834 		strd	r3, [r7, #32]
 363:main.c        ****     imag = (q2 * sine) / scalingFactor;
 1264              		.loc 1 363 0
 1265 019c D7E91223 		ldrd	r2, [r7, #72]
 1266 01a0 D7E91E01 		ldrd	r0, [r7, #120]
 1267 01a4 FFF7FEFF 		bl	__aeabi_dmul
 1268 01a8 0346     		mov	r3, r0
 1269 01aa 0C46     		mov	r4, r1
 1270 01ac 1846     		mov	r0, r3
 1271 01ae 2146     		mov	r1, r4
 1272 01b0 D7E91A23 		ldrd	r2, [r7, #104]
 1273 01b4 FFF7FEFF 		bl	__aeabi_ddiv
 1274 01b8 0346     		mov	r3, r0
 1275 01ba 0C46     		mov	r4, r1
 1276 01bc C7E90634 		strd	r3, [r7, #24]
 364:main.c        **** 
 365:main.c        ****     magnitude = sqrt(real*real + imag*imag);
 1277              		.loc 1 365 0
 1278 01c0 D7E90823 		ldrd	r2, [r7, #32]
 1279 01c4 D7E90801 		ldrd	r0, [r7, #32]
 1280 01c8 FFF7FEFF 		bl	__aeabi_dmul
 1281 01cc 0346     		mov	r3, r0
 1282 01ce 0C46     		mov	r4, r1
 1283 01d0 2546     		mov	r5, r4
 1284 01d2 1C46     		mov	r4, r3
 1285 01d4 D7E90623 		ldrd	r2, [r7, #24]
 1286 01d8 D7E90601 		ldrd	r0, [r7, #24]
 1287 01dc FFF7FEFF 		bl	__aeabi_dmul
 1288 01e0 0246     		mov	r2, r0
 1289 01e2 0B46     		mov	r3, r1
 1290 01e4 2046     		mov	r0, r4
 1291 01e6 2946     		mov	r1, r5
 1292 01e8 FFF7FEFF 		bl	__aeabi_dadd
 1293 01ec 0346     		mov	r3, r0
 1294 01ee 0C46     		mov	r4, r1
 1295 01f0 1846     		mov	r0, r3
 1296 01f2 2146     		mov	r1, r4
 1297 01f4 FFF7FEFF 		bl	sqrt
 1298 01f8 C7E90401 		strd	r0, [r7, #16]
 366:main.c        ****     return magnitude;
 1299              		.loc 1 366 0
 1300 01fc D7E90434 		ldrd	r3, [r7, #16]
 367:main.c        **** }
 1301              		.loc 1 367 0
 1302 0200 1846     		mov	r0, r3
 1303 0202 2146     		mov	r1, r4
 1304 0204 8837     		adds	r7, r7, #136
 1305              		.cfi_def_cfa_offset 16
 1306 0206 BD46     		mov	sp, r7
 1307              		.cfi_def_cfa_register 13
 1308              		@ sp needed
 1309 0208 B0BD     		pop	{r4, r5, r7, pc}
 1310              	.L57:
 1311 020a 00BFAFF3 		.align	3
 1311      0080
ARM GAS  C:\Users\riveraes\AppData\Local\Temp\cchOuINw.s 			page 31


 1312              	.L56:
 1313 0210 182D4454 		.word	1413754136
 1314 0214 FB211940 		.word	1075388923
 1315 0218 0000E03F 		.word	1071644672
 1316              		.cfi_endproc
 1317              	.LFE71:
 1318              		.size	Goertzel, .-Goertzel
 1319              		.global	__aeabi_dcmpgt
 1320              		.section	.text.getMaxValue,"ax",%progbits
 1321              		.align	2
 1322              		.global	getMaxValue
 1323              		.thumb
 1324              		.thumb_func
 1325              		.type	getMaxValue, %function
 1326              	getMaxValue:
 1327              	.LFB72:
 368:main.c        **** 
 369:main.c        **** /*******************************************************************************
 370:main.c        **** * Function - Find max value of given array
 371:main.c        **** *******************************************************************************/
 372:main.c        **** uint16 getMaxValue(double *arrayData, uint8 size)
 373:main.c        **** {
 1328              		.loc 1 373 0
 1329              		.cfi_startproc
 1330              		@ args = 0, pretend = 0, frame = 24
 1331              		@ frame_needed = 1, uses_anonymous_args = 0
 1332 0000 90B5     		push	{r4, r7, lr}
 1333              		.cfi_def_cfa_offset 12
 1334              		.cfi_offset 4, -12
 1335              		.cfi_offset 7, -8
 1336              		.cfi_offset 14, -4
 1337 0002 87B0     		sub	sp, sp, #28
 1338              		.cfi_def_cfa_offset 40
 1339 0004 00AF     		add	r7, sp, #0
 1340              		.cfi_def_cfa_register 7
 1341 0006 7860     		str	r0, [r7, #4]
 1342 0008 0B46     		mov	r3, r1
 1343 000a FB70     		strb	r3, [r7, #3]
 374:main.c        ****     double maxValue = arrayData[0];
 1344              		.loc 1 374 0
 1345 000c 7B68     		ldr	r3, [r7, #4]
 1346 000e 18CB     		ldmia	r3, {r3-r4}
 1347 0010 C7E90434 		strd	r3, [r7, #16]
 375:main.c        ****     uint16 index = 0;
 1348              		.loc 1 375 0
 1349 0014 0023     		movs	r3, #0
 1350 0016 FB81     		strh	r3, [r7, #14]	@ movhi
 1351              	.LBB11:
 376:main.c        ****     for (uint16 i = 1; i < size; ++i) 
 1352              		.loc 1 376 0
 1353 0018 0123     		movs	r3, #1
 1354 001a BB81     		strh	r3, [r7, #12]	@ movhi
 1355 001c 18E0     		b	.L59
 1356              	.L62:
 377:main.c        ****     {
 378:main.c        ****         if ( arrayData[i] > maxValue ) 
 1357              		.loc 1 378 0
ARM GAS  C:\Users\riveraes\AppData\Local\Temp\cchOuINw.s 			page 32


 1358 001e BB89     		ldrh	r3, [r7, #12]
 1359 0020 DB00     		lsls	r3, r3, #3
 1360 0022 7A68     		ldr	r2, [r7, #4]
 1361 0024 1344     		add	r3, r3, r2
 1362 0026 D3E90001 		ldrd	r0, [r3]
 1363 002a D7E90423 		ldrd	r2, [r7, #16]
 1364 002e FFF7FEFF 		bl	__aeabi_dcmpgt
 1365 0032 0346     		mov	r3, r0
 1366 0034 002B     		cmp	r3, #0
 1367 0036 08D0     		beq	.L60
 379:main.c        ****         {
 380:main.c        ****             maxValue = arrayData[i];
 1368              		.loc 1 380 0
 1369 0038 BB89     		ldrh	r3, [r7, #12]
 1370 003a DB00     		lsls	r3, r3, #3
 1371 003c 7A68     		ldr	r2, [r7, #4]
 1372 003e 1344     		add	r3, r3, r2
 1373 0040 18CB     		ldmia	r3, {r3-r4}
 1374 0042 C7E90434 		strd	r3, [r7, #16]
 381:main.c        ****             index = i;
 1375              		.loc 1 381 0
 1376 0046 BB89     		ldrh	r3, [r7, #12]	@ movhi
 1377 0048 FB81     		strh	r3, [r7, #14]	@ movhi
 1378              	.L60:
 376:main.c        ****     {
 1379              		.loc 1 376 0 discriminator 2
 1380 004a BB89     		ldrh	r3, [r7, #12]	@ movhi
 1381 004c 0133     		adds	r3, r3, #1
 1382 004e BB81     		strh	r3, [r7, #12]	@ movhi
 1383              	.L59:
 376:main.c        ****     {
 1384              		.loc 1 376 0 is_stmt 0 discriminator 1
 1385 0050 FB78     		ldrb	r3, [r7, #3]	@ zero_extendqisi2
 1386 0052 9BB2     		uxth	r3, r3
 1387 0054 BA89     		ldrh	r2, [r7, #12]
 1388 0056 9A42     		cmp	r2, r3
 1389 0058 E1D3     		bcc	.L62
 1390              	.LBE11:
 382:main.c        ****         }
 383:main.c        ****     }
 384:main.c        ****     
 385:main.c        ****     return index;
 1391              		.loc 1 385 0 is_stmt 1
 1392 005a FB89     		ldrh	r3, [r7, #14]
 386:main.c        **** }
 1393              		.loc 1 386 0
 1394 005c 1846     		mov	r0, r3
 1395 005e 1C37     		adds	r7, r7, #28
 1396              		.cfi_def_cfa_offset 12
 1397 0060 BD46     		mov	sp, r7
 1398              		.cfi_def_cfa_register 13
 1399              		@ sp needed
 1400 0062 90BD     		pop	{r4, r7, pc}
 1401              		.cfi_endproc
 1402              	.LFE72:
 1403              		.size	getMaxValue, .-getMaxValue
 1404              		.section	.rodata
ARM GAS  C:\Users\riveraes\AppData\Local\Temp\cchOuINw.s 			page 33


 1405 00a6 0000     		.align	2
 1406              	.LC20:
 1407 00a8 4465636F 		.ascii	"Decoded=1\015\012\000"
 1407      6465643D 
 1407      310D0A00 
 1408              		.align	2
 1409              	.LC21:
 1410 00b4 4465636F 		.ascii	"Decoded=2\015\012\000"
 1410      6465643D 
 1410      320D0A00 
 1411              		.align	2
 1412              	.LC22:
 1413 00c0 4465636F 		.ascii	"Decoded=3\015\012\000"
 1413      6465643D 
 1413      330D0A00 
 1414              		.align	2
 1415              	.LC23:
 1416 00cc 4465636F 		.ascii	"Decoded=4\015\012\000"
 1416      6465643D 
 1416      340D0A00 
 1417              		.align	2
 1418              	.LC24:
 1419 00d8 4465636F 		.ascii	"Decoded=5\015\012\000"
 1419      6465643D 
 1419      350D0A00 
 1420              		.align	2
 1421              	.LC25:
 1422 00e4 4465636F 		.ascii	"Decoded=6\015\012\000"
 1422      6465643D 
 1422      360D0A00 
 1423              		.align	2
 1424              	.LC26:
 1425 00f0 4465636F 		.ascii	"Decoded=7\015\012\000"
 1425      6465643D 
 1425      370D0A00 
 1426              		.align	2
 1427              	.LC27:
 1428 00fc 4465636F 		.ascii	"Decoded=8\015\012\000"
 1428      6465643D 
 1428      380D0A00 
 1429              		.align	2
 1430              	.LC28:
 1431 0108 4465636F 		.ascii	"Decoded=9\015\012\000"
 1431      6465643D 
 1431      390D0A00 
 1432              		.align	2
 1433              	.LC29:
 1434 0114 4465636F 		.ascii	"Decoded=*\015\012\000"
 1434      6465643D 
 1434      2A0D0A00 
 1435              		.align	2
 1436              	.LC30:
 1437 0120 4465636F 		.ascii	"Decoded=0\015\012\000"
 1437      6465643D 
 1437      300D0A00 
 1438              		.align	2
 1439              	.LC31:
ARM GAS  C:\Users\riveraes\AppData\Local\Temp\cchOuINw.s 			page 34


 1440 012c 4465636F 		.ascii	"Decoded=#\015\012\000"
 1440      6465643D 
 1440      230D0A00 
 1441              		.align	2
 1442              	.LC32:
 1443 0138 4465636F 		.ascii	"Decoded=Dummy\015\012\000"
 1443      6465643D 
 1443      44756D6D 
 1443      790D0A00 
 1444              		.section	.text.DecodeInput,"ax",%progbits
 1445              		.align	2
 1446              		.global	DecodeInput
 1447              		.thumb
 1448              		.thumb_func
 1449              		.type	DecodeInput, %function
 1450              	DecodeInput:
 1451              	.LFB73:
 387:main.c        **** 
 388:main.c        **** /*******************************************************************************
 389:main.c        **** * Function - Decode the frequencies found
 390:main.c        **** *******************************************************************************/
 391:main.c        **** void DecodeInput(int lo, int hi)
 392:main.c        **** {
 1452              		.loc 1 392 0
 1453              		.cfi_startproc
 1454              		@ args = 0, pretend = 0, frame = 8
 1455              		@ frame_needed = 1, uses_anonymous_args = 0
 1456 0000 80B5     		push	{r7, lr}
 1457              		.cfi_def_cfa_offset 8
 1458              		.cfi_offset 7, -8
 1459              		.cfi_offset 14, -4
 1460 0002 82B0     		sub	sp, sp, #8
 1461              		.cfi_def_cfa_offset 16
 1462 0004 00AF     		add	r7, sp, #0
 1463              		.cfi_def_cfa_register 7
 1464 0006 7860     		str	r0, [r7, #4]
 1465 0008 3960     		str	r1, [r7]
 393:main.c        ****     // Keys 1,2,3
 394:main.c        ****     if ( (lo == loFrequency[1]) && (hi == hiFrequency[1]))
 1466              		.loc 1 394 0
 1467 000a 564B     		ldr	r3, .L81
 1468 000c 5A68     		ldr	r2, [r3, #4]
 1469 000e 7B68     		ldr	r3, [r7, #4]
 1470 0010 9A42     		cmp	r2, r3
 1471 0012 07D1     		bne	.L66
 1472              		.loc 1 394 0 is_stmt 0 discriminator 1
 1473 0014 544B     		ldr	r3, .L81+4
 1474 0016 5A68     		ldr	r2, [r3, #4]
 1475 0018 3B68     		ldr	r3, [r7]
 1476 001a 9A42     		cmp	r2, r3
 1477 001c 02D1     		bne	.L66
 395:main.c        ****         UART_1_PutString("Decoded=1\r\n");
 1478              		.loc 1 395 0 is_stmt 1
 1479 001e 5348     		ldr	r0, .L81+8
 1480 0020 FFF7FEFF 		bl	UART_1_PutString
 1481              	.L66:
 396:main.c        ****     if ( (lo == loFrequency[1]) && (hi == hiFrequency[2]))
ARM GAS  C:\Users\riveraes\AppData\Local\Temp\cchOuINw.s 			page 35


 1482              		.loc 1 396 0
 1483 0024 4F4B     		ldr	r3, .L81
 1484 0026 5A68     		ldr	r2, [r3, #4]
 1485 0028 7B68     		ldr	r3, [r7, #4]
 1486 002a 9A42     		cmp	r2, r3
 1487 002c 07D1     		bne	.L67
 1488              		.loc 1 396 0 is_stmt 0 discriminator 1
 1489 002e 4E4B     		ldr	r3, .L81+4
 1490 0030 9A68     		ldr	r2, [r3, #8]
 1491 0032 3B68     		ldr	r3, [r7]
 1492 0034 9A42     		cmp	r2, r3
 1493 0036 02D1     		bne	.L67
 397:main.c        ****         UART_1_PutString("Decoded=2\r\n");
 1494              		.loc 1 397 0 is_stmt 1
 1495 0038 4D48     		ldr	r0, .L81+12
 1496 003a FFF7FEFF 		bl	UART_1_PutString
 1497              	.L67:
 398:main.c        ****     if ( (lo == loFrequency[1]) && (hi == hiFrequency[3]))
 1498              		.loc 1 398 0
 1499 003e 494B     		ldr	r3, .L81
 1500 0040 5A68     		ldr	r2, [r3, #4]
 1501 0042 7B68     		ldr	r3, [r7, #4]
 1502 0044 9A42     		cmp	r2, r3
 1503 0046 07D1     		bne	.L68
 1504              		.loc 1 398 0 is_stmt 0 discriminator 1
 1505 0048 474B     		ldr	r3, .L81+4
 1506 004a DA68     		ldr	r2, [r3, #12]
 1507 004c 3B68     		ldr	r3, [r7]
 1508 004e 9A42     		cmp	r2, r3
 1509 0050 02D1     		bne	.L68
 399:main.c        ****         UART_1_PutString("Decoded=3\r\n");
 1510              		.loc 1 399 0 is_stmt 1
 1511 0052 4848     		ldr	r0, .L81+16
 1512 0054 FFF7FEFF 		bl	UART_1_PutString
 1513              	.L68:
 400:main.c        ****     
 401:main.c        ****     // Keys 4,5,6    
 402:main.c        ****     if ( (lo == loFrequency[2]) && (hi == hiFrequency[1]))
 1514              		.loc 1 402 0
 1515 0058 424B     		ldr	r3, .L81
 1516 005a 9A68     		ldr	r2, [r3, #8]
 1517 005c 7B68     		ldr	r3, [r7, #4]
 1518 005e 9A42     		cmp	r2, r3
 1519 0060 07D1     		bne	.L69
 1520              		.loc 1 402 0 is_stmt 0 discriminator 1
 1521 0062 414B     		ldr	r3, .L81+4
 1522 0064 5A68     		ldr	r2, [r3, #4]
 1523 0066 3B68     		ldr	r3, [r7]
 1524 0068 9A42     		cmp	r2, r3
 1525 006a 02D1     		bne	.L69
 403:main.c        ****         UART_1_PutString("Decoded=4\r\n");
 1526              		.loc 1 403 0 is_stmt 1
 1527 006c 4248     		ldr	r0, .L81+20
 1528 006e FFF7FEFF 		bl	UART_1_PutString
 1529              	.L69:
 404:main.c        ****     if ( (lo == loFrequency[2]) && (hi == hiFrequency[2]))
 1530              		.loc 1 404 0
ARM GAS  C:\Users\riveraes\AppData\Local\Temp\cchOuINw.s 			page 36


 1531 0072 3C4B     		ldr	r3, .L81
 1532 0074 9A68     		ldr	r2, [r3, #8]
 1533 0076 7B68     		ldr	r3, [r7, #4]
 1534 0078 9A42     		cmp	r2, r3
 1535 007a 07D1     		bne	.L70
 1536              		.loc 1 404 0 is_stmt 0 discriminator 1
 1537 007c 3A4B     		ldr	r3, .L81+4
 1538 007e 9A68     		ldr	r2, [r3, #8]
 1539 0080 3B68     		ldr	r3, [r7]
 1540 0082 9A42     		cmp	r2, r3
 1541 0084 02D1     		bne	.L70
 405:main.c        ****         UART_1_PutString("Decoded=5\r\n");
 1542              		.loc 1 405 0 is_stmt 1
 1543 0086 3D48     		ldr	r0, .L81+24
 1544 0088 FFF7FEFF 		bl	UART_1_PutString
 1545              	.L70:
 406:main.c        ****     if ( (lo == loFrequency[2]) && (hi == hiFrequency[3]))
 1546              		.loc 1 406 0
 1547 008c 354B     		ldr	r3, .L81
 1548 008e 9A68     		ldr	r2, [r3, #8]
 1549 0090 7B68     		ldr	r3, [r7, #4]
 1550 0092 9A42     		cmp	r2, r3
 1551 0094 07D1     		bne	.L71
 1552              		.loc 1 406 0 is_stmt 0 discriminator 1
 1553 0096 344B     		ldr	r3, .L81+4
 1554 0098 DA68     		ldr	r2, [r3, #12]
 1555 009a 3B68     		ldr	r3, [r7]
 1556 009c 9A42     		cmp	r2, r3
 1557 009e 02D1     		bne	.L71
 407:main.c        ****         UART_1_PutString("Decoded=6\r\n");
 1558              		.loc 1 407 0 is_stmt 1
 1559 00a0 3748     		ldr	r0, .L81+28
 1560 00a2 FFF7FEFF 		bl	UART_1_PutString
 1561              	.L71:
 408:main.c        ****     
 409:main.c        ****     // Keys 7,8,9   
 410:main.c        ****     if ( (lo == loFrequency[3]) && (hi == hiFrequency[1]))
 1562              		.loc 1 410 0
 1563 00a6 2F4B     		ldr	r3, .L81
 1564 00a8 DA68     		ldr	r2, [r3, #12]
 1565 00aa 7B68     		ldr	r3, [r7, #4]
 1566 00ac 9A42     		cmp	r2, r3
 1567 00ae 07D1     		bne	.L72
 1568              		.loc 1 410 0 is_stmt 0 discriminator 1
 1569 00b0 2D4B     		ldr	r3, .L81+4
 1570 00b2 5A68     		ldr	r2, [r3, #4]
 1571 00b4 3B68     		ldr	r3, [r7]
 1572 00b6 9A42     		cmp	r2, r3
 1573 00b8 02D1     		bne	.L72
 411:main.c        ****         UART_1_PutString("Decoded=7\r\n");
 1574              		.loc 1 411 0 is_stmt 1
 1575 00ba 3248     		ldr	r0, .L81+32
 1576 00bc FFF7FEFF 		bl	UART_1_PutString
 1577              	.L72:
 412:main.c        ****     if ( (lo == loFrequency[3]) && (hi == hiFrequency[2]))
 1578              		.loc 1 412 0
 1579 00c0 284B     		ldr	r3, .L81
ARM GAS  C:\Users\riveraes\AppData\Local\Temp\cchOuINw.s 			page 37


 1580 00c2 DA68     		ldr	r2, [r3, #12]
 1581 00c4 7B68     		ldr	r3, [r7, #4]
 1582 00c6 9A42     		cmp	r2, r3
 1583 00c8 07D1     		bne	.L73
 1584              		.loc 1 412 0 is_stmt 0 discriminator 1
 1585 00ca 274B     		ldr	r3, .L81+4
 1586 00cc 9A68     		ldr	r2, [r3, #8]
 1587 00ce 3B68     		ldr	r3, [r7]
 1588 00d0 9A42     		cmp	r2, r3
 1589 00d2 02D1     		bne	.L73
 413:main.c        ****         UART_1_PutString("Decoded=8\r\n");
 1590              		.loc 1 413 0 is_stmt 1
 1591 00d4 2C48     		ldr	r0, .L81+36
 1592 00d6 FFF7FEFF 		bl	UART_1_PutString
 1593              	.L73:
 414:main.c        ****     if ( (lo == loFrequency[3]) && (hi == hiFrequency[3]))
 1594              		.loc 1 414 0
 1595 00da 224B     		ldr	r3, .L81
 1596 00dc DA68     		ldr	r2, [r3, #12]
 1597 00de 7B68     		ldr	r3, [r7, #4]
 1598 00e0 9A42     		cmp	r2, r3
 1599 00e2 07D1     		bne	.L74
 1600              		.loc 1 414 0 is_stmt 0 discriminator 1
 1601 00e4 204B     		ldr	r3, .L81+4
 1602 00e6 DA68     		ldr	r2, [r3, #12]
 1603 00e8 3B68     		ldr	r3, [r7]
 1604 00ea 9A42     		cmp	r2, r3
 1605 00ec 02D1     		bne	.L74
 415:main.c        ****         UART_1_PutString("Decoded=9\r\n");
 1606              		.loc 1 415 0 is_stmt 1
 1607 00ee 2748     		ldr	r0, .L81+40
 1608 00f0 FFF7FEFF 		bl	UART_1_PutString
 1609              	.L74:
 416:main.c        ****     
 417:main.c        ****     // Keys *,0,#    
 418:main.c        ****     if ( (lo == loFrequency[4]) && (hi == hiFrequency[1]))
 1610              		.loc 1 418 0
 1611 00f4 1B4B     		ldr	r3, .L81
 1612 00f6 1A69     		ldr	r2, [r3, #16]
 1613 00f8 7B68     		ldr	r3, [r7, #4]
 1614 00fa 9A42     		cmp	r2, r3
 1615 00fc 07D1     		bne	.L75
 1616              		.loc 1 418 0 is_stmt 0 discriminator 1
 1617 00fe 1A4B     		ldr	r3, .L81+4
 1618 0100 5A68     		ldr	r2, [r3, #4]
 1619 0102 3B68     		ldr	r3, [r7]
 1620 0104 9A42     		cmp	r2, r3
 1621 0106 02D1     		bne	.L75
 419:main.c        ****         UART_1_PutString("Decoded=*\r\n");
 1622              		.loc 1 419 0 is_stmt 1
 1623 0108 2148     		ldr	r0, .L81+44
 1624 010a FFF7FEFF 		bl	UART_1_PutString
 1625              	.L75:
 420:main.c        ****     if ( (lo == loFrequency[4]) && (hi == hiFrequency[2]))
 1626              		.loc 1 420 0
 1627 010e 154B     		ldr	r3, .L81
 1628 0110 1A69     		ldr	r2, [r3, #16]
ARM GAS  C:\Users\riveraes\AppData\Local\Temp\cchOuINw.s 			page 38


 1629 0112 7B68     		ldr	r3, [r7, #4]
 1630 0114 9A42     		cmp	r2, r3
 1631 0116 07D1     		bne	.L76
 1632              		.loc 1 420 0 is_stmt 0 discriminator 1
 1633 0118 134B     		ldr	r3, .L81+4
 1634 011a 9A68     		ldr	r2, [r3, #8]
 1635 011c 3B68     		ldr	r3, [r7]
 1636 011e 9A42     		cmp	r2, r3
 1637 0120 02D1     		bne	.L76
 421:main.c        ****         UART_1_PutString("Decoded=0\r\n");
 1638              		.loc 1 421 0 is_stmt 1
 1639 0122 1C48     		ldr	r0, .L81+48
 1640 0124 FFF7FEFF 		bl	UART_1_PutString
 1641              	.L76:
 422:main.c        ****     if ( (lo == loFrequency[4]) && (hi == hiFrequency[3]))
 1642              		.loc 1 422 0
 1643 0128 0E4B     		ldr	r3, .L81
 1644 012a 1A69     		ldr	r2, [r3, #16]
 1645 012c 7B68     		ldr	r3, [r7, #4]
 1646 012e 9A42     		cmp	r2, r3
 1647 0130 07D1     		bne	.L77
 1648              		.loc 1 422 0 is_stmt 0 discriminator 1
 1649 0132 0D4B     		ldr	r3, .L81+4
 1650 0134 DA68     		ldr	r2, [r3, #12]
 1651 0136 3B68     		ldr	r3, [r7]
 1652 0138 9A42     		cmp	r2, r3
 1653 013a 02D1     		bne	.L77
 423:main.c        ****         UART_1_PutString("Decoded=#\r\n");   
 1654              		.loc 1 423 0 is_stmt 1
 1655 013c 1648     		ldr	r0, .L81+52
 1656 013e FFF7FEFF 		bl	UART_1_PutString
 1657              	.L77:
 424:main.c        ****     
 425:main.c        ****     // Dummy Frequencies    
 426:main.c        ****     if ( (lo == loFrequency[0]) || (hi == hiFrequency[0]) )
 1658              		.loc 1 426 0
 1659 0142 084B     		ldr	r3, .L81
 1660 0144 1A68     		ldr	r2, [r3]
 1661 0146 7B68     		ldr	r3, [r7, #4]
 1662 0148 9A42     		cmp	r2, r3
 1663 014a 04D0     		beq	.L78
 1664              		.loc 1 426 0 is_stmt 0 discriminator 1
 1665 014c 064B     		ldr	r3, .L81+4
 1666 014e 1A68     		ldr	r2, [r3]
 1667 0150 3B68     		ldr	r3, [r7]
 1668 0152 9A42     		cmp	r2, r3
 1669 0154 02D1     		bne	.L80
 1670              	.L78:
 427:main.c        ****         UART_1_PutString("Decoded=Dummy\r\n");
 1671              		.loc 1 427 0 is_stmt 1
 1672 0156 1148     		ldr	r0, .L81+56
 1673 0158 FFF7FEFF 		bl	UART_1_PutString
 1674              	.L80:
 428:main.c        ****  
 429:main.c        **** }
 1675              		.loc 1 429 0
 1676 015c 00BF     		nop
ARM GAS  C:\Users\riveraes\AppData\Local\Temp\cchOuINw.s 			page 39


 1677 015e 0837     		adds	r7, r7, #8
 1678              		.cfi_def_cfa_offset 8
 1679 0160 BD46     		mov	sp, r7
 1680              		.cfi_def_cfa_register 13
 1681              		@ sp needed
 1682 0162 80BD     		pop	{r7, pc}
 1683              	.L82:
 1684              		.align	2
 1685              	.L81:
 1686 0164 00000000 		.word	loFrequency
 1687 0168 00000000 		.word	hiFrequency
 1688 016c A8000000 		.word	.LC20
 1689 0170 B4000000 		.word	.LC21
 1690 0174 C0000000 		.word	.LC22
 1691 0178 CC000000 		.word	.LC23
 1692 017c D8000000 		.word	.LC24
 1693 0180 E4000000 		.word	.LC25
 1694 0184 F0000000 		.word	.LC26
 1695 0188 FC000000 		.word	.LC27
 1696 018c 08010000 		.word	.LC28
 1697 0190 14010000 		.word	.LC29
 1698 0194 20010000 		.word	.LC30
 1699 0198 2C010000 		.word	.LC31
 1700 019c 38010000 		.word	.LC32
 1701              		.cfi_endproc
 1702              	.LFE73:
 1703              		.size	DecodeInput, .-DecodeInput
 1704              		.text
 1705              	.Letext0:
 1706              		.file 2 "c:\\program files (x86)\\cypress\\psoc creator\\4.1\\psoc creator\\import\\gnu\\arm\\5.4.
 1707              		.file 3 "c:\\program files (x86)\\cypress\\psoc creator\\4.1\\psoc creator\\import\\gnu\\arm\\5.4.
 1708              		.file 4 "Generated_Source\\PSoC5/cytypes.h"
 1709              		.file 5 "Generated_Source\\PSoC5/core_cm3.h"