ARM GAS  C:\Users\riveraes\AppData\Local\Temp\ccjBcK2F.s 			page 1


   1              		.syntax unified
   2              		.cpu cortex-m3
   3              		.fpu softvfp
   4              		.eabi_attribute 20, 1
   5              		.eabi_attribute 21, 1
   6              		.eabi_attribute 23, 3
   7              		.eabi_attribute 24, 1
   8              		.eabi_attribute 25, 1
   9              		.eabi_attribute 26, 1
  10              		.eabi_attribute 30, 6
  11              		.eabi_attribute 34, 1
  12              		.eabi_attribute 18, 4
  13              		.thumb
  14              		.syntax unified
  15              		.file	"main.c"
  16              		.text
  17              	.Ltext0:
  18              		.cfi_sections	.debug_frame
  19              		.comm	TransmitBuffer,16,4
  20              		.comm	Output,2,2
  21              		.comm	array,1300,4
  22              		.global	loFrequency
  23              		.data
  24              		.align	2
  25              		.type	loFrequency, %object
  26              		.size	loFrequency, 20
  27              	loFrequency:
  28 0000 96000000 		.word	150
  29 0004 B9020000 		.word	697
  30 0008 02030000 		.word	770
  31 000c 54030000 		.word	852
  32 0010 AD030000 		.word	941
  33              		.global	hiFrequency
  34              		.align	2
  35              		.type	hiFrequency, %object
  36              		.size	hiFrequency, 16
  37              	hiFrequency:
  38 0014 96000000 		.word	150
  39 0018 B9040000 		.word	1209
  40 001c 38050000 		.word	1336
  41 0020 C5050000 		.word	1477
  42              		.global	currentState
  43              		.bss
  44              		.type	currentState, %object
  45              		.size	currentState, 1
  46              	currentState:
  47 0000 00       		.space	1
  48              		.comm	Ch,1,1
  49              		.global	counterEnable
  50              		.type	counterEnable, %object
  51              		.size	counterEnable, 1
  52              	counterEnable:
  53 0001 00       		.space	1
  54              		.global	counter
  55              		.type	counter, %object
  56              		.size	counter, 1
  57              	counter:
ARM GAS  C:\Users\riveraes\AppData\Local\Temp\ccjBcK2F.s 			page 2


  58 0002 00       		.space	1
  59              		.section	.text.SignalON,"ax",%progbits
  60              		.align	2
  61              		.global	SignalON
  62              		.thumb
  63              		.thumb_func
  64              		.type	SignalON, %function
  65              	SignalON:
  66              	.LFB64:
  67              		.file 1 "main.c"
   1:main.c        **** /******************************************************************************
   2:main.c        **** * Project Name		: DualToneMultiFrequency TX
   3:main.c        **** * File Name			: main.c
   4:main.c        **** *
   5:main.c        **** *******************************************************************************/
   6:main.c        **** 
   7:main.c        **** #include <device.h>
   8:main.c        **** #include "stdio.h"
   9:main.c        **** #include "math.h"
  10:main.c        **** 
  11:main.c        **** /* Project Defines */
  12:main.c        **** #define FALSE  0
  13:main.c        **** #define TRUE   1
  14:main.c        **** #define TRANSMIT_BUFFER_SIZE  16
  15:main.c        **** #define NUMBER_OF_SAMPLES 650
  16:main.c        **** #define SAMPLING_RATE 10000
  17:main.c        **** #define LOW_FREQ_DAC_NUMBER_OF_SAMPLES 200
  18:main.c        **** #define HIGH_FREQ_DAC_NUMBER_OF_SAMPLES 300
  19:main.c        **** #define MASTER_CLOCK_FREQUENCY 24000000
  20:main.c        **** #define LOW_FREQUENCIES_ANALIZED 5
  21:main.c        **** #define HIGH_FREQUENCIES_ANALIZED 4
  22:main.c        **** #define WAIT_CYCLES 13 // 5ms*13=65ms
  23:main.c        **** 
  24:main.c        **** // FSM
  25:main.c        **** #define STATE_INIT 0
  26:main.c        **** #define STATE_READ_INPUT 1
  27:main.c        **** #define STATE_WAIT_WITH_SIGNAL_ON 2
  28:main.c        **** #define STATE_WAIT_WITH_SIGNAL_OFF 3
  29:main.c        **** #define STATE_DISABLE_OUTPUT 4
  30:main.c        **** 
  31:main.c        **** /* Transmit Buffer */
  32:main.c        **** char TransmitBuffer[TRANSMIT_BUFFER_SIZE];
  33:main.c        **** // Variables to store ADC data
  34:main.c        **** uint16 Output;
  35:main.c        **** int16 array[NUMBER_OF_SAMPLES];
  36:main.c        **** // DualTone Frequencies
  37:main.c        **** int loFrequency[LOW_FREQUENCIES_ANALIZED] = {150, 697, 770, 852, 941};
  38:main.c        **** int hiFrequency[HIGH_FREQUENCIES_ANALIZED] = {150, 1209, 1336, 1477};
  39:main.c        **** // FSM
  40:main.c        **** uint8 currentState = 0;
  41:main.c        **** uint8 Ch;
  42:main.c        **** // Wait loop
  43:main.c        **** uint8 counterEnable = FALSE;
  44:main.c        **** uint8 counter = 0;
  45:main.c        **** 
  46:main.c        **** 
  47:main.c        **** // Function prototypes
ARM GAS  C:\Users\riveraes\AppData\Local\Temp\ccjBcK2F.s 			page 3


  48:main.c        **** void InitSettings(void);
  49:main.c        **** void SetHighFrequencyDacOutput(int OutputFrequency);
  50:main.c        **** void SetLowFrequencyDacOutput(int OutputFrequency);
  51:main.c        **** double Goertzel(int numSamples, int tFrequency, int tSamplingRate, double data[]);
  52:main.c        **** uint16 getMaxValue(double arrayData[], uint8 size);
  53:main.c        **** void DTMF(void);
  54:main.c        **** void DecodeInput(int loFrequency, int hiFrecuency);
  55:main.c        **** 
  56:main.c        **** 
  57:main.c        **** /*******************************************************************************
  58:main.c        **** * Interrupt routine
  59:main.c        **** *******************************************************************************/
  60:main.c        **** CY_ISR(SignalON)
  61:main.c        **** {
  68              		.loc 1 61 0
  69              		.cfi_startproc
  70              		@ args = 0, pretend = 0, frame = 0
  71              		@ frame_needed = 1, uses_anonymous_args = 0
  72              		@ link register save eliminated.
  73 0000 80B4     		push	{r7}
  74              		.cfi_def_cfa_offset 4
  75              		.cfi_offset 7, -4
  76 0002 00AF     		add	r7, sp, #0
  77              		.cfi_def_cfa_register 7
  62:main.c        ****     if (counterEnable == TRUE)
  78              		.loc 1 62 0
  79 0004 064B     		ldr	r3, .L4
  80 0006 1B78     		ldrb	r3, [r3]	@ zero_extendqisi2
  81 0008 012B     		cmp	r3, #1
  82 000a 05D1     		bne	.L3
  63:main.c        ****     {
  64:main.c        ****         counter++;
  83              		.loc 1 64 0
  84 000c 054B     		ldr	r3, .L4+4
  85 000e 1B78     		ldrb	r3, [r3]	@ zero_extendqisi2
  86 0010 0133     		adds	r3, r3, #1
  87 0012 DAB2     		uxtb	r2, r3
  88 0014 034B     		ldr	r3, .L4+4
  89 0016 1A70     		strb	r2, [r3]
  90              	.L3:
  65:main.c        ****     }
  66:main.c        **** }
  91              		.loc 1 66 0
  92 0018 00BF     		nop
  93 001a BD46     		mov	sp, r7
  94              		.cfi_def_cfa_register 13
  95              		@ sp needed
  96 001c 80BC     		pop	{r7}
  97              		.cfi_restore 7
  98              		.cfi_def_cfa_offset 0
  99 001e 7047     		bx	lr
 100              	.L5:
 101              		.align	2
 102              	.L4:
 103 0020 00000000 		.word	counterEnable
 104 0024 00000000 		.word	counter
 105              		.cfi_endproc
ARM GAS  C:\Users\riveraes\AppData\Local\Temp\ccjBcK2F.s 			page 4


 106              	.LFE64:
 107              		.size	SignalON, .-SignalON
 108              		.section	.rodata
 109              		.align	2
 110              	.LC0:
 111 0000 5458202D 		.ascii	"TX - Ready\015\012\000"
 111      20526561 
 111      64790D0A 
 111      00
 112 000d 000000   		.align	2
 113              	.LC1:
 114 0010 3000     		.ascii	"0\000"
 115 0012 0000     		.align	2
 116              	.LC2:
 117 0014 3100     		.ascii	"1\000"
 118 0016 0000     		.align	2
 119              	.LC3:
 120 0018 3200     		.ascii	"2\000"
 121 001a 0000     		.align	2
 122              	.LC4:
 123 001c 3300     		.ascii	"3\000"
 124 001e 0000     		.align	2
 125              	.LC5:
 126 0020 3400     		.ascii	"4\000"
 127 0022 0000     		.align	2
 128              	.LC6:
 129 0024 3500     		.ascii	"5\000"
 130 0026 0000     		.align	2
 131              	.LC7:
 132 0028 3600     		.ascii	"6\000"
 133 002a 0000     		.align	2
 134              	.LC8:
 135 002c 3700     		.ascii	"7\000"
 136 002e 0000     		.align	2
 137              	.LC9:
 138 0030 3800     		.ascii	"8\000"
 139 0032 0000     		.align	2
 140              	.LC10:
 141 0034 3900     		.ascii	"9\000"
 142 0036 0000     		.align	2
 143              	.LC11:
 144 0038 2A00     		.ascii	"*\000"
 145 003a 0000     		.align	2
 146              	.LC12:
 147 003c 2300     		.ascii	"#\000"
 148 003e 0000     		.align	2
 149              	.LC13:
 150 0040 2D2D2D2D 		.ascii	"-----> Samples Init\015\012\000"
 150      2D3E2053 
 150      616D706C 
 150      65732049 
 150      6E69740D 
 151 0056 0000     		.align	2
 152              	.LC14:
 153 0058 25640D0A 		.ascii	"%d\015\012\000"
 153      00
 154 005d 000000   		.align	2
ARM GAS  C:\Users\riveraes\AppData\Local\Temp\ccjBcK2F.s 			page 5


 155              	.LC15:
 156 0060 2D2D2D2D 		.ascii	"-----> Samples End\015\012\000"
 156      2D3E2053 
 156      616D706C 
 156      65732045 
 156      6E640D0A 
 157 0075 000000   		.align	2
 158              	.LC16:
 159 0078 44756D6D 		.ascii	"Dummy Frequency ...\015\012\000"
 159      79204672 
 159      65717565 
 159      6E637920 
 159      2E2E2E0D 
 160              		.section	.text.main,"ax",%progbits
 161              		.align	2
 162              		.global	main
 163              		.thumb
 164              		.thumb_func
 165              		.type	main, %function
 166              	main:
 167              	.LFB65:
  67:main.c        **** 
  68:main.c        **** 
  69:main.c        **** /*******************************************************************************
  70:main.c        **** * Function Name: main
  71:main.c        **** *******************************************************************************/
  72:main.c        **** int main()
  73:main.c        **** {
 168              		.loc 1 73 0
 169              		.cfi_startproc
 170              		@ args = 0, pretend = 0, frame = 8
 171              		@ frame_needed = 1, uses_anonymous_args = 0
 172 0000 80B5     		push	{r7, lr}
 173              		.cfi_def_cfa_offset 8
 174              		.cfi_offset 7, -8
 175              		.cfi_offset 14, -4
 176 0002 82B0     		sub	sp, sp, #8
 177              		.cfi_def_cfa_offset 16
 178 0004 00AF     		add	r7, sp, #0
 179              		.cfi_def_cfa_register 7
  74:main.c        ****     currentState = STATE_INIT;
 180              		.loc 1 74 0
 181 0006 CE4B     		ldr	r3, .L43
 182 0008 0022     		movs	r2, #0
 183 000a 1A70     		strb	r2, [r3]
 184              	.L42:
  75:main.c        ****     while(TRUE)
  76:main.c        ****     {
  77:main.c        ****         switch (currentState)
 185              		.loc 1 77 0
 186 000c CC4B     		ldr	r3, .L43
 187 000e 1B78     		ldrb	r3, [r3]	@ zero_extendqisi2
 188 0010 042B     		cmp	r3, #4
 189 0012 FBD8     		bhi	.L42
 190 0014 01A2     		adr	r2, .L9
 191 0016 52F823F0 		ldr	pc, [r2, r3, lsl #2]
 192 001a 00BF     		.p2align 2
ARM GAS  C:\Users\riveraes\AppData\Local\Temp\ccjBcK2F.s 			page 6


 193              	.L9:
 194 001c 31000000 		.word	.L8+1
 195 0020 5B000000 		.word	.L10+1
 196 0024 8D040000 		.word	.L11+1
 197 0028 D1040000 		.word	.L12+1
 198 002c B7040000 		.word	.L13+1
 199              		.p2align 1
 200              	.L8:
  78:main.c        ****         {    
  79:main.c        ****             //-----------------------------------------------------//
  80:main.c        ****             //-----------------------------------------------------//
  81:main.c        ****             case STATE_INIT:
  82:main.c        ****                 
  83:main.c        ****                 /* Start the components */
  84:main.c        ****                 ADC_DelSig_1_Start();
 201              		.loc 1 84 0
 202 0030 FFF7FEFF 		bl	ADC_DelSig_1_Start
  85:main.c        ****                 UART_1_Start();
 203              		.loc 1 85 0
 204 0034 FFF7FEFF 		bl	UART_1_Start
  86:main.c        ****                     
  87:main.c        ****                 /* Start the ADC conversion */
  88:main.c        ****                 ADC_DelSig_1_StartConvert();
 205              		.loc 1 88 0
 206 0038 FFF7FEFF 		bl	ADC_DelSig_1_StartConvert
  89:main.c        ****                 
  90:main.c        ****                 // Init Timer
  91:main.c        ****                 Timer_Start();
 207              		.loc 1 91 0
 208 003c FFF7FEFF 		bl	Timer_Start
  92:main.c        ****                 
  93:main.c        ****                 // Enable Interrupts
  94:main.c        ****                 isr_StartEx(SignalON);
 209              		.loc 1 94 0
 210 0040 C048     		ldr	r0, .L43+4
 211 0042 FFF7FEFF 		bl	isr_StartEx
  95:main.c        ****                 CyGlobalIntEnable;
 212              		.loc 1 95 0
 213              		.syntax unified
 214              	@ 95 "main.c" 1
 215 0046 62B6     		CPSIE   i
 216              	@ 0 "" 2
  96:main.c        ****                 
  97:main.c        ****                 // Init Settings
  98:main.c        ****                 // - Output dummy 4KHz sine wave
  99:main.c        ****                 // - Turn off blue LED
 100:main.c        ****                 InitSettings(); 
 217              		.loc 1 100 0
 218              		.thumb
 219              		.syntax unified
 220 0048 FFF7FEFF 		bl	InitSettings
 101:main.c        ****                 
 102:main.c        ****                 // Set state
 103:main.c        ****                 currentState = STATE_READ_INPUT;
 221              		.loc 1 103 0
 222 004c BC4B     		ldr	r3, .L43
 223 004e 0122     		movs	r2, #1
ARM GAS  C:\Users\riveraes\AppData\Local\Temp\ccjBcK2F.s 			page 7


 224 0050 1A70     		strb	r2, [r3]
 104:main.c        ****                 
 105:main.c        ****                 /* Send message to verify COM port is connected properly */
 106:main.c        ****                 UART_1_PutString("TX - Ready\r\n");
 225              		.loc 1 106 0
 226 0052 BD48     		ldr	r0, .L43+8
 227 0054 FFF7FEFF 		bl	UART_1_PutString
 107:main.c        ****                 
 108:main.c        ****             break;
 228              		.loc 1 108 0
 229 0058 4CE2     		b	.L7
 230              	.L10:
 109:main.c        ****                 
 110:main.c        ****             //-----------------------------------------------------//
 111:main.c        ****             //-----------------------------------------------------//
 112:main.c        ****             case STATE_READ_INPUT:
 113:main.c        **** 
 114:main.c        ****                 //Non-blocking call to get the latest data recieved  */
 115:main.c        ****                 Ch = UART_1_GetChar();
 231              		.loc 1 115 0
 232 005a FFF7FEFF 		bl	UART_1_GetChar
 233 005e 0346     		mov	r3, r0
 234 0060 1A46     		mov	r2, r3
 235 0062 BA4B     		ldr	r3, .L43+12
 236 0064 1A70     		strb	r2, [r3]
 116:main.c        ****                 
 117:main.c        ****                 /* Set flags based on UART command */
 118:main.c        ****                 switch(Ch)
 237              		.loc 1 118 0
 238 0066 B94B     		ldr	r3, .L43+12
 239 0068 1B78     		ldrb	r3, [r3]	@ zero_extendqisi2
 240 006a 233B     		subs	r3, r3, #35
 241 006c 552B     		cmp	r3, #85
 242 006e 00F20882 		bhi	.L14
 243 0072 01A2     		adr	r2, .L16
 244 0074 52F823F0 		ldr	pc, [r2, r3, lsl #2]
 245              		.p2align 2
 246              	.L16:
 247 0078 1B030000 		.word	.L15+1
 248 007c 83040000 		.word	.L14+1
 249 0080 83040000 		.word	.L14+1
 250 0084 83040000 		.word	.L14+1
 251 0088 83040000 		.word	.L14+1
 252 008c 83040000 		.word	.L14+1
 253 0090 83040000 		.word	.L14+1
 254 0094 FD020000 		.word	.L17+1
 255 0098 83040000 		.word	.L14+1
 256 009c 83040000 		.word	.L14+1
 257 00a0 83040000 		.word	.L14+1
 258 00a4 83040000 		.word	.L14+1
 259 00a8 83040000 		.word	.L14+1
 260 00ac D1010000 		.word	.L18+1
 261 00b0 EF010000 		.word	.L19+1
 262 00b4 0D020000 		.word	.L20+1
 263 00b8 2B020000 		.word	.L21+1
 264 00bc 49020000 		.word	.L22+1
 265 00c0 67020000 		.word	.L23+1
ARM GAS  C:\Users\riveraes\AppData\Local\Temp\ccjBcK2F.s 			page 8


 266 00c4 85020000 		.word	.L24+1
 267 00c8 A3020000 		.word	.L25+1
 268 00cc C1020000 		.word	.L26+1
 269 00d0 DF020000 		.word	.L27+1
 270 00d4 83040000 		.word	.L14+1
 271 00d8 83040000 		.word	.L14+1
 272 00dc 83040000 		.word	.L14+1
 273 00e0 83040000 		.word	.L14+1
 274 00e4 83040000 		.word	.L14+1
 275 00e8 83040000 		.word	.L14+1
 276 00ec 83040000 		.word	.L14+1
 277 00f0 83040000 		.word	.L14+1
 278 00f4 83040000 		.word	.L14+1
 279 00f8 83040000 		.word	.L14+1
 280 00fc 39030000 		.word	.L28+1
 281 0100 83040000 		.word	.L14+1
 282 0104 83040000 		.word	.L14+1
 283 0108 83040000 		.word	.L14+1
 284 010c 83040000 		.word	.L14+1
 285 0110 83040000 		.word	.L14+1
 286 0114 83040000 		.word	.L14+1
 287 0118 83040000 		.word	.L14+1
 288 011c 83040000 		.word	.L14+1
 289 0120 83040000 		.word	.L14+1
 290 0124 83040000 		.word	.L14+1
 291 0128 83040000 		.word	.L14+1
 292 012c 83040000 		.word	.L14+1
 293 0130 83040000 		.word	.L14+1
 294 0134 83040000 		.word	.L14+1
 295 0138 11040000 		.word	.L29+1
 296 013c 83040000 		.word	.L14+1
 297 0140 83040000 		.word	.L14+1
 298 0144 83040000 		.word	.L14+1
 299 0148 83040000 		.word	.L14+1
 300 014c 63040000 		.word	.L30+1
 301 0150 83040000 		.word	.L14+1
 302 0154 83040000 		.word	.L14+1
 303 0158 83040000 		.word	.L14+1
 304 015c 83040000 		.word	.L14+1
 305 0160 83040000 		.word	.L14+1
 306 0164 83040000 		.word	.L14+1
 307 0168 83040000 		.word	.L14+1
 308 016c 83040000 		.word	.L14+1
 309 0170 83040000 		.word	.L14+1
 310 0174 83040000 		.word	.L14+1
 311 0178 83040000 		.word	.L14+1
 312 017c 39030000 		.word	.L28+1
 313 0180 83040000 		.word	.L14+1
 314 0184 83040000 		.word	.L14+1
 315 0188 83040000 		.word	.L14+1
 316 018c 83040000 		.word	.L14+1
 317 0190 83040000 		.word	.L14+1
 318 0194 83040000 		.word	.L14+1
 319 0198 83040000 		.word	.L14+1
 320 019c 83040000 		.word	.L14+1
 321 01a0 83040000 		.word	.L14+1
 322 01a4 83040000 		.word	.L14+1
ARM GAS  C:\Users\riveraes\AppData\Local\Temp\ccjBcK2F.s 			page 9


 323 01a8 83040000 		.word	.L14+1
 324 01ac 83040000 		.word	.L14+1
 325 01b0 83040000 		.word	.L14+1
 326 01b4 83040000 		.word	.L14+1
 327 01b8 11040000 		.word	.L29+1
 328 01bc 83040000 		.word	.L14+1
 329 01c0 83040000 		.word	.L14+1
 330 01c4 83040000 		.word	.L14+1
 331 01c8 83040000 		.word	.L14+1
 332 01cc 63040000 		.word	.L30+1
 333              		.p2align 1
 334              	.L18:
 119:main.c        ****                 {
 120:main.c        ****                     case '0':
 121:main.c        ****                         UART_1_PutString("0");
 335              		.loc 1 121 0
 336 01d0 5F48     		ldr	r0, .L43+16
 337 01d2 FFF7FEFF 		bl	UART_1_PutString
 122:main.c        ****                         // Configure Output frequency
 123:main.c        ****                         SetLowFrequencyDacOutput(941);
 338              		.loc 1 123 0
 339 01d6 40F2AD30 		movw	r0, #941
 340 01da FFF7FEFF 		bl	SetLowFrequencyDacOutput
 124:main.c        ****                         SetHighFrequencyDacOutput(1336);                       
 341              		.loc 1 124 0
 342 01de 4FF4A760 		mov	r0, #1336
 343 01e2 FFF7FEFF 		bl	SetHighFrequencyDacOutput
 125:main.c        ****                         // Set next state
 126:main.c        ****                         currentState = STATE_WAIT_WITH_SIGNAL_ON;                        
 344              		.loc 1 126 0
 345 01e6 564B     		ldr	r3, .L43
 346 01e8 0222     		movs	r2, #2
 347 01ea 1A70     		strb	r2, [r3]
 127:main.c        ****                     break;
 348              		.loc 1 127 0
 349 01ec 4DE1     		b	.L31
 350              	.L19:
 128:main.c        ****                         
 129:main.c        ****                     case '1':
 130:main.c        ****                         UART_1_PutString("1");
 351              		.loc 1 130 0
 352 01ee 5948     		ldr	r0, .L43+20
 353 01f0 FFF7FEFF 		bl	UART_1_PutString
 131:main.c        ****                         // Configure Output frequency
 132:main.c        ****                         SetLowFrequencyDacOutput(697);
 354              		.loc 1 132 0
 355 01f4 40F2B920 		movw	r0, #697
 356 01f8 FFF7FEFF 		bl	SetLowFrequencyDacOutput
 133:main.c        ****                         SetHighFrequencyDacOutput(1209);
 357              		.loc 1 133 0
 358 01fc 40F2B940 		movw	r0, #1209
 359 0200 FFF7FEFF 		bl	SetHighFrequencyDacOutput
 134:main.c        ****                         // Set next state
 135:main.c        ****                         currentState = STATE_WAIT_WITH_SIGNAL_ON;
 360              		.loc 1 135 0
 361 0204 4E4B     		ldr	r3, .L43
 362 0206 0222     		movs	r2, #2
ARM GAS  C:\Users\riveraes\AppData\Local\Temp\ccjBcK2F.s 			page 10


 363 0208 1A70     		strb	r2, [r3]
 136:main.c        ****                     break;
 364              		.loc 1 136 0
 365 020a 3EE1     		b	.L31
 366              	.L20:
 137:main.c        ****                         
 138:main.c        ****                     case '2':
 139:main.c        ****                         UART_1_PutString("2");
 367              		.loc 1 139 0
 368 020c 5248     		ldr	r0, .L43+24
 369 020e FFF7FEFF 		bl	UART_1_PutString
 140:main.c        ****                         // Configure Output frequency
 141:main.c        ****                         SetLowFrequencyDacOutput(697);
 370              		.loc 1 141 0
 371 0212 40F2B920 		movw	r0, #697
 372 0216 FFF7FEFF 		bl	SetLowFrequencyDacOutput
 142:main.c        ****                         SetHighFrequencyDacOutput(1336);
 373              		.loc 1 142 0
 374 021a 4FF4A760 		mov	r0, #1336
 375 021e FFF7FEFF 		bl	SetHighFrequencyDacOutput
 143:main.c        ****                         // Set next state
 144:main.c        ****                         currentState = STATE_WAIT_WITH_SIGNAL_ON;
 376              		.loc 1 144 0
 377 0222 474B     		ldr	r3, .L43
 378 0224 0222     		movs	r2, #2
 379 0226 1A70     		strb	r2, [r3]
 145:main.c        ****                     break;
 380              		.loc 1 145 0
 381 0228 2FE1     		b	.L31
 382              	.L21:
 146:main.c        ****                         
 147:main.c        ****                     case '3':
 148:main.c        ****                         UART_1_PutString("3");
 383              		.loc 1 148 0
 384 022a 4C48     		ldr	r0, .L43+28
 385 022c FFF7FEFF 		bl	UART_1_PutString
 149:main.c        ****                         // Configure Output frequency
 150:main.c        ****                         SetLowFrequencyDacOutput(697);
 386              		.loc 1 150 0
 387 0230 40F2B920 		movw	r0, #697
 388 0234 FFF7FEFF 		bl	SetLowFrequencyDacOutput
 151:main.c        ****                         SetHighFrequencyDacOutput(1477);
 389              		.loc 1 151 0
 390 0238 40F2C550 		movw	r0, #1477
 391 023c FFF7FEFF 		bl	SetHighFrequencyDacOutput
 152:main.c        ****                         // Set next state
 153:main.c        ****                         currentState = STATE_WAIT_WITH_SIGNAL_ON;
 392              		.loc 1 153 0
 393 0240 3F4B     		ldr	r3, .L43
 394 0242 0222     		movs	r2, #2
 395 0244 1A70     		strb	r2, [r3]
 154:main.c        ****                     break;
 396              		.loc 1 154 0
 397 0246 20E1     		b	.L31
 398              	.L22:
 155:main.c        ****                         
 156:main.c        ****                     case '4':
ARM GAS  C:\Users\riveraes\AppData\Local\Temp\ccjBcK2F.s 			page 11


 157:main.c        ****                         UART_1_PutString("4");
 399              		.loc 1 157 0
 400 0248 4548     		ldr	r0, .L43+32
 401 024a FFF7FEFF 		bl	UART_1_PutString
 158:main.c        ****                         // Configure Output frequency
 159:main.c        ****                         SetLowFrequencyDacOutput(770);
 402              		.loc 1 159 0
 403 024e 40F20230 		movw	r0, #770
 404 0252 FFF7FEFF 		bl	SetLowFrequencyDacOutput
 160:main.c        ****                         SetHighFrequencyDacOutput(1209);
 405              		.loc 1 160 0
 406 0256 40F2B940 		movw	r0, #1209
 407 025a FFF7FEFF 		bl	SetHighFrequencyDacOutput
 161:main.c        ****                         // Set next state
 162:main.c        ****                         currentState = STATE_WAIT_WITH_SIGNAL_ON;
 408              		.loc 1 162 0
 409 025e 384B     		ldr	r3, .L43
 410 0260 0222     		movs	r2, #2
 411 0262 1A70     		strb	r2, [r3]
 163:main.c        ****                     break;
 412              		.loc 1 163 0
 413 0264 11E1     		b	.L31
 414              	.L23:
 164:main.c        ****                         
 165:main.c        ****                     case '5':
 166:main.c        ****                         UART_1_PutString("5");
 415              		.loc 1 166 0
 416 0266 3F48     		ldr	r0, .L43+36
 417 0268 FFF7FEFF 		bl	UART_1_PutString
 167:main.c        ****                         // Configure Output frequency
 168:main.c        ****                         SetLowFrequencyDacOutput(770);
 418              		.loc 1 168 0
 419 026c 40F20230 		movw	r0, #770
 420 0270 FFF7FEFF 		bl	SetLowFrequencyDacOutput
 169:main.c        ****                         SetHighFrequencyDacOutput(1336);
 421              		.loc 1 169 0
 422 0274 4FF4A760 		mov	r0, #1336
 423 0278 FFF7FEFF 		bl	SetHighFrequencyDacOutput
 170:main.c        ****                         // Set next state
 171:main.c        ****                         currentState = STATE_WAIT_WITH_SIGNAL_ON;
 424              		.loc 1 171 0
 425 027c 304B     		ldr	r3, .L43
 426 027e 0222     		movs	r2, #2
 427 0280 1A70     		strb	r2, [r3]
 172:main.c        ****                     break;
 428              		.loc 1 172 0
 429 0282 02E1     		b	.L31
 430              	.L24:
 173:main.c        ****                         
 174:main.c        ****                     case '6':
 175:main.c        ****                         UART_1_PutString("6");
 431              		.loc 1 175 0
 432 0284 3848     		ldr	r0, .L43+40
 433 0286 FFF7FEFF 		bl	UART_1_PutString
 176:main.c        ****                         // Configure Output frequency
 177:main.c        ****                         SetLowFrequencyDacOutput(770);
 434              		.loc 1 177 0
ARM GAS  C:\Users\riveraes\AppData\Local\Temp\ccjBcK2F.s 			page 12


 435 028a 40F20230 		movw	r0, #770
 436 028e FFF7FEFF 		bl	SetLowFrequencyDacOutput
 178:main.c        ****                         SetHighFrequencyDacOutput(1477);
 437              		.loc 1 178 0
 438 0292 40F2C550 		movw	r0, #1477
 439 0296 FFF7FEFF 		bl	SetHighFrequencyDacOutput
 179:main.c        ****                         // Set next state
 180:main.c        ****                         currentState = STATE_WAIT_WITH_SIGNAL_ON;
 440              		.loc 1 180 0
 441 029a 294B     		ldr	r3, .L43
 442 029c 0222     		movs	r2, #2
 443 029e 1A70     		strb	r2, [r3]
 181:main.c        ****                     break;
 444              		.loc 1 181 0
 445 02a0 F3E0     		b	.L31
 446              	.L25:
 182:main.c        ****                         
 183:main.c        ****                     case '7':
 184:main.c        ****                         UART_1_PutString("7");
 447              		.loc 1 184 0
 448 02a2 3248     		ldr	r0, .L43+44
 449 02a4 FFF7FEFF 		bl	UART_1_PutString
 185:main.c        ****                         // Configure Output frequency
 186:main.c        ****                         SetLowFrequencyDacOutput(852);
 450              		.loc 1 186 0
 451 02a8 4FF45570 		mov	r0, #852
 452 02ac FFF7FEFF 		bl	SetLowFrequencyDacOutput
 187:main.c        ****                         SetHighFrequencyDacOutput(1209);
 453              		.loc 1 187 0
 454 02b0 40F2B940 		movw	r0, #1209
 455 02b4 FFF7FEFF 		bl	SetHighFrequencyDacOutput
 188:main.c        ****                         // Set next state
 189:main.c        ****                         currentState = STATE_WAIT_WITH_SIGNAL_ON;
 456              		.loc 1 189 0
 457 02b8 214B     		ldr	r3, .L43
 458 02ba 0222     		movs	r2, #2
 459 02bc 1A70     		strb	r2, [r3]
 190:main.c        ****                     break;
 460              		.loc 1 190 0
 461 02be E4E0     		b	.L31
 462              	.L26:
 191:main.c        ****                         
 192:main.c        ****                     case '8':
 193:main.c        ****                         UART_1_PutString("8");
 463              		.loc 1 193 0
 464 02c0 2B48     		ldr	r0, .L43+48
 465 02c2 FFF7FEFF 		bl	UART_1_PutString
 194:main.c        ****                         // Configure Output frequency
 195:main.c        ****                         SetLowFrequencyDacOutput(852);
 466              		.loc 1 195 0
 467 02c6 4FF45570 		mov	r0, #852
 468 02ca FFF7FEFF 		bl	SetLowFrequencyDacOutput
 196:main.c        ****                         SetHighFrequencyDacOutput(1336);
 469              		.loc 1 196 0
 470 02ce 4FF4A760 		mov	r0, #1336
 471 02d2 FFF7FEFF 		bl	SetHighFrequencyDacOutput
 197:main.c        ****                         // Set next state
ARM GAS  C:\Users\riveraes\AppData\Local\Temp\ccjBcK2F.s 			page 13


 198:main.c        ****                         currentState = STATE_WAIT_WITH_SIGNAL_ON;
 472              		.loc 1 198 0
 473 02d6 1A4B     		ldr	r3, .L43
 474 02d8 0222     		movs	r2, #2
 475 02da 1A70     		strb	r2, [r3]
 199:main.c        ****                     break;
 476              		.loc 1 199 0
 477 02dc D5E0     		b	.L31
 478              	.L27:
 200:main.c        ****                         
 201:main.c        ****                     case '9':
 202:main.c        ****                         UART_1_PutString("9");
 479              		.loc 1 202 0
 480 02de 2548     		ldr	r0, .L43+52
 481 02e0 FFF7FEFF 		bl	UART_1_PutString
 203:main.c        ****                         // Configure Output frequency
 204:main.c        ****                         SetLowFrequencyDacOutput(852);
 482              		.loc 1 204 0
 483 02e4 4FF45570 		mov	r0, #852
 484 02e8 FFF7FEFF 		bl	SetLowFrequencyDacOutput
 205:main.c        ****                         SetHighFrequencyDacOutput(1477);
 485              		.loc 1 205 0
 486 02ec 40F2C550 		movw	r0, #1477
 487 02f0 FFF7FEFF 		bl	SetHighFrequencyDacOutput
 206:main.c        ****                         // Set next state
 207:main.c        ****                         currentState = STATE_WAIT_WITH_SIGNAL_ON;
 488              		.loc 1 207 0
 489 02f4 124B     		ldr	r3, .L43
 490 02f6 0222     		movs	r2, #2
 491 02f8 1A70     		strb	r2, [r3]
 208:main.c        ****                     break;
 492              		.loc 1 208 0
 493 02fa C6E0     		b	.L31
 494              	.L17:
 209:main.c        ****                         
 210:main.c        ****                     case '*':
 211:main.c        ****                         UART_1_PutString("*");
 495              		.loc 1 211 0
 496 02fc 1E48     		ldr	r0, .L43+56
 497 02fe FFF7FEFF 		bl	UART_1_PutString
 212:main.c        ****                         // Configure Output frequency
 213:main.c        ****                         SetLowFrequencyDacOutput(941);
 498              		.loc 1 213 0
 499 0302 40F2AD30 		movw	r0, #941
 500 0306 FFF7FEFF 		bl	SetLowFrequencyDacOutput
 214:main.c        ****                         SetHighFrequencyDacOutput(1209);
 501              		.loc 1 214 0
 502 030a 40F2B940 		movw	r0, #1209
 503 030e FFF7FEFF 		bl	SetHighFrequencyDacOutput
 215:main.c        ****                         // Set next state
 216:main.c        ****                         currentState = STATE_WAIT_WITH_SIGNAL_ON;
 504              		.loc 1 216 0
 505 0312 0B4B     		ldr	r3, .L43
 506 0314 0222     		movs	r2, #2
 507 0316 1A70     		strb	r2, [r3]
 217:main.c        ****                     break;
 508              		.loc 1 217 0
ARM GAS  C:\Users\riveraes\AppData\Local\Temp\ccjBcK2F.s 			page 14


 509 0318 B7E0     		b	.L31
 510              	.L15:
 218:main.c        ****                         
 219:main.c        ****                     case '#':
 220:main.c        ****                         UART_1_PutString("#");
 511              		.loc 1 220 0
 512 031a 1848     		ldr	r0, .L43+60
 513 031c FFF7FEFF 		bl	UART_1_PutString
 221:main.c        ****                         // Configure Output frequency
 222:main.c        ****                         SetLowFrequencyDacOutput(941);
 514              		.loc 1 222 0
 515 0320 40F2AD30 		movw	r0, #941
 516 0324 FFF7FEFF 		bl	SetLowFrequencyDacOutput
 223:main.c        ****                         SetHighFrequencyDacOutput(1477);
 517              		.loc 1 223 0
 518 0328 40F2C550 		movw	r0, #1477
 519 032c FFF7FEFF 		bl	SetHighFrequencyDacOutput
 224:main.c        ****                         // Set next state
 225:main.c        ****                         currentState = STATE_WAIT_WITH_SIGNAL_ON;
 520              		.loc 1 225 0
 521 0330 034B     		ldr	r3, .L43
 522 0332 0222     		movs	r2, #2
 523 0334 1A70     		strb	r2, [r3]
 226:main.c        ****                     
 227:main.c        ****                     break;
 524              		.loc 1 227 0
 525 0336 A8E0     		b	.L31
 526              	.L28:
 527              	.LBB2:
 228:main.c        ****                     
 229:main.c        ****                     case 'D':
 230:main.c        ****                     case 'd':
 231:main.c        ****                         //Get Samples
 232:main.c        ****                         for (int16 sampleNumber = 0; sampleNumber < NUMBER_OF_SAMPLES; sampleNumber
 528              		.loc 1 232 0
 529 0338 0023     		movs	r3, #0
 530 033a FB80     		strh	r3, [r7, #6]	@ movhi
 531 033c 3AE0     		b	.L32
 532              	.L44:
 533 033e 00BF     		.align	2
 534              	.L43:
 535 0340 00000000 		.word	currentState
 536 0344 00000000 		.word	SignalON
 537 0348 00000000 		.word	.LC0
 538 034c 00000000 		.word	Ch
 539 0350 10000000 		.word	.LC1
 540 0354 14000000 		.word	.LC2
 541 0358 18000000 		.word	.LC3
 542 035c 1C000000 		.word	.LC4
 543 0360 20000000 		.word	.LC5
 544 0364 24000000 		.word	.LC6
 545 0368 28000000 		.word	.LC7
 546 036c 2C000000 		.word	.LC8
 547 0370 30000000 		.word	.LC9
 548 0374 34000000 		.word	.LC10
 549 0378 38000000 		.word	.LC11
 550 037c 3C000000 		.word	.LC12
ARM GAS  C:\Users\riveraes\AppData\Local\Temp\ccjBcK2F.s 			page 15


 551              	.L34:
 233:main.c        ****                         {                 
 234:main.c        ****                             /* Check to see if an ADC conversion has completed */
 235:main.c        ****                             if(ADC_DelSig_1_IsEndConversion(ADC_DelSig_1_RETURN_STATUS))
 552              		.loc 1 235 0
 553 0380 0120     		movs	r0, #1
 554 0382 FFF7FEFF 		bl	ADC_DelSig_1_IsEndConversion
 555 0386 0346     		mov	r3, r0
 556 0388 002B     		cmp	r3, #0
 557 038a 13D0     		beq	.L32
 236:main.c        ****                             {
 237:main.c        ****                                 Output = ADC_DelSig_1_GetResult16();
 558              		.loc 1 237 0
 559 038c FFF7FEFF 		bl	ADC_DelSig_1_GetResult16
 560 0390 0346     		mov	r3, r0
 561 0392 9AB2     		uxth	r2, r3
 562 0394 584B     		ldr	r3, .L45
 563 0396 1A80     		strh	r2, [r3]	@ movhi
 238:main.c        ****                                 array[sampleNumber] = Output;                       
 564              		.loc 1 238 0
 565 0398 B7F90630 		ldrsh	r3, [r7, #6]
 566 039c 564A     		ldr	r2, .L45
 567 039e 1288     		ldrh	r2, [r2]
 568 03a0 11B2     		sxth	r1, r2
 569 03a2 564A     		ldr	r2, .L45+4
 570 03a4 22F81310 		strh	r1, [r2, r3, lsl #1]	@ movhi
 239:main.c        ****                                 sampleNumber ++;
 571              		.loc 1 239 0
 572 03a8 B7F90630 		ldrsh	r3, [r7, #6]
 573 03ac 9BB2     		uxth	r3, r3
 574 03ae 0133     		adds	r3, r3, #1
 575 03b0 9BB2     		uxth	r3, r3
 576 03b2 FB80     		strh	r3, [r7, #6]	@ movhi
 577              	.L32:
 232:main.c        ****                         {                 
 578              		.loc 1 232 0 discriminator 1
 579 03b4 B7F90630 		ldrsh	r3, [r7, #6]
 580 03b8 40F28922 		movw	r2, #649
 581 03bc 9342     		cmp	r3, r2
 582 03be DFDD     		ble	.L34
 583              	.LBE2:
 240:main.c        ****                             }
 241:main.c        ****                         }
 242:main.c        ****                         
 243:main.c        ****                         // Print samples
 244:main.c        ****                         UART_1_PutString("-----> Samples Init\r\n");
 584              		.loc 1 244 0
 585 03c0 4F48     		ldr	r0, .L45+8
 586 03c2 FFF7FEFF 		bl	UART_1_PutString
 587              	.LBB3:
 245:main.c        ****                         for (int16 sampleNumber = 0; sampleNumber < NUMBER_OF_SAMPLES; sampleNumber
 588              		.loc 1 245 0
 589 03c6 0023     		movs	r3, #0
 590 03c8 BB80     		strh	r3, [r7, #4]	@ movhi
 591 03ca 12E0     		b	.L35
 592              	.L36:
 246:main.c        ****                         {
ARM GAS  C:\Users\riveraes\AppData\Local\Temp\ccjBcK2F.s 			page 16


 247:main.c        ****                             sprintf(TransmitBuffer, "%d\r\n", array[sampleNumber]);
 593              		.loc 1 247 0 discriminator 3
 594 03cc B7F90430 		ldrsh	r3, [r7, #4]
 595 03d0 4A4A     		ldr	r2, .L45+4
 596 03d2 32F91330 		ldrsh	r3, [r2, r3, lsl #1]
 597 03d6 1A46     		mov	r2, r3
 598 03d8 4A49     		ldr	r1, .L45+12
 599 03da 4B48     		ldr	r0, .L45+16
 600 03dc FFF7FEFF 		bl	sprintf
 248:main.c        ****                             UART_1_PutString(TransmitBuffer);
 601              		.loc 1 248 0 discriminator 3
 602 03e0 4948     		ldr	r0, .L45+16
 603 03e2 FFF7FEFF 		bl	UART_1_PutString
 245:main.c        ****                         for (int16 sampleNumber = 0; sampleNumber < NUMBER_OF_SAMPLES; sampleNumber
 604              		.loc 1 245 0 discriminator 3
 605 03e6 B7F90430 		ldrsh	r3, [r7, #4]
 606 03ea 9BB2     		uxth	r3, r3
 607 03ec 0133     		adds	r3, r3, #1
 608 03ee 9BB2     		uxth	r3, r3
 609 03f0 BB80     		strh	r3, [r7, #4]	@ movhi
 610              	.L35:
 245:main.c        ****                         for (int16 sampleNumber = 0; sampleNumber < NUMBER_OF_SAMPLES; sampleNumber
 611              		.loc 1 245 0 is_stmt 0 discriminator 1
 612 03f2 B7F90430 		ldrsh	r3, [r7, #4]
 613 03f6 40F28922 		movw	r2, #649
 614 03fa 9342     		cmp	r3, r2
 615 03fc E6DD     		ble	.L36
 616              	.LBE3:
 249:main.c        ****                         }
 250:main.c        ****                         UART_1_PutString("-----> Samples End\r\n");
 617              		.loc 1 250 0 is_stmt 1
 618 03fe 4348     		ldr	r0, .L45+20
 619 0400 FFF7FEFF 		bl	UART_1_PutString
 251:main.c        ****                         
 252:main.c        ****                         // Decode data              
 253:main.c        ****                         DTMF(); 
 620              		.loc 1 253 0
 621 0404 FFF7FEFF 		bl	DTMF
 254:main.c        ****                         
 255:main.c        ****                         // Set next state
 256:main.c        ****                         currentState = STATE_READ_INPUT;
 622              		.loc 1 256 0
 623 0408 414B     		ldr	r3, .L45+24
 624 040a 0122     		movs	r2, #1
 625 040c 1A70     		strb	r2, [r3]
 257:main.c        ****                     break;
 626              		.loc 1 257 0
 627 040e 3CE0     		b	.L31
 628              	.L29:
 629              	.LBB4:
 258:main.c        ****                         
 259:main.c        ****                     case 'S':
 260:main.c        ****                     case 's':
 261:main.c        ****                         //Get Samples
 262:main.c        ****                         for (int16 sampleNumber = 0; sampleNumber < NUMBER_OF_SAMPLES; sampleNumber
 630              		.loc 1 262 0
 631 0410 0023     		movs	r3, #0
ARM GAS  C:\Users\riveraes\AppData\Local\Temp\ccjBcK2F.s 			page 17


 632 0412 7B80     		strh	r3, [r7, #2]	@ movhi
 633 0414 19E0     		b	.L37
 634              	.L39:
 263:main.c        ****                         {                 
 264:main.c        ****                             /* Check to see if an ADC conversion has completed */
 265:main.c        ****                             if(ADC_DelSig_1_IsEndConversion(ADC_DelSig_1_RETURN_STATUS))
 635              		.loc 1 265 0
 636 0416 0120     		movs	r0, #1
 637 0418 FFF7FEFF 		bl	ADC_DelSig_1_IsEndConversion
 638 041c 0346     		mov	r3, r0
 639 041e 002B     		cmp	r3, #0
 640 0420 13D0     		beq	.L37
 266:main.c        ****                             {
 267:main.c        ****                                 Output = ADC_DelSig_1_GetResult16();
 641              		.loc 1 267 0
 642 0422 FFF7FEFF 		bl	ADC_DelSig_1_GetResult16
 643 0426 0346     		mov	r3, r0
 644 0428 9AB2     		uxth	r2, r3
 645 042a 334B     		ldr	r3, .L45
 646 042c 1A80     		strh	r2, [r3]	@ movhi
 268:main.c        ****                                 array[sampleNumber] = Output;                       
 647              		.loc 1 268 0
 648 042e B7F90230 		ldrsh	r3, [r7, #2]
 649 0432 314A     		ldr	r2, .L45
 650 0434 1288     		ldrh	r2, [r2]
 651 0436 11B2     		sxth	r1, r2
 652 0438 304A     		ldr	r2, .L45+4
 653 043a 22F81310 		strh	r1, [r2, r3, lsl #1]	@ movhi
 269:main.c        ****                                 sampleNumber ++;
 654              		.loc 1 269 0
 655 043e B7F90230 		ldrsh	r3, [r7, #2]
 656 0442 9BB2     		uxth	r3, r3
 657 0444 0133     		adds	r3, r3, #1
 658 0446 9BB2     		uxth	r3, r3
 659 0448 7B80     		strh	r3, [r7, #2]	@ movhi
 660              	.L37:
 262:main.c        ****                         {                 
 661              		.loc 1 262 0 discriminator 1
 662 044a B7F90230 		ldrsh	r3, [r7, #2]
 663 044e 40F28922 		movw	r2, #649
 664 0452 9342     		cmp	r3, r2
 665 0454 DFDD     		ble	.L39
 666              	.LBE4:
 270:main.c        ****                             }
 271:main.c        ****                         }
 272:main.c        ****                         
 273:main.c        ****                         // Decode data              
 274:main.c        ****                         DTMF(); 
 667              		.loc 1 274 0
 668 0456 FFF7FEFF 		bl	DTMF
 275:main.c        ****                         
 276:main.c        ****                         // Set next state
 277:main.c        ****                         currentState = STATE_READ_INPUT;
 669              		.loc 1 277 0
 670 045a 2D4B     		ldr	r3, .L45+24
 671 045c 0122     		movs	r2, #1
 672 045e 1A70     		strb	r2, [r3]
ARM GAS  C:\Users\riveraes\AppData\Local\Temp\ccjBcK2F.s 			page 18


 278:main.c        ****                         
 279:main.c        ****                     break;
 673              		.loc 1 279 0
 674 0460 13E0     		b	.L31
 675              	.L30:
 280:main.c        ****                     
 281:main.c        ****                     case 'X':    
 282:main.c        ****                     case 'x':
 283:main.c        ****                         UART_1_PutString("Dummy Frequency ...\r\n");  
 676              		.loc 1 283 0
 677 0462 2C48     		ldr	r0, .L45+28
 678 0464 FFF7FEFF 		bl	UART_1_PutString
 284:main.c        ****                         // Configure Output frequency
 285:main.c        ****                         SetLowFrequencyDacOutput(150);
 679              		.loc 1 285 0
 680 0468 9620     		movs	r0, #150
 681 046a FFF7FEFF 		bl	SetLowFrequencyDacOutput
 286:main.c        ****                         SetHighFrequencyDacOutput(150);
 682              		.loc 1 286 0
 683 046e 9620     		movs	r0, #150
 684 0470 FFF7FEFF 		bl	SetHighFrequencyDacOutput
 287:main.c        ****                         // Turn Off blue LED
 288:main.c        ****                         Blue_LED_Write(0);
 685              		.loc 1 288 0
 686 0474 0020     		movs	r0, #0
 687 0476 FFF7FEFF 		bl	Blue_LED_Write
 289:main.c        ****                         // Set next state
 290:main.c        ****                         currentState = STATE_READ_INPUT;
 688              		.loc 1 290 0
 689 047a 254B     		ldr	r3, .L45+24
 690 047c 0122     		movs	r2, #1
 691 047e 1A70     		strb	r2, [r3]
 291:main.c        ****                     break;
 692              		.loc 1 291 0
 693 0480 03E0     		b	.L31
 694              	.L14:
 292:main.c        ****                         
 293:main.c        ****                     default:
 294:main.c        ****                         /* Place error handling code here */
 295:main.c        ****                         currentState = STATE_READ_INPUT;
 695              		.loc 1 295 0
 696 0482 234B     		ldr	r3, .L45+24
 697 0484 0122     		movs	r2, #1
 698 0486 1A70     		strb	r2, [r3]
 296:main.c        ****                     break;    
 699              		.loc 1 296 0
 700 0488 00BF     		nop
 701              	.L31:
 297:main.c        ****                 }
 298:main.c        ****                 
 299:main.c        ****             break;
 702              		.loc 1 299 0
 703 048a 33E0     		b	.L7
 704              	.L11:
 300:main.c        ****             
 301:main.c        ****             //-----------------------------------------------------//
 302:main.c        ****             //-----------------------------------------------------//
ARM GAS  C:\Users\riveraes\AppData\Local\Temp\ccjBcK2F.s 			page 19


 303:main.c        ****             case STATE_WAIT_WITH_SIGNAL_ON:
 304:main.c        ****                 // Turn on BLUE LED
 305:main.c        ****                 Blue_LED_Write(1);
 705              		.loc 1 305 0
 706 048c 0120     		movs	r0, #1
 707 048e FFF7FEFF 		bl	Blue_LED_Write
 306:main.c        ****                 
 307:main.c        ****                 counterEnable = TRUE;
 708              		.loc 1 307 0
 709 0492 214B     		ldr	r3, .L45+32
 710 0494 0122     		movs	r2, #1
 711 0496 1A70     		strb	r2, [r3]
 308:main.c        ****                 while (counter < WAIT_CYCLES)
 712              		.loc 1 308 0
 713 0498 00BF     		nop
 714              	.L40:
 715              		.loc 1 308 0 is_stmt 0 discriminator 1
 716 049a 204B     		ldr	r3, .L45+36
 717 049c 1B78     		ldrb	r3, [r3]	@ zero_extendqisi2
 718 049e 0C2B     		cmp	r3, #12
 719 04a0 FBD9     		bls	.L40
 309:main.c        ****                 {
 310:main.c        ****                     // Wait here to prevent new input commands
 311:main.c        ****                 }
 312:main.c        ****                 
 313:main.c        ****                 // Restart counter variables
 314:main.c        ****                 counterEnable = FALSE;
 720              		.loc 1 314 0 is_stmt 1
 721 04a2 1D4B     		ldr	r3, .L45+32
 722 04a4 0022     		movs	r2, #0
 723 04a6 1A70     		strb	r2, [r3]
 315:main.c        ****                 counter = 0;
 724              		.loc 1 315 0
 725 04a8 1C4B     		ldr	r3, .L45+36
 726 04aa 0022     		movs	r2, #0
 727 04ac 1A70     		strb	r2, [r3]
 316:main.c        ****                 
 317:main.c        ****                 // Set next state
 318:main.c        ****                 currentState = STATE_DISABLE_OUTPUT;
 728              		.loc 1 318 0
 729 04ae 184B     		ldr	r3, .L45+24
 730 04b0 0422     		movs	r2, #4
 731 04b2 1A70     		strb	r2, [r3]
 319:main.c        ****                 
 320:main.c        ****             break;
 732              		.loc 1 320 0
 733 04b4 1EE0     		b	.L7
 734              	.L13:
 321:main.c        ****             
 322:main.c        ****             //-----------------------------------------------------//
 323:main.c        ****             //-----------------------------------------------------//
 324:main.c        ****             case STATE_DISABLE_OUTPUT:
 325:main.c        ****                 
 326:main.c        ****                 // Configure Output frequency
 327:main.c        ****                 SetLowFrequencyDacOutput(150);
 735              		.loc 1 327 0
 736 04b6 9620     		movs	r0, #150
ARM GAS  C:\Users\riveraes\AppData\Local\Temp\ccjBcK2F.s 			page 20


 737 04b8 FFF7FEFF 		bl	SetLowFrequencyDacOutput
 328:main.c        ****                 SetHighFrequencyDacOutput(150);
 738              		.loc 1 328 0
 739 04bc 9620     		movs	r0, #150
 740 04be FFF7FEFF 		bl	SetHighFrequencyDacOutput
 329:main.c        ****                 // Turn Off blue LED
 330:main.c        ****                 Blue_LED_Write(0);               
 741              		.loc 1 330 0
 742 04c2 0020     		movs	r0, #0
 743 04c4 FFF7FEFF 		bl	Blue_LED_Write
 331:main.c        ****                 
 332:main.c        ****                 // Set next state
 333:main.c        ****                 currentState = STATE_WAIT_WITH_SIGNAL_OFF;
 744              		.loc 1 333 0
 745 04c8 114B     		ldr	r3, .L45+24
 746 04ca 0322     		movs	r2, #3
 747 04cc 1A70     		strb	r2, [r3]
 334:main.c        ****                 
 335:main.c        ****             break;
 748              		.loc 1 335 0
 749 04ce 11E0     		b	.L7
 750              	.L12:
 336:main.c        ****             
 337:main.c        ****             //-----------------------------------------------------//
 338:main.c        ****             //-----------------------------------------------------//
 339:main.c        ****             case STATE_WAIT_WITH_SIGNAL_OFF:
 340:main.c        ****                 
 341:main.c        ****                 counterEnable = TRUE;
 751              		.loc 1 341 0
 752 04d0 114B     		ldr	r3, .L45+32
 753 04d2 0122     		movs	r2, #1
 754 04d4 1A70     		strb	r2, [r3]
 342:main.c        ****                 while (counter < WAIT_CYCLES)
 755              		.loc 1 342 0
 756 04d6 00BF     		nop
 757              	.L41:
 758              		.loc 1 342 0 is_stmt 0 discriminator 1
 759 04d8 104B     		ldr	r3, .L45+36
 760 04da 1B78     		ldrb	r3, [r3]	@ zero_extendqisi2
 761 04dc 0C2B     		cmp	r3, #12
 762 04de FBD9     		bls	.L41
 343:main.c        ****                 {
 344:main.c        ****                     // Wait here to prevent new input commands
 345:main.c        ****                 }
 346:main.c        ****                 
 347:main.c        ****                 // Restart counter variables
 348:main.c        ****                 counterEnable = FALSE;
 763              		.loc 1 348 0 is_stmt 1
 764 04e0 0D4B     		ldr	r3, .L45+32
 765 04e2 0022     		movs	r2, #0
 766 04e4 1A70     		strb	r2, [r3]
 349:main.c        ****                 counter = 0;
 767              		.loc 1 349 0
 768 04e6 0D4B     		ldr	r3, .L45+36
 769 04e8 0022     		movs	r2, #0
 770 04ea 1A70     		strb	r2, [r3]
 350:main.c        ****                 
ARM GAS  C:\Users\riveraes\AppData\Local\Temp\ccjBcK2F.s 			page 21


 351:main.c        ****                 // Set next state
 352:main.c        ****                 currentState = STATE_READ_INPUT;
 771              		.loc 1 352 0
 772 04ec 084B     		ldr	r3, .L45+24
 773 04ee 0122     		movs	r2, #1
 774 04f0 1A70     		strb	r2, [r3]
 353:main.c        ****                 
 354:main.c        ****             break;
 775              		.loc 1 354 0
 776 04f2 00BF     		nop
 777              	.L7:
 355:main.c        **** 
 356:main.c        ****         } // End "Switch(currentState)"
 357:main.c        ****     } // End "While(TRUE)"
 778              		.loc 1 357 0 discriminator 1
 779 04f4 8AE5     		b	.L42
 780              	.L46:
 781 04f6 00BF     		.align	2
 782              	.L45:
 783 04f8 00000000 		.word	Output
 784 04fc 00000000 		.word	array
 785 0500 40000000 		.word	.LC13
 786 0504 58000000 		.word	.LC14
 787 0508 00000000 		.word	TransmitBuffer
 788 050c 60000000 		.word	.LC15
 789 0510 00000000 		.word	currentState
 790 0514 78000000 		.word	.LC16
 791 0518 00000000 		.word	counterEnable
 792 051c 00000000 		.word	counter
 793              		.cfi_endproc
 794              	.LFE65:
 795              		.size	main, .-main
 796              		.global	__aeabi_i2d
 797              		.global	__aeabi_ddiv
 798              		.global	__aeabi_d2iz
 799              		.section	.text.SetHighFrequencyDacOutput,"ax",%progbits
 800              		.align	2
 801              		.global	SetHighFrequencyDacOutput
 802              		.thumb
 803              		.thumb_func
 804              		.type	SetHighFrequencyDacOutput, %function
 805              	SetHighFrequencyDacOutput:
 806              	.LFB66:
 358:main.c        **** } // End "Main(void)"
 359:main.c        **** 
 360:main.c        **** /*******************************************************************************
 361:main.c        **** * Function - Init Settings
 362:main.c        **** *******************************************************************************/
 363:main.c        **** void SetHighFrequencyDacOutput(int OutputFrequency)
 364:main.c        **** {   
 807              		.loc 1 364 0
 808              		.cfi_startproc
 809              		@ args = 0, pretend = 0, frame = 24
 810              		@ frame_needed = 1, uses_anonymous_args = 0
 811 0000 90B5     		push	{r4, r7, lr}
 812              		.cfi_def_cfa_offset 12
 813              		.cfi_offset 4, -12
ARM GAS  C:\Users\riveraes\AppData\Local\Temp\ccjBcK2F.s 			page 22


 814              		.cfi_offset 7, -8
 815              		.cfi_offset 14, -4
 816 0002 87B0     		sub	sp, sp, #28
 817              		.cfi_def_cfa_offset 40
 818 0004 00AF     		add	r7, sp, #0
 819              		.cfi_def_cfa_register 7
 820 0006 7860     		str	r0, [r7, #4]
 365:main.c        ****     double KSPS = HIGH_FREQ_DAC_NUMBER_OF_SAMPLES * OutputFrequency;
 821              		.loc 1 365 0
 822 0008 7B68     		ldr	r3, [r7, #4]
 823 000a 4FF49672 		mov	r2, #300
 824 000e 02FB03F3 		mul	r3, r2, r3
 825 0012 1846     		mov	r0, r3
 826 0014 FFF7FEFF 		bl	__aeabi_i2d
 827 0018 0346     		mov	r3, r0
 828 001a 0C46     		mov	r4, r1
 829 001c C7E90434 		strd	r3, [r7, #16]
 366:main.c        ****     double ClockDivider = MASTER_CLOCK_FREQUENCY / KSPS;
 830              		.loc 1 366 0
 831 0020 D7E90423 		ldrd	r2, [r7, #16]
 832 0024 0CA1     		adr	r1, .L48
 833 0026 D1E90001 		ldrd	r0, [r1]
 834 002a FFF7FEFF 		bl	__aeabi_ddiv
 835 002e 0346     		mov	r3, r0
 836 0030 0C46     		mov	r4, r1
 837 0032 C7E90234 		strd	r3, [r7, #8]
 367:main.c        ****     HF_DAC_CLK_SetDividerValue((int)ClockDivider);
 838              		.loc 1 367 0
 839 0036 D7E90201 		ldrd	r0, [r7, #8]
 840 003a FFF7FEFF 		bl	__aeabi_d2iz
 841 003e 0346     		mov	r3, r0
 842 0040 9BB2     		uxth	r3, r3
 843 0042 013B     		subs	r3, r3, #1
 844 0044 9BB2     		uxth	r3, r3
 845 0046 0121     		movs	r1, #1
 846 0048 1846     		mov	r0, r3
 847 004a FFF7FEFF 		bl	HF_DAC_CLK_SetDividerRegister
 368:main.c        **** }
 848              		.loc 1 368 0
 849 004e 00BF     		nop
 850 0050 1C37     		adds	r7, r7, #28
 851              		.cfi_def_cfa_offset 12
 852 0052 BD46     		mov	sp, r7
 853              		.cfi_def_cfa_register 13
 854              		@ sp needed
 855 0054 90BD     		pop	{r4, r7, pc}
 856              	.L49:
 857 0056 00BF     		.align	3
 858              	.L48:
 859 0058 00000000 		.word	0
 860 005c 60E37641 		.word	1098310496
 861              		.cfi_endproc
 862              	.LFE66:
 863              		.size	SetHighFrequencyDacOutput, .-SetHighFrequencyDacOutput
 864              		.section	.text.SetLowFrequencyDacOutput,"ax",%progbits
 865              		.align	2
 866              		.global	SetLowFrequencyDacOutput
ARM GAS  C:\Users\riveraes\AppData\Local\Temp\ccjBcK2F.s 			page 23


 867              		.thumb
 868              		.thumb_func
 869              		.type	SetLowFrequencyDacOutput, %function
 870              	SetLowFrequencyDacOutput:
 871              	.LFB67:
 369:main.c        **** 
 370:main.c        **** /*******************************************************************************
 371:main.c        **** * Function - Init Settings
 372:main.c        **** *******************************************************************************/
 373:main.c        **** void SetLowFrequencyDacOutput(int OutputFrequency)
 374:main.c        **** {   
 872              		.loc 1 374 0
 873              		.cfi_startproc
 874              		@ args = 0, pretend = 0, frame = 24
 875              		@ frame_needed = 1, uses_anonymous_args = 0
 876 0000 90B5     		push	{r4, r7, lr}
 877              		.cfi_def_cfa_offset 12
 878              		.cfi_offset 4, -12
 879              		.cfi_offset 7, -8
 880              		.cfi_offset 14, -4
 881 0002 87B0     		sub	sp, sp, #28
 882              		.cfi_def_cfa_offset 40
 883 0004 00AF     		add	r7, sp, #0
 884              		.cfi_def_cfa_register 7
 885 0006 7860     		str	r0, [r7, #4]
 375:main.c        ****     double KSPS = LOW_FREQ_DAC_NUMBER_OF_SAMPLES * OutputFrequency; 
 886              		.loc 1 375 0
 887 0008 7B68     		ldr	r3, [r7, #4]
 888 000a C822     		movs	r2, #200
 889 000c 02FB03F3 		mul	r3, r2, r3
 890 0010 1846     		mov	r0, r3
 891 0012 FFF7FEFF 		bl	__aeabi_i2d
 892 0016 0346     		mov	r3, r0
 893 0018 0C46     		mov	r4, r1
 894 001a C7E90434 		strd	r3, [r7, #16]
 376:main.c        ****     double ClockDivider = MASTER_CLOCK_FREQUENCY / KSPS;
 895              		.loc 1 376 0
 896 001e D7E90423 		ldrd	r2, [r7, #16]
 897 0022 0DA1     		adr	r1, .L51
 898 0024 D1E90001 		ldrd	r0, [r1]
 899 0028 FFF7FEFF 		bl	__aeabi_ddiv
 900 002c 0346     		mov	r3, r0
 901 002e 0C46     		mov	r4, r1
 902 0030 C7E90234 		strd	r3, [r7, #8]
 377:main.c        ****     LF_DAC_CLK_SetDividerValue((int)ClockDivider);
 903              		.loc 1 377 0
 904 0034 D7E90201 		ldrd	r0, [r7, #8]
 905 0038 FFF7FEFF 		bl	__aeabi_d2iz
 906 003c 0346     		mov	r3, r0
 907 003e 9BB2     		uxth	r3, r3
 908 0040 013B     		subs	r3, r3, #1
 909 0042 9BB2     		uxth	r3, r3
 910 0044 0121     		movs	r1, #1
 911 0046 1846     		mov	r0, r3
 912 0048 FFF7FEFF 		bl	LF_DAC_CLK_SetDividerRegister
 378:main.c        **** }
 913              		.loc 1 378 0
ARM GAS  C:\Users\riveraes\AppData\Local\Temp\ccjBcK2F.s 			page 24


 914 004c 00BF     		nop
 915 004e 1C37     		adds	r7, r7, #28
 916              		.cfi_def_cfa_offset 12
 917 0050 BD46     		mov	sp, r7
 918              		.cfi_def_cfa_register 13
 919              		@ sp needed
 920 0052 90BD     		pop	{r4, r7, pc}
 921              	.L52:
 922 0054 AFF30080 		.align	3
 923              	.L51:
 924 0058 00000000 		.word	0
 925 005c 60E37641 		.word	1098310496
 926              		.cfi_endproc
 927              	.LFE67:
 928              		.size	SetLowFrequencyDacOutput, .-SetLowFrequencyDacOutput
 929              		.section	.text.InitSettings,"ax",%progbits
 930              		.align	2
 931              		.global	InitSettings
 932              		.thumb
 933              		.thumb_func
 934              		.type	InitSettings, %function
 935              	InitSettings:
 936              	.LFB68:
 379:main.c        **** 
 380:main.c        **** /*******************************************************************************
 381:main.c        **** * Function - Init Settings
 382:main.c        **** *******************************************************************************/
 383:main.c        **** void InitSettings(void)
 384:main.c        **** {   
 937              		.loc 1 384 0
 938              		.cfi_startproc
 939              		@ args = 0, pretend = 0, frame = 0
 940              		@ frame_needed = 1, uses_anonymous_args = 0
 941 0000 80B5     		push	{r7, lr}
 942              		.cfi_def_cfa_offset 8
 943              		.cfi_offset 7, -8
 944              		.cfi_offset 14, -4
 945 0002 00AF     		add	r7, sp, #0
 946              		.cfi_def_cfa_register 7
 385:main.c        ****     // Configure Muxes
 386:main.c        ****     HF_SW1_Write(0);    
 947              		.loc 1 386 0
 948 0004 0020     		movs	r0, #0
 949 0006 FFF7FEFF 		bl	HF_SW1_Write
 387:main.c        ****     LF_SW1_Write(0);
 950              		.loc 1 387 0
 951 000a 0020     		movs	r0, #0
 952 000c FFF7FEFF 		bl	LF_SW1_Write
 388:main.c        ****     
 389:main.c        ****     // Configure DAC's external clocks
 390:main.c        ****     SetLowFrequencyDacOutput(150);
 953              		.loc 1 390 0
 954 0010 9620     		movs	r0, #150
 955 0012 FFF7FEFF 		bl	SetLowFrequencyDacOutput
 391:main.c        ****     SetHighFrequencyDacOutput(150);
 956              		.loc 1 391 0
 957 0016 9620     		movs	r0, #150
ARM GAS  C:\Users\riveraes\AppData\Local\Temp\ccjBcK2F.s 			page 25


 958 0018 FFF7FEFF 		bl	SetHighFrequencyDacOutput
 392:main.c        ****     
 393:main.c        ****     // Enable Components
 394:main.c        ****     HF_DAC_1_Start();   // (3,6,9,#,Dummy)
 959              		.loc 1 394 0
 960 001c FFF7FEFF 		bl	HF_DAC_1_Start
 395:main.c        ****     LF_DAC_1_Start();   // (7,8,9,*,0,#)
 961              		.loc 1 395 0
 962 0020 FFF7FEFF 		bl	LF_DAC_1_Start
 396:main.c        **** }
 963              		.loc 1 396 0
 964 0024 00BF     		nop
 965 0026 80BD     		pop	{r7, pc}
 966              		.cfi_endproc
 967              	.LFE68:
 968              		.size	InitSettings, .-InitSettings
 969              		.global	__aeabi_dmul
 970              		.section	.rodata
 971 008e 0000     		.align	2
 972              	.LC17:
 973 0090 4C6F3D25 		.ascii	"Lo=%dHz\000"
 973      64487A00 
 974              		.align	2
 975              	.LC18:
 976 0098 202D2000 		.ascii	" - \000"
 977              		.align	2
 978              	.LC19:
 979 009c 48693D25 		.ascii	"Hi=%dHz\015\012\000"
 979      64487A0D 
 979      0A00
 980              		.section	.text.DTMF,"ax",%progbits
 981              		.align	2
 982              		.global	DTMF
 983              		.thumb
 984              		.thumb_func
 985              		.type	DTMF, %function
 986              	DTMF:
 987              	.LFB69:
 397:main.c        **** 
 398:main.c        **** /*******************************************************************************
 399:main.c        **** * Function - Find DTMF Frequencies
 400:main.c        **** *******************************************************************************/
 401:main.c        **** void DTMF()
 402:main.c        **** {
 988              		.loc 1 402 0
 989              		.cfi_startproc
 990              		@ args = 0, pretend = 0, frame = 5296
 991              		@ frame_needed = 1, uses_anonymous_args = 0
 992 0000 90B5     		push	{r4, r7, lr}
 993              		.cfi_def_cfa_offset 12
 994              		.cfi_offset 4, -12
 995              		.cfi_offset 7, -8
 996              		.cfi_offset 14, -4
 997 0002 ADF5A55D 		sub	sp, sp, #5280
 998              		.cfi_def_cfa_offset 5292
 999 0006 85B0     		sub	sp, sp, #20
 1000              		.cfi_def_cfa_offset 5312
ARM GAS  C:\Users\riveraes\AppData\Local\Temp\ccjBcK2F.s 			page 26


 1001 0008 00AF     		add	r7, sp, #0
 1002              		.cfi_def_cfa_register 7
 1003              	.LBB5:
 403:main.c        ****     double signal[NUMBER_OF_SAMPLES];
 404:main.c        ****     for(int i = 0; i < NUMBER_OF_SAMPLES; i++)
 1004              		.loc 1 404 0
 1005 000a 0023     		movs	r3, #0
 1006 000c 07F5A552 		add	r2, r7, #5280
 1007 0010 02F10C02 		add	r2, r2, #12
 1008 0014 1360     		str	r3, [r2]
 1009 0016 48E0     		b	.L55
 1010              	.L56:
 1011              	.LBB6:
 405:main.c        ****     {
 406:main.c        ****         double pdata = (double)array[i];
 1012              		.loc 1 406 0 discriminator 3
 1013 0018 944A     		ldr	r2, .L61
 1014 001a 07F5A553 		add	r3, r7, #5280
 1015 001e 03F10C03 		add	r3, r3, #12
 1016 0022 1B68     		ldr	r3, [r3]
 1017 0024 32F91330 		ldrsh	r3, [r2, r3, lsl #1]
 1018 0028 1846     		mov	r0, r3
 1019 002a FFF7FEFF 		bl	__aeabi_i2d
 1020 002e 0346     		mov	r3, r0
 1021 0030 0C46     		mov	r4, r1
 1022 0032 07F5A552 		add	r2, r7, #5280
 1023 0036 C2E90034 		strd	r3, [r2]
 407:main.c        ****         pdata = pdata*0.5;
 1024              		.loc 1 407 0 discriminator 3
 1025 003a 4FF00002 		mov	r2, #0
 1026 003e 8C4B     		ldr	r3, .L61+4
 1027 0040 07F5A551 		add	r1, r7, #5280
 1028 0044 D1E90001 		ldrd	r0, [r1]
 1029 0048 FFF7FEFF 		bl	__aeabi_dmul
 1030 004c 0346     		mov	r3, r0
 1031 004e 0C46     		mov	r4, r1
 1032 0050 07F5A552 		add	r2, r7, #5280
 1033 0054 C2E90034 		strd	r3, [r2]
 408:main.c        ****         pdata = pdata/128;
 1034              		.loc 1 408 0 discriminator 3
 1035 0058 4FF00002 		mov	r2, #0
 1036 005c 854B     		ldr	r3, .L61+8
 1037 005e 07F5A551 		add	r1, r7, #5280
 1038 0062 D1E90001 		ldrd	r0, [r1]
 1039 0066 FFF7FEFF 		bl	__aeabi_ddiv
 1040 006a 0346     		mov	r3, r0
 1041 006c 0C46     		mov	r4, r1
 1042 006e 07F5A552 		add	r2, r7, #5280
 1043 0072 C2E90034 		strd	r3, [r2]
 409:main.c        ****         signal[i] = pdata;
 1044              		.loc 1 409 0 discriminator 3
 1045 0076 07F15003 		add	r3, r7, #80
 1046 007a 083B     		subs	r3, r3, #8
 1047 007c 07F5A552 		add	r2, r7, #5280
 1048 0080 02F10C02 		add	r2, r2, #12
 1049 0084 1268     		ldr	r2, [r2]
 1050 0086 D200     		lsls	r2, r2, #3
ARM GAS  C:\Users\riveraes\AppData\Local\Temp\ccjBcK2F.s 			page 27


 1051 0088 1A44     		add	r2, r2, r3
 1052 008a 07F5A553 		add	r3, r7, #5280
 1053 008e 18CB     		ldmia	r3, {r3-r4}
 1054 0090 C2E90034 		strd	r3, [r2]
 1055              	.LBE6:
 404:main.c        ****     {
 1056              		.loc 1 404 0 discriminator 3
 1057 0094 07F5A553 		add	r3, r7, #5280
 1058 0098 03F10C03 		add	r3, r3, #12
 1059 009c 1B68     		ldr	r3, [r3]
 1060 009e 0133     		adds	r3, r3, #1
 1061 00a0 07F5A552 		add	r2, r7, #5280
 1062 00a4 02F10C02 		add	r2, r2, #12
 1063 00a8 1360     		str	r3, [r2]
 1064              	.L55:
 404:main.c        ****     {
 1065              		.loc 1 404 0 is_stmt 0 discriminator 1
 1066 00aa 07F5A553 		add	r3, r7, #5280
 1067 00ae 03F10C03 		add	r3, r3, #12
 1068 00b2 1B68     		ldr	r3, [r3]
 1069 00b4 40F28922 		movw	r2, #649
 1070 00b8 9342     		cmp	r3, r2
 1071 00ba ADDD     		ble	.L56
 1072              	.LBE5:
 410:main.c        ****     }
 411:main.c        ****     
 412:main.c        ****     double loAmplitudes[LOW_FREQUENCIES_ANALIZED] = {0, 0, 0, 0, 0};
 1073              		.loc 1 412 0 is_stmt 1
 1074 00bc 07F13003 		add	r3, r7, #48
 1075 00c0 103B     		subs	r3, r3, #16
 1076 00c2 1846     		mov	r0, r3
 1077 00c4 2823     		movs	r3, #40
 1078 00c6 1A46     		mov	r2, r3
 1079 00c8 0021     		movs	r1, #0
 1080 00ca FFF7FEFF 		bl	memset
 413:main.c        ****     double hiAmplitudes[HIGH_FREQUENCIES_ANALIZED] = {0, 0, 0, 0};
 1081              		.loc 1 413 0
 1082 00ce 07F11003 		add	r3, r7, #16
 1083 00d2 103B     		subs	r3, r3, #16
 1084 00d4 1846     		mov	r0, r3
 1085 00d6 2023     		movs	r3, #32
 1086 00d8 1A46     		mov	r2, r3
 1087 00da 0021     		movs	r1, #0
 1088 00dc FFF7FEFF 		bl	memset
 1089              	.LBB7:
 414:main.c        ****     
 415:main.c        ****     for(uint8 i = 0; i < LOW_FREQUENCIES_ANALIZED; i++)
 1090              		.loc 1 415 0
 1091 00e0 0023     		movs	r3, #0
 1092 00e2 07F5A552 		add	r2, r7, #5280
 1093 00e6 02F10B02 		add	r2, r2, #11
 1094 00ea 1370     		strb	r3, [r2]
 1095 00ec 29E0     		b	.L57
 1096              	.L58:
 416:main.c        ****     {
 417:main.c        ****         loAmplitudes[i] = Goertzel(NUMBER_OF_SAMPLES,loFrequency[i],SAMPLING_RATE, signal);
 1097              		.loc 1 417 0 discriminator 3
ARM GAS  C:\Users\riveraes\AppData\Local\Temp\ccjBcK2F.s 			page 28


 1098 00ee 07F5A553 		add	r3, r7, #5280
 1099 00f2 03F10B03 		add	r3, r3, #11
 1100 00f6 1C78     		ldrb	r4, [r3]	@ zero_extendqisi2
 1101 00f8 07F5A553 		add	r3, r7, #5280
 1102 00fc 03F10B03 		add	r3, r3, #11
 1103 0100 1B78     		ldrb	r3, [r3]	@ zero_extendqisi2
 1104 0102 5D4A     		ldr	r2, .L61+12
 1105 0104 52F82310 		ldr	r1, [r2, r3, lsl #2]
 1106 0108 07F15003 		add	r3, r7, #80
 1107 010c 083B     		subs	r3, r3, #8
 1108 010e 42F21072 		movw	r2, #10000
 1109 0112 40F28A20 		movw	r0, #650
 1110 0116 FFF7FEFF 		bl	Goertzel
 1111 011a 0A46     		mov	r2, r1
 1112 011c 0146     		mov	r1, r0
 1113 011e 07F13003 		add	r3, r7, #48
 1114 0122 103B     		subs	r3, r3, #16
 1115 0124 E000     		lsls	r0, r4, #3
 1116 0126 0344     		add	r3, r3, r0
 1117 0128 C3E90012 		strd	r1, [r3]
 415:main.c        ****     {
 1118              		.loc 1 415 0 discriminator 3
 1119 012c 07F5A553 		add	r3, r7, #5280
 1120 0130 03F10B03 		add	r3, r3, #11
 1121 0134 1B78     		ldrb	r3, [r3]	@ zero_extendqisi2
 1122 0136 0133     		adds	r3, r3, #1
 1123 0138 07F5A552 		add	r2, r7, #5280
 1124 013c 02F10B02 		add	r2, r2, #11
 1125 0140 1370     		strb	r3, [r2]
 1126              	.L57:
 415:main.c        ****     {
 1127              		.loc 1 415 0 is_stmt 0 discriminator 1
 1128 0142 07F5A553 		add	r3, r7, #5280
 1129 0146 03F10B03 		add	r3, r3, #11
 1130 014a 1B78     		ldrb	r3, [r3]	@ zero_extendqisi2
 1131 014c 042B     		cmp	r3, #4
 1132 014e CED9     		bls	.L58
 1133              	.LBE7:
 1134              	.LBB8:
 418:main.c        ****     }
 419:main.c        ****     
 420:main.c        ****     for(uint8 i = 0; i < HIGH_FREQUENCIES_ANALIZED; i++)
 1135              		.loc 1 420 0 is_stmt 1
 1136 0150 0023     		movs	r3, #0
 1137 0152 07F5A552 		add	r2, r7, #5280
 1138 0156 02F10A02 		add	r2, r2, #10
 1139 015a 1370     		strb	r3, [r2]
 1140 015c 29E0     		b	.L59
 1141              	.L60:
 421:main.c        ****     {
 422:main.c        ****         hiAmplitudes[i] = Goertzel(NUMBER_OF_SAMPLES,hiFrequency[i],SAMPLING_RATE, signal);
 1142              		.loc 1 422 0 discriminator 3
 1143 015e 07F5A553 		add	r3, r7, #5280
 1144 0162 03F10A03 		add	r3, r3, #10
 1145 0166 1C78     		ldrb	r4, [r3]	@ zero_extendqisi2
 1146 0168 07F5A553 		add	r3, r7, #5280
 1147 016c 03F10A03 		add	r3, r3, #10
ARM GAS  C:\Users\riveraes\AppData\Local\Temp\ccjBcK2F.s 			page 29


 1148 0170 1B78     		ldrb	r3, [r3]	@ zero_extendqisi2
 1149 0172 424A     		ldr	r2, .L61+16
 1150 0174 52F82310 		ldr	r1, [r2, r3, lsl #2]
 1151 0178 07F15003 		add	r3, r7, #80
 1152 017c 083B     		subs	r3, r3, #8
 1153 017e 42F21072 		movw	r2, #10000
 1154 0182 40F28A20 		movw	r0, #650
 1155 0186 FFF7FEFF 		bl	Goertzel
 1156 018a 0A46     		mov	r2, r1
 1157 018c 0146     		mov	r1, r0
 1158 018e 07F11003 		add	r3, r7, #16
 1159 0192 103B     		subs	r3, r3, #16
 1160 0194 E000     		lsls	r0, r4, #3
 1161 0196 0344     		add	r3, r3, r0
 1162 0198 C3E90012 		strd	r1, [r3]
 420:main.c        ****     {
 1163              		.loc 1 420 0 discriminator 3
 1164 019c 07F5A553 		add	r3, r7, #5280
 1165 01a0 03F10A03 		add	r3, r3, #10
 1166 01a4 1B78     		ldrb	r3, [r3]	@ zero_extendqisi2
 1167 01a6 0133     		adds	r3, r3, #1
 1168 01a8 07F5A552 		add	r2, r7, #5280
 1169 01ac 02F10A02 		add	r2, r2, #10
 1170 01b0 1370     		strb	r3, [r2]
 1171              	.L59:
 420:main.c        ****     {
 1172              		.loc 1 420 0 is_stmt 0 discriminator 1
 1173 01b2 07F5A553 		add	r3, r7, #5280
 1174 01b6 03F10A03 		add	r3, r3, #10
 1175 01ba 1B78     		ldrb	r3, [r3]	@ zero_extendqisi2
 1176 01bc 032B     		cmp	r3, #3
 1177 01be CED9     		bls	.L60
 1178              	.LBE8:
 423:main.c        ****     }
 424:main.c        ****     
 425:main.c        ****     uint16 loAmp = getMaxValue(loAmplitudes, LOW_FREQUENCIES_ANALIZED);
 1179              		.loc 1 425 0 is_stmt 1
 1180 01c0 07F13003 		add	r3, r7, #48
 1181 01c4 103B     		subs	r3, r3, #16
 1182 01c6 0521     		movs	r1, #5
 1183 01c8 1846     		mov	r0, r3
 1184 01ca FFF7FEFF 		bl	getMaxValue
 1185 01ce 0346     		mov	r3, r0
 1186 01d0 07F5A452 		add	r2, r7, #5248
 1187 01d4 02F11E02 		add	r2, r2, #30
 1188 01d8 1380     		strh	r3, [r2]	@ movhi
 426:main.c        ****     uint16 hiAmp = getMaxValue(hiAmplitudes, HIGH_FREQUENCIES_ANALIZED);   
 1189              		.loc 1 426 0
 1190 01da 07F11003 		add	r3, r7, #16
 1191 01de 103B     		subs	r3, r3, #16
 1192 01e0 0421     		movs	r1, #4
 1193 01e2 1846     		mov	r0, r3
 1194 01e4 FFF7FEFF 		bl	getMaxValue
 1195 01e8 0346     		mov	r3, r0
 1196 01ea 07F5A452 		add	r2, r7, #5248
 1197 01ee 02F11C02 		add	r2, r2, #28
 1198 01f2 1380     		strh	r3, [r2]	@ movhi
ARM GAS  C:\Users\riveraes\AppData\Local\Temp\ccjBcK2F.s 			page 30


 427:main.c        ****     
 428:main.c        ****     // Print the low and High frequencies found
 429:main.c        ****     sprintf(TransmitBuffer, "Lo=%dHz", loFrequency[loAmp]);
 1199              		.loc 1 429 0
 1200 01f4 07F5A453 		add	r3, r7, #5248
 1201 01f8 03F11E03 		add	r3, r3, #30
 1202 01fc 1B88     		ldrh	r3, [r3]
 1203 01fe 1E4A     		ldr	r2, .L61+12
 1204 0200 52F82330 		ldr	r3, [r2, r3, lsl #2]
 1205 0204 1A46     		mov	r2, r3
 1206 0206 1E49     		ldr	r1, .L61+20
 1207 0208 1E48     		ldr	r0, .L61+24
 1208 020a FFF7FEFF 		bl	sprintf
 430:main.c        ****     UART_1_PutString(TransmitBuffer);
 1209              		.loc 1 430 0
 1210 020e 1D48     		ldr	r0, .L61+24
 1211 0210 FFF7FEFF 		bl	UART_1_PutString
 431:main.c        ****     UART_1_PutString(" - ");
 1212              		.loc 1 431 0
 1213 0214 1C48     		ldr	r0, .L61+28
 1214 0216 FFF7FEFF 		bl	UART_1_PutString
 432:main.c        ****     sprintf(TransmitBuffer, "Hi=%dHz\r\n", hiFrequency[hiAmp]);
 1215              		.loc 1 432 0
 1216 021a 07F5A453 		add	r3, r7, #5248
 1217 021e 03F11C03 		add	r3, r3, #28
 1218 0222 1B88     		ldrh	r3, [r3]
 1219 0224 154A     		ldr	r2, .L61+16
 1220 0226 52F82330 		ldr	r3, [r2, r3, lsl #2]
 1221 022a 1A46     		mov	r2, r3
 1222 022c 1749     		ldr	r1, .L61+32
 1223 022e 1548     		ldr	r0, .L61+24
 1224 0230 FFF7FEFF 		bl	sprintf
 433:main.c        ****     UART_1_PutString(TransmitBuffer);
 1225              		.loc 1 433 0
 1226 0234 1348     		ldr	r0, .L61+24
 1227 0236 FFF7FEFF 		bl	UART_1_PutString
 434:main.c        ****     
 435:main.c        ****     // Decode the pressed key value
 436:main.c        ****     DecodeInput(loFrequency[loAmp], hiFrequency[hiAmp]);
 1228              		.loc 1 436 0
 1229 023a 07F5A453 		add	r3, r7, #5248
 1230 023e 03F11E03 		add	r3, r3, #30
 1231 0242 1B88     		ldrh	r3, [r3]
 1232 0244 0C4A     		ldr	r2, .L61+12
 1233 0246 52F82300 		ldr	r0, [r2, r3, lsl #2]
 1234 024a 07F5A453 		add	r3, r7, #5248
 1235 024e 03F11C03 		add	r3, r3, #28
 1236 0252 1B88     		ldrh	r3, [r3]
 1237 0254 094A     		ldr	r2, .L61+16
 1238 0256 52F82330 		ldr	r3, [r2, r3, lsl #2]
 1239 025a 1946     		mov	r1, r3
 1240 025c FFF7FEFF 		bl	DecodeInput
 437:main.c        **** }
 1241              		.loc 1 437 0
 1242 0260 00BF     		nop
 1243 0262 07F5A557 		add	r7, r7, #5280
 1244 0266 1437     		adds	r7, r7, #20
ARM GAS  C:\Users\riveraes\AppData\Local\Temp\ccjBcK2F.s 			page 31


 1245              		.cfi_def_cfa_offset 12
 1246 0268 BD46     		mov	sp, r7
 1247              		.cfi_def_cfa_register 13
 1248              		@ sp needed
 1249 026a 90BD     		pop	{r4, r7, pc}
 1250              	.L62:
 1251              		.align	2
 1252              	.L61:
 1253 026c 00000000 		.word	array
 1254 0270 0000E03F 		.word	1071644672
 1255 0274 00006040 		.word	1080033280
 1256 0278 00000000 		.word	loFrequency
 1257 027c 00000000 		.word	hiFrequency
 1258 0280 90000000 		.word	.LC17
 1259 0284 00000000 		.word	TransmitBuffer
 1260 0288 98000000 		.word	.LC18
 1261 028c 9C000000 		.word	.LC19
 1262              		.cfi_endproc
 1263              	.LFE69:
 1264              		.size	DTMF, .-DTMF
 1265              		.global	__aeabi_dadd
 1266              		.global	__aeabi_dsub
 1267              		.section	.text.Goertzel,"ax",%progbits
 1268              		.align	2
 1269              		.global	Goertzel
 1270              		.thumb
 1271              		.thumb_func
 1272              		.type	Goertzel, %function
 1273              	Goertzel:
 1274              	.LFB70:
 438:main.c        **** 
 439:main.c        **** /*******************************************************************************
 440:main.c        **** * Function - Goertzel algorithm
 441:main.c        **** *******************************************************************************/
 442:main.c        **** double Goertzel(int numSamples, int tFrequency,int tSamplingRate, double data[])
 443:main.c        **** {
 1275              		.loc 1 443 0
 1276              		.cfi_startproc
 1277              		@ args = 0, pretend = 0, frame = 136
 1278              		@ frame_needed = 1, uses_anonymous_args = 0
 1279 0000 B0B5     		push	{r4, r5, r7, lr}
 1280              		.cfi_def_cfa_offset 16
 1281              		.cfi_offset 4, -16
 1282              		.cfi_offset 5, -12
 1283              		.cfi_offset 7, -8
 1284              		.cfi_offset 14, -4
 1285 0002 A2B0     		sub	sp, sp, #136
 1286              		.cfi_def_cfa_offset 152
 1287 0004 00AF     		add	r7, sp, #0
 1288              		.cfi_def_cfa_register 7
 1289 0006 F860     		str	r0, [r7, #12]
 1290 0008 B960     		str	r1, [r7, #8]
 1291 000a 7A60     		str	r2, [r7, #4]
 1292 000c 3B60     		str	r3, [r7]
 444:main.c        ****     int k;
 445:main.c        ****     int i;
 446:main.c        ****     double floatnumSamples;
ARM GAS  C:\Users\riveraes\AppData\Local\Temp\ccjBcK2F.s 			page 32


 447:main.c        ****     double omega;
 448:main.c        ****     double sine;
 449:main.c        ****     double cosine;
 450:main.c        ****     double coeff;
 451:main.c        ****     double q0;
 452:main.c        ****     double q1;
 453:main.c        ****     double q2;
 454:main.c        ****     double magnitude;
 455:main.c        ****     double real;
 456:main.c        ****     double imag;
 457:main.c        ****     
 458:main.c        ****     double scalingFactor = numSamples / 2.0;
 1293              		.loc 1 458 0
 1294 000e F868     		ldr	r0, [r7, #12]
 1295 0010 FFF7FEFF 		bl	__aeabi_i2d
 1296 0014 4FF00002 		mov	r2, #0
 1297 0018 4FF08043 		mov	r3, #1073741824
 1298 001c FFF7FEFF 		bl	__aeabi_ddiv
 1299 0020 0346     		mov	r3, r0
 1300 0022 0C46     		mov	r4, r1
 1301 0024 C7E91A34 		strd	r3, [r7, #104]
 459:main.c        **** 
 460:main.c        ****     floatnumSamples = numSamples;
 1302              		.loc 1 460 0
 1303 0028 F868     		ldr	r0, [r7, #12]
 1304 002a FFF7FEFF 		bl	__aeabi_i2d
 1305 002e 0346     		mov	r3, r0
 1306 0030 0C46     		mov	r4, r1
 1307 0032 C7E91834 		strd	r3, [r7, #96]
 461:main.c        ****     k = (0.5 + ((floatnumSamples * tFrequency) / tSamplingRate));
 1308              		.loc 1 461 0
 1309 0036 B868     		ldr	r0, [r7, #8]
 1310 0038 FFF7FEFF 		bl	__aeabi_i2d
 1311 003c D7E91823 		ldrd	r2, [r7, #96]
 1312 0040 FFF7FEFF 		bl	__aeabi_dmul
 1313 0044 0346     		mov	r3, r0
 1314 0046 0C46     		mov	r4, r1
 1315 0048 2546     		mov	r5, r4
 1316 004a 1C46     		mov	r4, r3
 1317 004c 7868     		ldr	r0, [r7, #4]
 1318 004e FFF7FEFF 		bl	__aeabi_i2d
 1319 0052 0246     		mov	r2, r0
 1320 0054 0B46     		mov	r3, r1
 1321 0056 2046     		mov	r0, r4
 1322 0058 2946     		mov	r1, r5
 1323 005a FFF7FEFF 		bl	__aeabi_ddiv
 1324 005e 0346     		mov	r3, r0
 1325 0060 0C46     		mov	r4, r1
 1326 0062 1846     		mov	r0, r3
 1327 0064 2146     		mov	r1, r4
 1328 0066 4FF00002 		mov	r2, #0
 1329 006a 6B4B     		ldr	r3, .L67+8
 1330 006c FFF7FEFF 		bl	__aeabi_dadd
 1331 0070 0346     		mov	r3, r0
 1332 0072 0C46     		mov	r4, r1
 1333 0074 1846     		mov	r0, r3
 1334 0076 2146     		mov	r1, r4
ARM GAS  C:\Users\riveraes\AppData\Local\Temp\ccjBcK2F.s 			page 33


 1335 0078 FFF7FEFF 		bl	__aeabi_d2iz
 1336 007c 0346     		mov	r3, r0
 1337 007e FB65     		str	r3, [r7, #92]
 462:main.c        ****     omega = (2.0 * M_PI * k) / floatnumSamples;
 1338              		.loc 1 462 0
 1339 0080 F86D     		ldr	r0, [r7, #92]
 1340 0082 FFF7FEFF 		bl	__aeabi_i2d
 1341 0086 62A3     		adr	r3, .L67
 1342 0088 D3E90023 		ldrd	r2, [r3]
 1343 008c FFF7FEFF 		bl	__aeabi_dmul
 1344 0090 0346     		mov	r3, r0
 1345 0092 0C46     		mov	r4, r1
 1346 0094 1846     		mov	r0, r3
 1347 0096 2146     		mov	r1, r4
 1348 0098 D7E91823 		ldrd	r2, [r7, #96]
 1349 009c FFF7FEFF 		bl	__aeabi_ddiv
 1350 00a0 0346     		mov	r3, r0
 1351 00a2 0C46     		mov	r4, r1
 1352 00a4 C7E91434 		strd	r3, [r7, #80]
 463:main.c        ****     sine = sin(omega);
 1353              		.loc 1 463 0
 1354 00a8 D7E91401 		ldrd	r0, [r7, #80]
 1355 00ac FFF7FEFF 		bl	sin
 1356 00b0 C7E91201 		strd	r0, [r7, #72]
 464:main.c        ****     cosine = cos(omega);
 1357              		.loc 1 464 0
 1358 00b4 D7E91401 		ldrd	r0, [r7, #80]
 1359 00b8 FFF7FEFF 		bl	cos
 1360 00bc C7E91001 		strd	r0, [r7, #64]
 465:main.c        ****     coeff = 2.0 * cosine;
 1361              		.loc 1 465 0
 1362 00c0 D7E91001 		ldrd	r0, [r7, #64]
 1363 00c4 0246     		mov	r2, r0
 1364 00c6 0B46     		mov	r3, r1
 1365 00c8 FFF7FEFF 		bl	__aeabi_dadd
 1366 00cc 0346     		mov	r3, r0
 1367 00ce 0C46     		mov	r4, r1
 1368 00d0 C7E90E34 		strd	r3, [r7, #56]
 466:main.c        ****     q0=0;
 1369              		.loc 1 466 0
 1370 00d4 4FF00003 		mov	r3, #0
 1371 00d8 4FF00004 		mov	r4, #0
 1372 00dc C7E90C34 		strd	r3, [r7, #48]
 467:main.c        ****     q1=0;
 1373              		.loc 1 467 0
 1374 00e0 4FF00003 		mov	r3, #0
 1375 00e4 4FF00004 		mov	r4, #0
 1376 00e8 C7E92034 		strd	r3, [r7, #128]
 468:main.c        ****     q2=0;
 1377              		.loc 1 468 0
 1378 00ec 4FF00003 		mov	r3, #0
 1379 00f0 4FF00004 		mov	r4, #0
 1380 00f4 C7E91E34 		strd	r3, [r7, #120]
 1381              	.LBB9:
 469:main.c        ****     
 470:main.c        ****     for(uint16 i = 0; i < numSamples; i++)
 1382              		.loc 1 470 0
ARM GAS  C:\Users\riveraes\AppData\Local\Temp\ccjBcK2F.s 			page 34


 1383 00f8 0023     		movs	r3, #0
 1384 00fa A7F87630 		strh	r3, [r7, #118]	@ movhi
 1385 00fe 2EE0     		b	.L64
 1386              	.L65:
 1387              	.LBB10:
 471:main.c        ****     {
 472:main.c        ****         double mdata =  data[i];
 1388              		.loc 1 472 0 discriminator 3
 1389 0100 B7F87630 		ldrh	r3, [r7, #118]
 1390 0104 DB00     		lsls	r3, r3, #3
 1391 0106 3A68     		ldr	r2, [r7]
 1392 0108 1344     		add	r3, r3, r2
 1393 010a 18CB     		ldmia	r3, {r3-r4}
 1394 010c C7E90A34 		strd	r3, [r7, #40]
 473:main.c        ****         
 474:main.c        ****         q0 = coeff * q1 - q2 + mdata;
 1395              		.loc 1 474 0 discriminator 3
 1396 0110 D7E92023 		ldrd	r2, [r7, #128]
 1397 0114 D7E90E01 		ldrd	r0, [r7, #56]
 1398 0118 FFF7FEFF 		bl	__aeabi_dmul
 1399 011c 0346     		mov	r3, r0
 1400 011e 0C46     		mov	r4, r1
 1401 0120 1846     		mov	r0, r3
 1402 0122 2146     		mov	r1, r4
 1403 0124 D7E91E23 		ldrd	r2, [r7, #120]
 1404 0128 FFF7FEFF 		bl	__aeabi_dsub
 1405 012c 0346     		mov	r3, r0
 1406 012e 0C46     		mov	r4, r1
 1407 0130 1846     		mov	r0, r3
 1408 0132 2146     		mov	r1, r4
 1409 0134 D7E90A23 		ldrd	r2, [r7, #40]
 1410 0138 FFF7FEFF 		bl	__aeabi_dadd
 1411 013c 0346     		mov	r3, r0
 1412 013e 0C46     		mov	r4, r1
 1413 0140 C7E90C34 		strd	r3, [r7, #48]
 475:main.c        ****         q2 = q1;
 1414              		.loc 1 475 0 discriminator 3
 1415 0144 D7E92034 		ldrd	r3, [r7, #128]
 1416 0148 C7E91E34 		strd	r3, [r7, #120]
 476:main.c        ****         q1 = q0;
 1417              		.loc 1 476 0 discriminator 3
 1418 014c D7E90C34 		ldrd	r3, [r7, #48]
 1419 0150 C7E92034 		strd	r3, [r7, #128]
 1420              	.LBE10:
 470:main.c        ****     {
 1421              		.loc 1 470 0 discriminator 3
 1422 0154 B7F87630 		ldrh	r3, [r7, #118]
 1423 0158 0133     		adds	r3, r3, #1
 1424 015a A7F87630 		strh	r3, [r7, #118]	@ movhi
 1425              	.L64:
 470:main.c        ****     {
 1426              		.loc 1 470 0 is_stmt 0 discriminator 1
 1427 015e B7F87620 		ldrh	r2, [r7, #118]
 1428 0162 FB68     		ldr	r3, [r7, #12]
 1429 0164 9A42     		cmp	r2, r3
 1430 0166 CBDB     		blt	.L65
 1431              	.LBE9:
ARM GAS  C:\Users\riveraes\AppData\Local\Temp\ccjBcK2F.s 			page 35


 477:main.c        ****     }
 478:main.c        **** 
 479:main.c        ****     // calculate the real and imaginary results
 480:main.c        ****     // scaling appropriately
 481:main.c        ****     real = (q1 - q2 * cosine) / scalingFactor;
 1432              		.loc 1 481 0 is_stmt 1
 1433 0168 D7E91023 		ldrd	r2, [r7, #64]
 1434 016c D7E91E01 		ldrd	r0, [r7, #120]
 1435 0170 FFF7FEFF 		bl	__aeabi_dmul
 1436 0174 0346     		mov	r3, r0
 1437 0176 0C46     		mov	r4, r1
 1438 0178 1A46     		mov	r2, r3
 1439 017a 2346     		mov	r3, r4
 1440 017c D7E92001 		ldrd	r0, [r7, #128]
 1441 0180 FFF7FEFF 		bl	__aeabi_dsub
 1442 0184 0346     		mov	r3, r0
 1443 0186 0C46     		mov	r4, r1
 1444 0188 1846     		mov	r0, r3
 1445 018a 2146     		mov	r1, r4
 1446 018c D7E91A23 		ldrd	r2, [r7, #104]
 1447 0190 FFF7FEFF 		bl	__aeabi_ddiv
 1448 0194 0346     		mov	r3, r0
 1449 0196 0C46     		mov	r4, r1
 1450 0198 C7E90834 		strd	r3, [r7, #32]
 482:main.c        ****     imag = (q2 * sine) / scalingFactor;
 1451              		.loc 1 482 0
 1452 019c D7E91223 		ldrd	r2, [r7, #72]
 1453 01a0 D7E91E01 		ldrd	r0, [r7, #120]
 1454 01a4 FFF7FEFF 		bl	__aeabi_dmul
 1455 01a8 0346     		mov	r3, r0
 1456 01aa 0C46     		mov	r4, r1
 1457 01ac 1846     		mov	r0, r3
 1458 01ae 2146     		mov	r1, r4
 1459 01b0 D7E91A23 		ldrd	r2, [r7, #104]
 1460 01b4 FFF7FEFF 		bl	__aeabi_ddiv
 1461 01b8 0346     		mov	r3, r0
 1462 01ba 0C46     		mov	r4, r1
 1463 01bc C7E90634 		strd	r3, [r7, #24]
 483:main.c        **** 
 484:main.c        ****     magnitude = sqrt(real*real + imag*imag);
 1464              		.loc 1 484 0
 1465 01c0 D7E90823 		ldrd	r2, [r7, #32]
 1466 01c4 D7E90801 		ldrd	r0, [r7, #32]
 1467 01c8 FFF7FEFF 		bl	__aeabi_dmul
 1468 01cc 0346     		mov	r3, r0
 1469 01ce 0C46     		mov	r4, r1
 1470 01d0 2546     		mov	r5, r4
 1471 01d2 1C46     		mov	r4, r3
 1472 01d4 D7E90623 		ldrd	r2, [r7, #24]
 1473 01d8 D7E90601 		ldrd	r0, [r7, #24]
 1474 01dc FFF7FEFF 		bl	__aeabi_dmul
 1475 01e0 0246     		mov	r2, r0
 1476 01e2 0B46     		mov	r3, r1
 1477 01e4 2046     		mov	r0, r4
 1478 01e6 2946     		mov	r1, r5
 1479 01e8 FFF7FEFF 		bl	__aeabi_dadd
 1480 01ec 0346     		mov	r3, r0
ARM GAS  C:\Users\riveraes\AppData\Local\Temp\ccjBcK2F.s 			page 36


 1481 01ee 0C46     		mov	r4, r1
 1482 01f0 1846     		mov	r0, r3
 1483 01f2 2146     		mov	r1, r4
 1484 01f4 FFF7FEFF 		bl	sqrt
 1485 01f8 C7E90401 		strd	r0, [r7, #16]
 485:main.c        ****     return magnitude;
 1486              		.loc 1 485 0
 1487 01fc D7E90434 		ldrd	r3, [r7, #16]
 486:main.c        **** }
 1488              		.loc 1 486 0
 1489 0200 1846     		mov	r0, r3
 1490 0202 2146     		mov	r1, r4
 1491 0204 8837     		adds	r7, r7, #136
 1492              		.cfi_def_cfa_offset 16
 1493 0206 BD46     		mov	sp, r7
 1494              		.cfi_def_cfa_register 13
 1495              		@ sp needed
 1496 0208 B0BD     		pop	{r4, r5, r7, pc}
 1497              	.L68:
 1498 020a 00BFAFF3 		.align	3
 1498      0080
 1499              	.L67:
 1500 0210 182D4454 		.word	1413754136
 1501 0214 FB211940 		.word	1075388923
 1502 0218 0000E03F 		.word	1071644672
 1503              		.cfi_endproc
 1504              	.LFE70:
 1505              		.size	Goertzel, .-Goertzel
 1506              		.global	__aeabi_dcmpgt
 1507              		.section	.text.getMaxValue,"ax",%progbits
 1508              		.align	2
 1509              		.global	getMaxValue
 1510              		.thumb
 1511              		.thumb_func
 1512              		.type	getMaxValue, %function
 1513              	getMaxValue:
 1514              	.LFB71:
 487:main.c        **** 
 488:main.c        **** /*******************************************************************************
 489:main.c        **** * Function - Find max value of given array
 490:main.c        **** *******************************************************************************/
 491:main.c        **** uint16 getMaxValue(double *arrayData, uint8 size)
 492:main.c        **** {
 1515              		.loc 1 492 0
 1516              		.cfi_startproc
 1517              		@ args = 0, pretend = 0, frame = 24
 1518              		@ frame_needed = 1, uses_anonymous_args = 0
 1519 0000 90B5     		push	{r4, r7, lr}
 1520              		.cfi_def_cfa_offset 12
 1521              		.cfi_offset 4, -12
 1522              		.cfi_offset 7, -8
 1523              		.cfi_offset 14, -4
 1524 0002 87B0     		sub	sp, sp, #28
 1525              		.cfi_def_cfa_offset 40
 1526 0004 00AF     		add	r7, sp, #0
 1527              		.cfi_def_cfa_register 7
 1528 0006 7860     		str	r0, [r7, #4]
ARM GAS  C:\Users\riveraes\AppData\Local\Temp\ccjBcK2F.s 			page 37


 1529 0008 0B46     		mov	r3, r1
 1530 000a FB70     		strb	r3, [r7, #3]
 493:main.c        ****     double maxValue = arrayData[0];
 1531              		.loc 1 493 0
 1532 000c 7B68     		ldr	r3, [r7, #4]
 1533 000e 18CB     		ldmia	r3, {r3-r4}
 1534 0010 C7E90434 		strd	r3, [r7, #16]
 494:main.c        ****     uint16 index = 0;
 1535              		.loc 1 494 0
 1536 0014 0023     		movs	r3, #0
 1537 0016 FB81     		strh	r3, [r7, #14]	@ movhi
 1538              	.LBB11:
 495:main.c        ****     for (uint16 i = 1; i < size; ++i) 
 1539              		.loc 1 495 0
 1540 0018 0123     		movs	r3, #1
 1541 001a BB81     		strh	r3, [r7, #12]	@ movhi
 1542 001c 18E0     		b	.L70
 1543              	.L73:
 496:main.c        ****     {
 497:main.c        ****         if ( arrayData[i] > maxValue ) 
 1544              		.loc 1 497 0
 1545 001e BB89     		ldrh	r3, [r7, #12]
 1546 0020 DB00     		lsls	r3, r3, #3
 1547 0022 7A68     		ldr	r2, [r7, #4]
 1548 0024 1344     		add	r3, r3, r2
 1549 0026 D3E90001 		ldrd	r0, [r3]
 1550 002a D7E90423 		ldrd	r2, [r7, #16]
 1551 002e FFF7FEFF 		bl	__aeabi_dcmpgt
 1552 0032 0346     		mov	r3, r0
 1553 0034 002B     		cmp	r3, #0
 1554 0036 08D0     		beq	.L71
 498:main.c        ****         {
 499:main.c        ****             maxValue = arrayData[i];
 1555              		.loc 1 499 0
 1556 0038 BB89     		ldrh	r3, [r7, #12]
 1557 003a DB00     		lsls	r3, r3, #3
 1558 003c 7A68     		ldr	r2, [r7, #4]
 1559 003e 1344     		add	r3, r3, r2
 1560 0040 18CB     		ldmia	r3, {r3-r4}
 1561 0042 C7E90434 		strd	r3, [r7, #16]
 500:main.c        ****             index = i;
 1562              		.loc 1 500 0
 1563 0046 BB89     		ldrh	r3, [r7, #12]	@ movhi
 1564 0048 FB81     		strh	r3, [r7, #14]	@ movhi
 1565              	.L71:
 495:main.c        ****     {
 1566              		.loc 1 495 0 discriminator 2
 1567 004a BB89     		ldrh	r3, [r7, #12]	@ movhi
 1568 004c 0133     		adds	r3, r3, #1
 1569 004e BB81     		strh	r3, [r7, #12]	@ movhi
 1570              	.L70:
 495:main.c        ****     {
 1571              		.loc 1 495 0 is_stmt 0 discriminator 1
 1572 0050 FB78     		ldrb	r3, [r7, #3]	@ zero_extendqisi2
 1573 0052 9BB2     		uxth	r3, r3
 1574 0054 BA89     		ldrh	r2, [r7, #12]
 1575 0056 9A42     		cmp	r2, r3
ARM GAS  C:\Users\riveraes\AppData\Local\Temp\ccjBcK2F.s 			page 38


 1576 0058 E1D3     		bcc	.L73
 1577              	.LBE11:
 501:main.c        ****         }
 502:main.c        ****     }
 503:main.c        ****     
 504:main.c        ****     return index;
 1578              		.loc 1 504 0 is_stmt 1
 1579 005a FB89     		ldrh	r3, [r7, #14]
 505:main.c        **** }
 1580              		.loc 1 505 0
 1581 005c 1846     		mov	r0, r3
 1582 005e 1C37     		adds	r7, r7, #28
 1583              		.cfi_def_cfa_offset 12
 1584 0060 BD46     		mov	sp, r7
 1585              		.cfi_def_cfa_register 13
 1586              		@ sp needed
 1587 0062 90BD     		pop	{r4, r7, pc}
 1588              		.cfi_endproc
 1589              	.LFE71:
 1590              		.size	getMaxValue, .-getMaxValue
 1591              		.section	.rodata
 1592 00a6 0000     		.align	2
 1593              	.LC20:
 1594 00a8 4465636F 		.ascii	"Decoded=1\015\012\000"
 1594      6465643D 
 1594      310D0A00 
 1595              		.align	2
 1596              	.LC21:
 1597 00b4 4465636F 		.ascii	"Decoded=2\015\012\000"
 1597      6465643D 
 1597      320D0A00 
 1598              		.align	2
 1599              	.LC22:
 1600 00c0 4465636F 		.ascii	"Decoded=3\015\012\000"
 1600      6465643D 
 1600      330D0A00 
 1601              		.align	2
 1602              	.LC23:
 1603 00cc 4465636F 		.ascii	"Decoded=4\015\012\000"
 1603      6465643D 
 1603      340D0A00 
 1604              		.align	2
 1605              	.LC24:
 1606 00d8 4465636F 		.ascii	"Decoded=5\015\012\000"
 1606      6465643D 
 1606      350D0A00 
 1607              		.align	2
 1608              	.LC25:
 1609 00e4 4465636F 		.ascii	"Decoded=6\015\012\000"
 1609      6465643D 
 1609      360D0A00 
 1610              		.align	2
 1611              	.LC26:
 1612 00f0 4465636F 		.ascii	"Decoded=7\015\012\000"
 1612      6465643D 
 1612      370D0A00 
 1613              		.align	2
ARM GAS  C:\Users\riveraes\AppData\Local\Temp\ccjBcK2F.s 			page 39


 1614              	.LC27:
 1615 00fc 4465636F 		.ascii	"Decoded=8\015\012\000"
 1615      6465643D 
 1615      380D0A00 
 1616              		.align	2
 1617              	.LC28:
 1618 0108 4465636F 		.ascii	"Decoded=9\015\012\000"
 1618      6465643D 
 1618      390D0A00 
 1619              		.align	2
 1620              	.LC29:
 1621 0114 4465636F 		.ascii	"Decoded=*\015\012\000"
 1621      6465643D 
 1621      2A0D0A00 
 1622              		.align	2
 1623              	.LC30:
 1624 0120 4465636F 		.ascii	"Decoded=0\015\012\000"
 1624      6465643D 
 1624      300D0A00 
 1625              		.align	2
 1626              	.LC31:
 1627 012c 4465636F 		.ascii	"Decoded=#\015\012\000"
 1627      6465643D 
 1627      230D0A00 
 1628              		.align	2
 1629              	.LC32:
 1630 0138 4465636F 		.ascii	"Decoded=Dummy\015\012\000"
 1630      6465643D 
 1630      44756D6D 
 1630      790D0A00 
 1631              		.section	.text.DecodeInput,"ax",%progbits
 1632              		.align	2
 1633              		.global	DecodeInput
 1634              		.thumb
 1635              		.thumb_func
 1636              		.type	DecodeInput, %function
 1637              	DecodeInput:
 1638              	.LFB72:
 506:main.c        **** 
 507:main.c        **** /*******************************************************************************
 508:main.c        **** * Function - Decode the frequencies found
 509:main.c        **** *******************************************************************************/
 510:main.c        **** void DecodeInput(int lo, int hi)
 511:main.c        **** {
 1639              		.loc 1 511 0
 1640              		.cfi_startproc
 1641              		@ args = 0, pretend = 0, frame = 8
 1642              		@ frame_needed = 1, uses_anonymous_args = 0
 1643 0000 80B5     		push	{r7, lr}
 1644              		.cfi_def_cfa_offset 8
 1645              		.cfi_offset 7, -8
 1646              		.cfi_offset 14, -4
 1647 0002 82B0     		sub	sp, sp, #8
 1648              		.cfi_def_cfa_offset 16
 1649 0004 00AF     		add	r7, sp, #0
 1650              		.cfi_def_cfa_register 7
 1651 0006 7860     		str	r0, [r7, #4]
ARM GAS  C:\Users\riveraes\AppData\Local\Temp\ccjBcK2F.s 			page 40


 1652 0008 3960     		str	r1, [r7]
 512:main.c        ****     // Keys 1,2,3
 513:main.c        ****     if ( (lo == loFrequency[1]) && (hi == hiFrequency[1]))
 1653              		.loc 1 513 0
 1654 000a 564B     		ldr	r3, .L92
 1655 000c 5A68     		ldr	r2, [r3, #4]
 1656 000e 7B68     		ldr	r3, [r7, #4]
 1657 0010 9A42     		cmp	r2, r3
 1658 0012 07D1     		bne	.L77
 1659              		.loc 1 513 0 is_stmt 0 discriminator 1
 1660 0014 544B     		ldr	r3, .L92+4
 1661 0016 5A68     		ldr	r2, [r3, #4]
 1662 0018 3B68     		ldr	r3, [r7]
 1663 001a 9A42     		cmp	r2, r3
 1664 001c 02D1     		bne	.L77
 514:main.c        ****         UART_1_PutString("Decoded=1\r\n");
 1665              		.loc 1 514 0 is_stmt 1
 1666 001e 5348     		ldr	r0, .L92+8
 1667 0020 FFF7FEFF 		bl	UART_1_PutString
 1668              	.L77:
 515:main.c        ****     if ( (lo == loFrequency[1]) && (hi == hiFrequency[2]))
 1669              		.loc 1 515 0
 1670 0024 4F4B     		ldr	r3, .L92
 1671 0026 5A68     		ldr	r2, [r3, #4]
 1672 0028 7B68     		ldr	r3, [r7, #4]
 1673 002a 9A42     		cmp	r2, r3
 1674 002c 07D1     		bne	.L78
 1675              		.loc 1 515 0 is_stmt 0 discriminator 1
 1676 002e 4E4B     		ldr	r3, .L92+4
 1677 0030 9A68     		ldr	r2, [r3, #8]
 1678 0032 3B68     		ldr	r3, [r7]
 1679 0034 9A42     		cmp	r2, r3
 1680 0036 02D1     		bne	.L78
 516:main.c        ****         UART_1_PutString("Decoded=2\r\n");
 1681              		.loc 1 516 0 is_stmt 1
 1682 0038 4D48     		ldr	r0, .L92+12
 1683 003a FFF7FEFF 		bl	UART_1_PutString
 1684              	.L78:
 517:main.c        ****     if ( (lo == loFrequency[1]) && (hi == hiFrequency[3]))
 1685              		.loc 1 517 0
 1686 003e 494B     		ldr	r3, .L92
 1687 0040 5A68     		ldr	r2, [r3, #4]
 1688 0042 7B68     		ldr	r3, [r7, #4]
 1689 0044 9A42     		cmp	r2, r3
 1690 0046 07D1     		bne	.L79
 1691              		.loc 1 517 0 is_stmt 0 discriminator 1
 1692 0048 474B     		ldr	r3, .L92+4
 1693 004a DA68     		ldr	r2, [r3, #12]
 1694 004c 3B68     		ldr	r3, [r7]
 1695 004e 9A42     		cmp	r2, r3
 1696 0050 02D1     		bne	.L79
 518:main.c        ****         UART_1_PutString("Decoded=3\r\n");
 1697              		.loc 1 518 0 is_stmt 1
 1698 0052 4848     		ldr	r0, .L92+16
 1699 0054 FFF7FEFF 		bl	UART_1_PutString
 1700              	.L79:
 519:main.c        ****     
ARM GAS  C:\Users\riveraes\AppData\Local\Temp\ccjBcK2F.s 			page 41


 520:main.c        ****     // Keys 4,5,6    
 521:main.c        ****     if ( (lo == loFrequency[2]) && (hi == hiFrequency[1]))
 1701              		.loc 1 521 0
 1702 0058 424B     		ldr	r3, .L92
 1703 005a 9A68     		ldr	r2, [r3, #8]
 1704 005c 7B68     		ldr	r3, [r7, #4]
 1705 005e 9A42     		cmp	r2, r3
 1706 0060 07D1     		bne	.L80
 1707              		.loc 1 521 0 is_stmt 0 discriminator 1
 1708 0062 414B     		ldr	r3, .L92+4
 1709 0064 5A68     		ldr	r2, [r3, #4]
 1710 0066 3B68     		ldr	r3, [r7]
 1711 0068 9A42     		cmp	r2, r3
 1712 006a 02D1     		bne	.L80
 522:main.c        ****         UART_1_PutString("Decoded=4\r\n");
 1713              		.loc 1 522 0 is_stmt 1
 1714 006c 4248     		ldr	r0, .L92+20
 1715 006e FFF7FEFF 		bl	UART_1_PutString
 1716              	.L80:
 523:main.c        ****     if ( (lo == loFrequency[2]) && (hi == hiFrequency[2]))
 1717              		.loc 1 523 0
 1718 0072 3C4B     		ldr	r3, .L92
 1719 0074 9A68     		ldr	r2, [r3, #8]
 1720 0076 7B68     		ldr	r3, [r7, #4]
 1721 0078 9A42     		cmp	r2, r3
 1722 007a 07D1     		bne	.L81
 1723              		.loc 1 523 0 is_stmt 0 discriminator 1
 1724 007c 3A4B     		ldr	r3, .L92+4
 1725 007e 9A68     		ldr	r2, [r3, #8]
 1726 0080 3B68     		ldr	r3, [r7]
 1727 0082 9A42     		cmp	r2, r3
 1728 0084 02D1     		bne	.L81
 524:main.c        ****         UART_1_PutString("Decoded=5\r\n");
 1729              		.loc 1 524 0 is_stmt 1
 1730 0086 3D48     		ldr	r0, .L92+24
 1731 0088 FFF7FEFF 		bl	UART_1_PutString
 1732              	.L81:
 525:main.c        ****     if ( (lo == loFrequency[2]) && (hi == hiFrequency[3]))
 1733              		.loc 1 525 0
 1734 008c 354B     		ldr	r3, .L92
 1735 008e 9A68     		ldr	r2, [r3, #8]
 1736 0090 7B68     		ldr	r3, [r7, #4]
 1737 0092 9A42     		cmp	r2, r3
 1738 0094 07D1     		bne	.L82
 1739              		.loc 1 525 0 is_stmt 0 discriminator 1
 1740 0096 344B     		ldr	r3, .L92+4
 1741 0098 DA68     		ldr	r2, [r3, #12]
 1742 009a 3B68     		ldr	r3, [r7]
 1743 009c 9A42     		cmp	r2, r3
 1744 009e 02D1     		bne	.L82
 526:main.c        ****         UART_1_PutString("Decoded=6\r\n");
 1745              		.loc 1 526 0 is_stmt 1
 1746 00a0 3748     		ldr	r0, .L92+28
 1747 00a2 FFF7FEFF 		bl	UART_1_PutString
 1748              	.L82:
 527:main.c        ****     
 528:main.c        ****     // Keys 7,8,9   
ARM GAS  C:\Users\riveraes\AppData\Local\Temp\ccjBcK2F.s 			page 42


 529:main.c        ****     if ( (lo == loFrequency[3]) && (hi == hiFrequency[1]))
 1749              		.loc 1 529 0
 1750 00a6 2F4B     		ldr	r3, .L92
 1751 00a8 DA68     		ldr	r2, [r3, #12]
 1752 00aa 7B68     		ldr	r3, [r7, #4]
 1753 00ac 9A42     		cmp	r2, r3
 1754 00ae 07D1     		bne	.L83
 1755              		.loc 1 529 0 is_stmt 0 discriminator 1
 1756 00b0 2D4B     		ldr	r3, .L92+4
 1757 00b2 5A68     		ldr	r2, [r3, #4]
 1758 00b4 3B68     		ldr	r3, [r7]
 1759 00b6 9A42     		cmp	r2, r3
 1760 00b8 02D1     		bne	.L83
 530:main.c        ****         UART_1_PutString("Decoded=7\r\n");
 1761              		.loc 1 530 0 is_stmt 1
 1762 00ba 3248     		ldr	r0, .L92+32
 1763 00bc FFF7FEFF 		bl	UART_1_PutString
 1764              	.L83:
 531:main.c        ****     if ( (lo == loFrequency[3]) && (hi == hiFrequency[2]))
 1765              		.loc 1 531 0
 1766 00c0 284B     		ldr	r3, .L92
 1767 00c2 DA68     		ldr	r2, [r3, #12]
 1768 00c4 7B68     		ldr	r3, [r7, #4]
 1769 00c6 9A42     		cmp	r2, r3
 1770 00c8 07D1     		bne	.L84
 1771              		.loc 1 531 0 is_stmt 0 discriminator 1
 1772 00ca 274B     		ldr	r3, .L92+4
 1773 00cc 9A68     		ldr	r2, [r3, #8]
 1774 00ce 3B68     		ldr	r3, [r7]
 1775 00d0 9A42     		cmp	r2, r3
 1776 00d2 02D1     		bne	.L84
 532:main.c        ****         UART_1_PutString("Decoded=8\r\n");
 1777              		.loc 1 532 0 is_stmt 1
 1778 00d4 2C48     		ldr	r0, .L92+36
 1779 00d6 FFF7FEFF 		bl	UART_1_PutString
 1780              	.L84:
 533:main.c        ****     if ( (lo == loFrequency[3]) && (hi == hiFrequency[3]))
 1781              		.loc 1 533 0
 1782 00da 224B     		ldr	r3, .L92
 1783 00dc DA68     		ldr	r2, [r3, #12]
 1784 00de 7B68     		ldr	r3, [r7, #4]
 1785 00e0 9A42     		cmp	r2, r3
 1786 00e2 07D1     		bne	.L85
 1787              		.loc 1 533 0 is_stmt 0 discriminator 1
 1788 00e4 204B     		ldr	r3, .L92+4
 1789 00e6 DA68     		ldr	r2, [r3, #12]
 1790 00e8 3B68     		ldr	r3, [r7]
 1791 00ea 9A42     		cmp	r2, r3
 1792 00ec 02D1     		bne	.L85
 534:main.c        ****         UART_1_PutString("Decoded=9\r\n");
 1793              		.loc 1 534 0 is_stmt 1
 1794 00ee 2748     		ldr	r0, .L92+40
 1795 00f0 FFF7FEFF 		bl	UART_1_PutString
 1796              	.L85:
 535:main.c        ****     
 536:main.c        ****     // Keys *,0,#    
 537:main.c        ****     if ( (lo == loFrequency[4]) && (hi == hiFrequency[1]))
ARM GAS  C:\Users\riveraes\AppData\Local\Temp\ccjBcK2F.s 			page 43


 1797              		.loc 1 537 0
 1798 00f4 1B4B     		ldr	r3, .L92
 1799 00f6 1A69     		ldr	r2, [r3, #16]
 1800 00f8 7B68     		ldr	r3, [r7, #4]
 1801 00fa 9A42     		cmp	r2, r3
 1802 00fc 07D1     		bne	.L86
 1803              		.loc 1 537 0 is_stmt 0 discriminator 1
 1804 00fe 1A4B     		ldr	r3, .L92+4
 1805 0100 5A68     		ldr	r2, [r3, #4]
 1806 0102 3B68     		ldr	r3, [r7]
 1807 0104 9A42     		cmp	r2, r3
 1808 0106 02D1     		bne	.L86
 538:main.c        ****         UART_1_PutString("Decoded=*\r\n");
 1809              		.loc 1 538 0 is_stmt 1
 1810 0108 2148     		ldr	r0, .L92+44
 1811 010a FFF7FEFF 		bl	UART_1_PutString
 1812              	.L86:
 539:main.c        ****     if ( (lo == loFrequency[4]) && (hi == hiFrequency[2]))
 1813              		.loc 1 539 0
 1814 010e 154B     		ldr	r3, .L92
 1815 0110 1A69     		ldr	r2, [r3, #16]
 1816 0112 7B68     		ldr	r3, [r7, #4]
 1817 0114 9A42     		cmp	r2, r3
 1818 0116 07D1     		bne	.L87
 1819              		.loc 1 539 0 is_stmt 0 discriminator 1
 1820 0118 134B     		ldr	r3, .L92+4
 1821 011a 9A68     		ldr	r2, [r3, #8]
 1822 011c 3B68     		ldr	r3, [r7]
 1823 011e 9A42     		cmp	r2, r3
 1824 0120 02D1     		bne	.L87
 540:main.c        ****         UART_1_PutString("Decoded=0\r\n");
 1825              		.loc 1 540 0 is_stmt 1
 1826 0122 1C48     		ldr	r0, .L92+48
 1827 0124 FFF7FEFF 		bl	UART_1_PutString
 1828              	.L87:
 541:main.c        ****     if ( (lo == loFrequency[4]) && (hi == hiFrequency[3]))
 1829              		.loc 1 541 0
 1830 0128 0E4B     		ldr	r3, .L92
 1831 012a 1A69     		ldr	r2, [r3, #16]
 1832 012c 7B68     		ldr	r3, [r7, #4]
 1833 012e 9A42     		cmp	r2, r3
 1834 0130 07D1     		bne	.L88
 1835              		.loc 1 541 0 is_stmt 0 discriminator 1
 1836 0132 0D4B     		ldr	r3, .L92+4
 1837 0134 DA68     		ldr	r2, [r3, #12]
 1838 0136 3B68     		ldr	r3, [r7]
 1839 0138 9A42     		cmp	r2, r3
 1840 013a 02D1     		bne	.L88
 542:main.c        ****         UART_1_PutString("Decoded=#\r\n");   
 1841              		.loc 1 542 0 is_stmt 1
 1842 013c 1648     		ldr	r0, .L92+52
 1843 013e FFF7FEFF 		bl	UART_1_PutString
 1844              	.L88:
 543:main.c        ****     
 544:main.c        ****     // Dummy Frequencies    
 545:main.c        ****     if ( (lo == loFrequency[0]) || (hi == hiFrequency[0]) )
 1845              		.loc 1 545 0
ARM GAS  C:\Users\riveraes\AppData\Local\Temp\ccjBcK2F.s 			page 44


 1846 0142 084B     		ldr	r3, .L92
 1847 0144 1A68     		ldr	r2, [r3]
 1848 0146 7B68     		ldr	r3, [r7, #4]
 1849 0148 9A42     		cmp	r2, r3
 1850 014a 04D0     		beq	.L89
 1851              		.loc 1 545 0 is_stmt 0 discriminator 1
 1852 014c 064B     		ldr	r3, .L92+4
 1853 014e 1A68     		ldr	r2, [r3]
 1854 0150 3B68     		ldr	r3, [r7]
 1855 0152 9A42     		cmp	r2, r3
 1856 0154 02D1     		bne	.L91
 1857              	.L89:
 546:main.c        ****         UART_1_PutString("Decoded=Dummy\r\n");
 1858              		.loc 1 546 0 is_stmt 1
 1859 0156 1148     		ldr	r0, .L92+56
 1860 0158 FFF7FEFF 		bl	UART_1_PutString
 1861              	.L91:
 547:main.c        ****  
 548:main.c        **** }
 1862              		.loc 1 548 0
 1863 015c 00BF     		nop
 1864 015e 0837     		adds	r7, r7, #8
 1865              		.cfi_def_cfa_offset 8
 1866 0160 BD46     		mov	sp, r7
 1867              		.cfi_def_cfa_register 13
 1868              		@ sp needed
 1869 0162 80BD     		pop	{r7, pc}
 1870              	.L93:
 1871              		.align	2
 1872              	.L92:
 1873 0164 00000000 		.word	loFrequency
 1874 0168 00000000 		.word	hiFrequency
 1875 016c A8000000 		.word	.LC20
 1876 0170 B4000000 		.word	.LC21
 1877 0174 C0000000 		.word	.LC22
 1878 0178 CC000000 		.word	.LC23
 1879 017c D8000000 		.word	.LC24
 1880 0180 E4000000 		.word	.LC25
 1881 0184 F0000000 		.word	.LC26
 1882 0188 FC000000 		.word	.LC27
 1883 018c 08010000 		.word	.LC28
 1884 0190 14010000 		.word	.LC29
 1885 0194 20010000 		.word	.LC30
 1886 0198 2C010000 		.word	.LC31
 1887 019c 38010000 		.word	.LC32
 1888              		.cfi_endproc
 1889              	.LFE72:
 1890              		.size	DecodeInput, .-DecodeInput
 1891              		.text
 1892              	.Letext0:
 1893              		.file 2 "c:\\program files (x86)\\cypress\\psoc creator\\4.1\\psoc creator\\import\\gnu\\arm\\5.4.
 1894              		.file 3 "c:\\program files (x86)\\cypress\\psoc creator\\4.1\\psoc creator\\import\\gnu\\arm\\5.4.
 1895              		.file 4 "Generated_Source\\PSoC5/cytypes.h"
 1896              		.file 5 "Generated_Source\\PSoC5/core_cm3.h"
 1897              		.section	.debug_info,"",%progbits
 1898              	.Ldebug_info0:
 1899 0000 C4050000 		.4byte	0x5c4
ARM GAS  C:\Users\riveraes\AppData\Local\Temp\ccjBcK2F.s 			page 45


 1900 0004 0400     		.2byte	0x4
 1901 0006 00000000 		.4byte	.Ldebug_abbrev0
 1902 000a 04       		.byte	0x4
 1903 000b 01       		.uleb128 0x1
 1904 000c AC000000 		.4byte	.LASF65
 1905 0010 0C       		.byte	0xc
 1906 0011 F0020000 		.4byte	.LASF66
 1907 0015 0E000000 		.4byte	.LASF67
 1908 0019 00000000 		.4byte	.Ldebug_ranges0+0
 1909 001d 00000000 		.4byte	0
 1910 0021 00000000 		.4byte	.Ldebug_line0
 1911 0025 02       		.uleb128 0x2
 1912 0026 01       		.byte	0x1
 1913 0027 06       		.byte	0x6
 1914 0028 25020000 		.4byte	.LASF0
 1915 002c 02       		.uleb128 0x2
 1916 002d 01       		.byte	0x1
 1917 002e 08       		.byte	0x8
 1918 002f 0F020000 		.4byte	.LASF1
 1919 0033 02       		.uleb128 0x2
 1920 0034 02       		.byte	0x2
 1921 0035 05       		.byte	0x5
 1922 0036 58010000 		.4byte	.LASF2
 1923 003a 02       		.uleb128 0x2
 1924 003b 02       		.byte	0x2
 1925 003c 07       		.byte	0x7
 1926 003d 70020000 		.4byte	.LASF3
 1927 0041 03       		.uleb128 0x3
 1928 0042 41030000 		.4byte	.LASF9
 1929 0046 02       		.byte	0x2
 1930 0047 3F       		.byte	0x3f
 1931 0048 4C000000 		.4byte	0x4c
 1932 004c 02       		.uleb128 0x2
 1933 004d 04       		.byte	0x4
 1934 004e 05       		.byte	0x5
 1935 004f C4010000 		.4byte	.LASF4
 1936 0053 02       		.uleb128 0x2
 1937 0054 04       		.byte	0x4
 1938 0055 07       		.byte	0x7
 1939 0056 11030000 		.4byte	.LASF5
 1940 005a 02       		.uleb128 0x2
 1941 005b 08       		.byte	0x8
 1942 005c 05       		.byte	0x5
 1943 005d AB010000 		.4byte	.LASF6
 1944 0061 02       		.uleb128 0x2
 1945 0062 08       		.byte	0x8
 1946 0063 07       		.byte	0x7
 1947 0064 39020000 		.4byte	.LASF7
 1948 0068 04       		.uleb128 0x4
 1949 0069 04       		.byte	0x4
 1950 006a 05       		.byte	0x5
 1951 006b 696E7400 		.ascii	"int\000"
 1952 006f 02       		.uleb128 0x2
 1953 0070 04       		.byte	0x4
 1954 0071 07       		.byte	0x7
 1955 0072 50020000 		.4byte	.LASF8
 1956 0076 03       		.uleb128 0x3
ARM GAS  C:\Users\riveraes\AppData\Local\Temp\ccjBcK2F.s 			page 46


 1957 0077 31020000 		.4byte	.LASF10
 1958 007b 03       		.byte	0x3
 1959 007c 2C       		.byte	0x2c
 1960 007d 41000000 		.4byte	0x41
 1961 0081 05       		.uleb128 0x5
 1962 0082 8C010000 		.4byte	.LASF11
 1963 0086 04       		.byte	0x4
 1964 0087 9201     		.2byte	0x192
 1965 0089 2C000000 		.4byte	0x2c
 1966 008d 05       		.uleb128 0x5
 1967 008e 7F010000 		.4byte	.LASF12
 1968 0092 04       		.byte	0x4
 1969 0093 9301     		.2byte	0x193
 1970 0095 3A000000 		.4byte	0x3a
 1971 0099 05       		.uleb128 0x5
 1972 009a 86010000 		.4byte	.LASF13
 1973 009e 04       		.byte	0x4
 1974 009f 9601     		.2byte	0x196
 1975 00a1 33000000 		.4byte	0x33
 1976 00a5 02       		.uleb128 0x2
 1977 00a6 04       		.byte	0x4
 1978 00a7 04       		.byte	0x4
 1979 00a8 A5010000 		.4byte	.LASF14
 1980 00ac 02       		.uleb128 0x2
 1981 00ad 08       		.byte	0x8
 1982 00ae 04       		.byte	0x4
 1983 00af 2F030000 		.4byte	.LASF15
 1984 00b3 02       		.uleb128 0x2
 1985 00b4 01       		.byte	0x1
 1986 00b5 08       		.byte	0x8
 1987 00b6 94020000 		.4byte	.LASF16
 1988 00ba 02       		.uleb128 0x2
 1989 00bb 08       		.byte	0x8
 1990 00bc 04       		.byte	0x4
 1991 00bd 47010000 		.4byte	.LASF17
 1992 00c1 02       		.uleb128 0x2
 1993 00c2 04       		.byte	0x4
 1994 00c3 07       		.byte	0x7
 1995 00c4 4B030000 		.4byte	.LASF18
 1996 00c8 06       		.uleb128 0x6
 1997 00c9 62020000 		.4byte	.LASF26
 1998 00cd 01       		.byte	0x1
 1999 00ce 3C       		.byte	0x3c
 2000 00cf 00000000 		.4byte	.LFB64
 2001 00d3 28000000 		.4byte	.LFE64-.LFB64
 2002 00d7 01       		.uleb128 0x1
 2003 00d8 9C       		.byte	0x9c
 2004 00d9 07       		.uleb128 0x7
 2005 00da A0020000 		.4byte	.LASF20
 2006 00de 01       		.byte	0x1
 2007 00df 48       		.byte	0x48
 2008 00e0 68000000 		.4byte	0x68
 2009 00e4 00000000 		.4byte	.LFB65
 2010 00e8 20050000 		.4byte	.LFE65-.LFB65
 2011 00ec 01       		.uleb128 0x1
 2012 00ed 9C       		.byte	0x9c
 2013 00ee 44010000 		.4byte	0x144
ARM GAS  C:\Users\riveraes\AppData\Local\Temp\ccjBcK2F.s 			page 47


 2014 00f2 08       		.uleb128 0x8
 2015 00f3 38030000 		.4byte	.LBB2
 2016 00f7 88000000 		.4byte	.LBE2-.LBB2
 2017 00fb 0E010000 		.4byte	0x10e
 2018 00ff 09       		.uleb128 0x9
 2019 0100 CD010000 		.4byte	.LASF19
 2020 0104 01       		.byte	0x1
 2021 0105 E8       		.byte	0xe8
 2022 0106 99000000 		.4byte	0x99
 2023 010a 02       		.uleb128 0x2
 2024 010b 91       		.byte	0x91
 2025 010c 76       		.sleb128 -10
 2026 010d 00       		.byte	0
 2027 010e 08       		.uleb128 0x8
 2028 010f C6030000 		.4byte	.LBB3
 2029 0113 38000000 		.4byte	.LBE3-.LBB3
 2030 0117 2A010000 		.4byte	0x12a
 2031 011b 09       		.uleb128 0x9
 2032 011c CD010000 		.4byte	.LASF19
 2033 0120 01       		.byte	0x1
 2034 0121 F5       		.byte	0xf5
 2035 0122 99000000 		.4byte	0x99
 2036 0126 02       		.uleb128 0x2
 2037 0127 91       		.byte	0x91
 2038 0128 74       		.sleb128 -12
 2039 0129 00       		.byte	0
 2040 012a 0A       		.uleb128 0xa
 2041 012b 10040000 		.4byte	.LBB4
 2042 012f 46000000 		.4byte	.LBE4-.LBB4
 2043 0133 0B       		.uleb128 0xb
 2044 0134 CD010000 		.4byte	.LASF19
 2045 0138 01       		.byte	0x1
 2046 0139 0601     		.2byte	0x106
 2047 013b 99000000 		.4byte	0x99
 2048 013f 02       		.uleb128 0x2
 2049 0140 91       		.byte	0x91
 2050 0141 72       		.sleb128 -14
 2051 0142 00       		.byte	0
 2052 0143 00       		.byte	0
 2053 0144 0C       		.uleb128 0xc
 2054 0145 F7020000 		.4byte	.LASF21
 2055 0149 01       		.byte	0x1
 2056 014a 6B01     		.2byte	0x16b
 2057 014c 00000000 		.4byte	.LFB66
 2058 0150 60000000 		.4byte	.LFE66-.LFB66
 2059 0154 01       		.uleb128 0x1
 2060 0155 9C       		.byte	0x9c
 2061 0156 88010000 		.4byte	0x188
 2062 015a 0D       		.uleb128 0xd
 2063 015b 77030000 		.4byte	.LASF25
 2064 015f 01       		.byte	0x1
 2065 0160 6B01     		.2byte	0x16b
 2066 0162 68000000 		.4byte	0x68
 2067 0166 02       		.uleb128 0x2
 2068 0167 91       		.byte	0x91
 2069 0168 5C       		.sleb128 -36
 2070 0169 0B       		.uleb128 0xb
ARM GAS  C:\Users\riveraes\AppData\Local\Temp\ccjBcK2F.s 			page 48


 2071 016a 53010000 		.4byte	.LASF22
 2072 016e 01       		.byte	0x1
 2073 016f 6D01     		.2byte	0x16d
 2074 0171 AC000000 		.4byte	0xac
 2075 0175 02       		.uleb128 0x2
 2076 0176 91       		.byte	0x91
 2077 0177 68       		.sleb128 -24
 2078 0178 0B       		.uleb128 0xb
 2079 0179 92010000 		.4byte	.LASF23
 2080 017d 01       		.byte	0x1
 2081 017e 6E01     		.2byte	0x16e
 2082 0180 AC000000 		.4byte	0xac
 2083 0184 02       		.uleb128 0x2
 2084 0185 91       		.byte	0x91
 2085 0186 60       		.sleb128 -32
 2086 0187 00       		.byte	0
 2087 0188 0C       		.uleb128 0xc
 2088 0189 AE030000 		.4byte	.LASF24
 2089 018d 01       		.byte	0x1
 2090 018e 7501     		.2byte	0x175
 2091 0190 00000000 		.4byte	.LFB67
 2092 0194 60000000 		.4byte	.LFE67-.LFB67
 2093 0198 01       		.uleb128 0x1
 2094 0199 9C       		.byte	0x9c
 2095 019a CC010000 		.4byte	0x1cc
 2096 019e 0D       		.uleb128 0xd
 2097 019f 77030000 		.4byte	.LASF25
 2098 01a3 01       		.byte	0x1
 2099 01a4 7501     		.2byte	0x175
 2100 01a6 68000000 		.4byte	0x68
 2101 01aa 02       		.uleb128 0x2
 2102 01ab 91       		.byte	0x91
 2103 01ac 5C       		.sleb128 -36
 2104 01ad 0B       		.uleb128 0xb
 2105 01ae 53010000 		.4byte	.LASF22
 2106 01b2 01       		.byte	0x1
 2107 01b3 7701     		.2byte	0x177
 2108 01b5 AC000000 		.4byte	0xac
 2109 01b9 02       		.uleb128 0x2
 2110 01ba 91       		.byte	0x91
 2111 01bb 68       		.sleb128 -24
 2112 01bc 0B       		.uleb128 0xb
 2113 01bd 92010000 		.4byte	.LASF23
 2114 01c1 01       		.byte	0x1
 2115 01c2 7801     		.2byte	0x178
 2116 01c4 AC000000 		.4byte	0xac
 2117 01c8 02       		.uleb128 0x2
 2118 01c9 91       		.byte	0x91
 2119 01ca 60       		.sleb128 -32
 2120 01cb 00       		.byte	0
 2121 01cc 0E       		.uleb128 0xe
 2122 01cd 3A010000 		.4byte	.LASF27
 2123 01d1 01       		.byte	0x1
 2124 01d2 7F01     		.2byte	0x17f
 2125 01d4 00000000 		.4byte	.LFB68
 2126 01d8 28000000 		.4byte	.LFE68-.LFB68
 2127 01dc 01       		.uleb128 0x1
ARM GAS  C:\Users\riveraes\AppData\Local\Temp\ccjBcK2F.s 			page 49


 2128 01dd 9C       		.byte	0x9c
 2129 01de 0C       		.uleb128 0xc
 2130 01df 83020000 		.4byte	.LASF28
 2131 01e3 01       		.byte	0x1
 2132 01e4 9101     		.2byte	0x191
 2133 01e6 00000000 		.4byte	.LFB69
 2134 01ea 90020000 		.4byte	.LFE69-.LFB69
 2135 01ee 01       		.uleb128 0x1
 2136 01ef 9C       		.byte	0x9c
 2137 01f0 A9020000 		.4byte	0x2a9
 2138 01f4 0B       		.uleb128 0xb
 2139 01f5 99020000 		.4byte	.LASF29
 2140 01f9 01       		.byte	0x1
 2141 01fa 9301     		.2byte	0x193
 2142 01fc A9020000 		.4byte	0x2a9
 2143 0200 03       		.uleb128 0x3
 2144 0201 91       		.byte	0x91
 2145 0202 8857     		.sleb128 -5240
 2146 0204 0B       		.uleb128 0xb
 2147 0205 54030000 		.4byte	.LASF30
 2148 0209 01       		.byte	0x1
 2149 020a 9C01     		.2byte	0x19c
 2150 020c BA020000 		.4byte	0x2ba
 2151 0210 03       		.uleb128 0x3
 2152 0211 91       		.byte	0x91
 2153 0212 E056     		.sleb128 -5280
 2154 0214 0B       		.uleb128 0xb
 2155 0215 F5010000 		.4byte	.LASF31
 2156 0219 01       		.byte	0x1
 2157 021a 9D01     		.2byte	0x19d
 2158 021c CA020000 		.4byte	0x2ca
 2159 0220 03       		.uleb128 0x3
 2160 0221 91       		.byte	0x91
 2161 0222 C056     		.sleb128 -5312
 2162 0224 0B       		.uleb128 0xb
 2163 0225 D7020000 		.4byte	.LASF32
 2164 0229 01       		.byte	0x1
 2165 022a A901     		.2byte	0x1a9
 2166 022c 8D000000 		.4byte	0x8d
 2167 0230 02       		.uleb128 0x2
 2168 0231 91       		.byte	0x91
 2169 0232 5E       		.sleb128 -34
 2170 0233 0B       		.uleb128 0xb
 2171 0234 A6000000 		.4byte	.LASF33
 2172 0238 01       		.byte	0x1
 2173 0239 AA01     		.2byte	0x1aa
 2174 023b 8D000000 		.4byte	0x8d
 2175 023f 02       		.uleb128 0x2
 2176 0240 91       		.byte	0x91
 2177 0241 5C       		.sleb128 -36
 2178 0242 08       		.uleb128 0x8
 2179 0243 0A000000 		.4byte	.LBB5
 2180 0247 B2000000 		.4byte	.LBE5-.LBB5
 2181 024b 76020000 		.4byte	0x276
 2182 024f 0F       		.uleb128 0xf
 2183 0250 6900     		.ascii	"i\000"
 2184 0252 01       		.byte	0x1
ARM GAS  C:\Users\riveraes\AppData\Local\Temp\ccjBcK2F.s 			page 50


 2185 0253 9401     		.2byte	0x194
 2186 0255 68000000 		.4byte	0x68
 2187 0259 02       		.uleb128 0x2
 2188 025a 91       		.byte	0x91
 2189 025b 6C       		.sleb128 -20
 2190 025c 0A       		.uleb128 0xa
 2191 025d 18000000 		.4byte	.LBB6
 2192 0261 7C000000 		.4byte	.LBE6-.LBB6
 2193 0265 0B       		.uleb128 0xb
 2194 0266 BE010000 		.4byte	.LASF34
 2195 026a 01       		.byte	0x1
 2196 026b 9601     		.2byte	0x196
 2197 026d AC000000 		.4byte	0xac
 2198 0271 02       		.uleb128 0x2
 2199 0272 91       		.byte	0x91
 2200 0273 60       		.sleb128 -32
 2201 0274 00       		.byte	0
 2202 0275 00       		.byte	0
 2203 0276 08       		.uleb128 0x8
 2204 0277 E0000000 		.4byte	.LBB7
 2205 027b 70000000 		.4byte	.LBE7-.LBB7
 2206 027f 91020000 		.4byte	0x291
 2207 0283 0F       		.uleb128 0xf
 2208 0284 6900     		.ascii	"i\000"
 2209 0286 01       		.byte	0x1
 2210 0287 9F01     		.2byte	0x19f
 2211 0289 81000000 		.4byte	0x81
 2212 028d 02       		.uleb128 0x2
 2213 028e 91       		.byte	0x91
 2214 028f 6B       		.sleb128 -21
 2215 0290 00       		.byte	0
 2216 0291 0A       		.uleb128 0xa
 2217 0292 50010000 		.4byte	.LBB8
 2218 0296 70000000 		.4byte	.LBE8-.LBB8
 2219 029a 0F       		.uleb128 0xf
 2220 029b 6900     		.ascii	"i\000"
 2221 029d 01       		.byte	0x1
 2222 029e A401     		.2byte	0x1a4
 2223 02a0 81000000 		.4byte	0x81
 2224 02a4 02       		.uleb128 0x2
 2225 02a5 91       		.byte	0x91
 2226 02a6 6A       		.sleb128 -22
 2227 02a7 00       		.byte	0
 2228 02a8 00       		.byte	0
 2229 02a9 10       		.uleb128 0x10
 2230 02aa AC000000 		.4byte	0xac
 2231 02ae BA020000 		.4byte	0x2ba
 2232 02b2 11       		.uleb128 0x11
 2233 02b3 C1000000 		.4byte	0xc1
 2234 02b7 8902     		.2byte	0x289
 2235 02b9 00       		.byte	0
 2236 02ba 10       		.uleb128 0x10
 2237 02bb AC000000 		.4byte	0xac
 2238 02bf CA020000 		.4byte	0x2ca
 2239 02c3 12       		.uleb128 0x12
 2240 02c4 C1000000 		.4byte	0xc1
 2241 02c8 04       		.byte	0x4
ARM GAS  C:\Users\riveraes\AppData\Local\Temp\ccjBcK2F.s 			page 51


 2242 02c9 00       		.byte	0
 2243 02ca 10       		.uleb128 0x10
 2244 02cb AC000000 		.4byte	0xac
 2245 02cf DA020000 		.4byte	0x2da
 2246 02d3 12       		.uleb128 0x12
 2247 02d4 C1000000 		.4byte	0xc1
 2248 02d8 03       		.byte	0x3
 2249 02d9 00       		.byte	0
 2250 02da 13       		.uleb128 0x13
 2251 02db 87030000 		.4byte	.LASF49
 2252 02df 01       		.byte	0x1
 2253 02e0 BA01     		.2byte	0x1ba
 2254 02e2 AC000000 		.4byte	0xac
 2255 02e6 00000000 		.4byte	.LFB70
 2256 02ea 1C020000 		.4byte	.LFE70-.LFB70
 2257 02ee 01       		.uleb128 0x1
 2258 02ef 9C       		.byte	0x9c
 2259 02f0 36040000 		.4byte	0x436
 2260 02f4 0D       		.uleb128 0xd
 2261 02f5 CC020000 		.4byte	.LASF35
 2262 02f9 01       		.byte	0x1
 2263 02fa BA01     		.2byte	0x1ba
 2264 02fc 68000000 		.4byte	0x68
 2265 0300 03       		.uleb128 0x3
 2266 0301 91       		.byte	0x91
 2267 0302 F47E     		.sleb128 -140
 2268 0304 0D       		.uleb128 0xd
 2269 0305 A3030000 		.4byte	.LASF36
 2270 0309 01       		.byte	0x1
 2271 030a BA01     		.2byte	0x1ba
 2272 030c 68000000 		.4byte	0x68
 2273 0310 03       		.uleb128 0x3
 2274 0311 91       		.byte	0x91
 2275 0312 F07E     		.sleb128 -144
 2276 0314 0D       		.uleb128 0xd
 2277 0315 71010000 		.4byte	.LASF37
 2278 0319 01       		.byte	0x1
 2279 031a BA01     		.2byte	0x1ba
 2280 031c 68000000 		.4byte	0x68
 2281 0320 03       		.uleb128 0x3
 2282 0321 91       		.byte	0x91
 2283 0322 EC7E     		.sleb128 -148
 2284 0324 0D       		.uleb128 0xd
 2285 0325 DD020000 		.4byte	.LASF38
 2286 0329 01       		.byte	0x1
 2287 032a BA01     		.2byte	0x1ba
 2288 032c 36040000 		.4byte	0x436
 2289 0330 03       		.uleb128 0x3
 2290 0331 91       		.byte	0x91
 2291 0332 E87E     		.sleb128 -152
 2292 0334 0F       		.uleb128 0xf
 2293 0335 6B00     		.ascii	"k\000"
 2294 0337 01       		.byte	0x1
 2295 0338 BC01     		.2byte	0x1bc
 2296 033a 68000000 		.4byte	0x68
 2297 033e 02       		.uleb128 0x2
 2298 033f 91       		.byte	0x91
ARM GAS  C:\Users\riveraes\AppData\Local\Temp\ccjBcK2F.s 			page 52


 2299 0340 44       		.sleb128 -60
 2300 0341 14       		.uleb128 0x14
 2301 0342 6900     		.ascii	"i\000"
 2302 0344 01       		.byte	0x1
 2303 0345 BD01     		.2byte	0x1bd
 2304 0347 68000000 		.4byte	0x68
 2305 034b 0B       		.uleb128 0xb
 2306 034c BC020000 		.4byte	.LASF39
 2307 0350 01       		.byte	0x1
 2308 0351 BE01     		.2byte	0x1be
 2309 0353 AC000000 		.4byte	0xac
 2310 0357 02       		.uleb128 0x2
 2311 0358 91       		.byte	0x91
 2312 0359 48       		.sleb128 -56
 2313 035a 0B       		.uleb128 0xb
 2314 035b EF010000 		.4byte	.LASF40
 2315 035f 01       		.byte	0x1
 2316 0360 BF01     		.2byte	0x1bf
 2317 0362 AC000000 		.4byte	0xac
 2318 0366 03       		.uleb128 0x3
 2319 0367 91       		.byte	0x91
 2320 0368 B87F     		.sleb128 -72
 2321 036a 0B       		.uleb128 0xb
 2322 036b 6B020000 		.4byte	.LASF41
 2323 036f 01       		.byte	0x1
 2324 0370 C001     		.2byte	0x1c0
 2325 0372 AC000000 		.4byte	0xac
 2326 0376 03       		.uleb128 0x3
 2327 0377 91       		.byte	0x91
 2328 0378 B07F     		.sleb128 -80
 2329 037a 0B       		.uleb128 0xb
 2330 037b 08020000 		.4byte	.LASF42
 2331 037f 01       		.byte	0x1
 2332 0380 C101     		.2byte	0x1c1
 2333 0382 AC000000 		.4byte	0xac
 2334 0386 03       		.uleb128 0x3
 2335 0387 91       		.byte	0x91
 2336 0388 A87F     		.sleb128 -88
 2337 038a 0B       		.uleb128 0xb
 2338 038b 02020000 		.4byte	.LASF43
 2339 038f 01       		.byte	0x1
 2340 0390 C201     		.2byte	0x1c2
 2341 0392 AC000000 		.4byte	0xac
 2342 0396 03       		.uleb128 0x3
 2343 0397 91       		.byte	0x91
 2344 0398 A07F     		.sleb128 -96
 2345 039a 0F       		.uleb128 0xf
 2346 039b 713000   		.ascii	"q0\000"
 2347 039e 01       		.byte	0x1
 2348 039f C301     		.2byte	0x1c3
 2349 03a1 AC000000 		.4byte	0xac
 2350 03a5 03       		.uleb128 0x3
 2351 03a6 91       		.byte	0x91
 2352 03a7 987F     		.sleb128 -104
 2353 03a9 0F       		.uleb128 0xf
 2354 03aa 713100   		.ascii	"q1\000"
 2355 03ad 01       		.byte	0x1
ARM GAS  C:\Users\riveraes\AppData\Local\Temp\ccjBcK2F.s 			page 53


 2356 03ae C401     		.2byte	0x1c4
 2357 03b0 AC000000 		.4byte	0xac
 2358 03b4 02       		.uleb128 0x2
 2359 03b5 91       		.byte	0x91
 2360 03b6 68       		.sleb128 -24
 2361 03b7 0F       		.uleb128 0xf
 2362 03b8 713200   		.ascii	"q2\000"
 2363 03bb 01       		.byte	0x1
 2364 03bc C501     		.2byte	0x1c5
 2365 03be AC000000 		.4byte	0xac
 2366 03c2 02       		.uleb128 0x2
 2367 03c3 91       		.byte	0x91
 2368 03c4 60       		.sleb128 -32
 2369 03c5 0B       		.uleb128 0xb
 2370 03c6 61030000 		.4byte	.LASF44
 2371 03ca 01       		.byte	0x1
 2372 03cb C601     		.2byte	0x1c6
 2373 03cd AC000000 		.4byte	0xac
 2374 03d1 03       		.uleb128 0x3
 2375 03d2 91       		.byte	0x91
 2376 03d3 F87E     		.sleb128 -136
 2377 03d5 0B       		.uleb128 0xb
 2378 03d6 B9010000 		.4byte	.LASF45
 2379 03da 01       		.byte	0x1
 2380 03db C701     		.2byte	0x1c7
 2381 03dd AC000000 		.4byte	0xac
 2382 03e1 03       		.uleb128 0x3
 2383 03e2 91       		.byte	0x91
 2384 03e3 887F     		.sleb128 -120
 2385 03e5 0B       		.uleb128 0xb
 2386 03e6 5D020000 		.4byte	.LASF46
 2387 03ea 01       		.byte	0x1
 2388 03eb C801     		.2byte	0x1c8
 2389 03ed AC000000 		.4byte	0xac
 2390 03f1 03       		.uleb128 0x3
 2391 03f2 91       		.byte	0x91
 2392 03f3 807F     		.sleb128 -128
 2393 03f5 0B       		.uleb128 0xb
 2394 03f6 E2020000 		.4byte	.LASF47
 2395 03fa 01       		.byte	0x1
 2396 03fb CA01     		.2byte	0x1ca
 2397 03fd AC000000 		.4byte	0xac
 2398 0401 02       		.uleb128 0x2
 2399 0402 91       		.byte	0x91
 2400 0403 50       		.sleb128 -48
 2401 0404 0A       		.uleb128 0xa
 2402 0405 F8000000 		.4byte	.LBB9
 2403 0409 70000000 		.4byte	.LBE9-.LBB9
 2404 040d 0F       		.uleb128 0xf
 2405 040e 6900     		.ascii	"i\000"
 2406 0410 01       		.byte	0x1
 2407 0411 D601     		.2byte	0x1d6
 2408 0413 8D000000 		.4byte	0x8d
 2409 0417 02       		.uleb128 0x2
 2410 0418 91       		.byte	0x91
 2411 0419 5E       		.sleb128 -34
 2412 041a 0A       		.uleb128 0xa
ARM GAS  C:\Users\riveraes\AppData\Local\Temp\ccjBcK2F.s 			page 54


 2413 041b 00010000 		.4byte	.LBB10
 2414 041f 54000000 		.4byte	.LBE10-.LBB10
 2415 0423 0B       		.uleb128 0xb
 2416 0424 9F010000 		.4byte	.LASF48
 2417 0428 01       		.byte	0x1
 2418 0429 D801     		.2byte	0x1d8
 2419 042b AC000000 		.4byte	0xac
 2420 042f 03       		.uleb128 0x3
 2421 0430 91       		.byte	0x91
 2422 0431 907F     		.sleb128 -112
 2423 0433 00       		.byte	0
 2424 0434 00       		.byte	0
 2425 0435 00       		.byte	0
 2426 0436 15       		.uleb128 0x15
 2427 0437 04       		.byte	0x4
 2428 0438 AC000000 		.4byte	0xac
 2429 043c 13       		.uleb128 0x13
 2430 043d 88020000 		.4byte	.LASF50
 2431 0441 01       		.byte	0x1
 2432 0442 EB01     		.2byte	0x1eb
 2433 0444 8D000000 		.4byte	0x8d
 2434 0448 00000000 		.4byte	.LFB71
 2435 044c 64000000 		.4byte	.LFE71-.LFB71
 2436 0450 01       		.uleb128 0x1
 2437 0451 9C       		.byte	0x9c
 2438 0452 AA040000 		.4byte	0x4aa
 2439 0456 0D       		.uleb128 0xd
 2440 0457 A5020000 		.4byte	.LASF51
 2441 045b 01       		.byte	0x1
 2442 045c EB01     		.2byte	0x1eb
 2443 045e 36040000 		.4byte	0x436
 2444 0462 02       		.uleb128 0x2
 2445 0463 91       		.byte	0x91
 2446 0464 5C       		.sleb128 -36
 2447 0465 0D       		.uleb128 0xd
 2448 0466 3C030000 		.4byte	.LASF52
 2449 046a 01       		.byte	0x1
 2450 046b EB01     		.2byte	0x1eb
 2451 046d 81000000 		.4byte	0x81
 2452 0471 02       		.uleb128 0x2
 2453 0472 91       		.byte	0x91
 2454 0473 5B       		.sleb128 -37
 2455 0474 0B       		.uleb128 0xb
 2456 0475 DA010000 		.4byte	.LASF53
 2457 0479 01       		.byte	0x1
 2458 047a ED01     		.2byte	0x1ed
 2459 047c AC000000 		.4byte	0xac
 2460 0480 02       		.uleb128 0x2
 2461 0481 91       		.byte	0x91
 2462 0482 68       		.sleb128 -24
 2463 0483 0B       		.uleb128 0xb
 2464 0484 9D030000 		.4byte	.LASF54
 2465 0488 01       		.byte	0x1
 2466 0489 EE01     		.2byte	0x1ee
 2467 048b 8D000000 		.4byte	0x8d
 2468 048f 02       		.uleb128 0x2
 2469 0490 91       		.byte	0x91
ARM GAS  C:\Users\riveraes\AppData\Local\Temp\ccjBcK2F.s 			page 55


 2470 0491 66       		.sleb128 -26
 2471 0492 0A       		.uleb128 0xa
 2472 0493 18000000 		.4byte	.LBB11
 2473 0497 42000000 		.4byte	.LBE11-.LBB11
 2474 049b 0F       		.uleb128 0xf
 2475 049c 6900     		.ascii	"i\000"
 2476 049e 01       		.byte	0x1
 2477 049f EF01     		.2byte	0x1ef
 2478 04a1 8D000000 		.4byte	0x8d
 2479 04a5 02       		.uleb128 0x2
 2480 04a6 91       		.byte	0x91
 2481 04a7 64       		.sleb128 -28
 2482 04a8 00       		.byte	0
 2483 04a9 00       		.byte	0
 2484 04aa 0C       		.uleb128 0xc
 2485 04ab 23030000 		.4byte	.LASF55
 2486 04af 01       		.byte	0x1
 2487 04b0 FE01     		.2byte	0x1fe
 2488 04b2 00000000 		.4byte	.LFB72
 2489 04b6 A0010000 		.4byte	.LFE72-.LFB72
 2490 04ba 01       		.uleb128 0x1
 2491 04bb 9C       		.byte	0x9c
 2492 04bc DD040000 		.4byte	0x4dd
 2493 04c0 16       		.uleb128 0x16
 2494 04c1 6C6F00   		.ascii	"lo\000"
 2495 04c4 01       		.byte	0x1
 2496 04c5 FE01     		.2byte	0x1fe
 2497 04c7 68000000 		.4byte	0x68
 2498 04cb 02       		.uleb128 0x2
 2499 04cc 91       		.byte	0x91
 2500 04cd 74       		.sleb128 -12
 2501 04ce 16       		.uleb128 0x16
 2502 04cf 686900   		.ascii	"hi\000"
 2503 04d2 01       		.byte	0x1
 2504 04d3 FE01     		.2byte	0x1fe
 2505 04d5 68000000 		.4byte	0x68
 2506 04d9 02       		.uleb128 0x2
 2507 04da 91       		.byte	0x91
 2508 04db 70       		.sleb128 -16
 2509 04dc 00       		.byte	0
 2510 04dd 17       		.uleb128 0x17
 2511 04de 90030000 		.4byte	.LASF56
 2512 04e2 05       		.byte	0x5
 2513 04e3 1207     		.2byte	0x712
 2514 04e5 E9040000 		.4byte	0x4e9
 2515 04e9 18       		.uleb128 0x18
 2516 04ea 76000000 		.4byte	0x76
 2517 04ee 10       		.uleb128 0x10
 2518 04ef B3000000 		.4byte	0xb3
 2519 04f3 FE040000 		.4byte	0x4fe
 2520 04f7 12       		.uleb128 0x12
 2521 04f8 C1000000 		.4byte	0xc1
 2522 04fc 0F       		.byte	0xf
 2523 04fd 00       		.byte	0
 2524 04fe 19       		.uleb128 0x19
 2525 04ff 62010000 		.4byte	.LASF57
 2526 0503 01       		.byte	0x1
ARM GAS  C:\Users\riveraes\AppData\Local\Temp\ccjBcK2F.s 			page 56


 2527 0504 20       		.byte	0x20
 2528 0505 EE040000 		.4byte	0x4ee
 2529 0509 05       		.uleb128 0x5
 2530 050a 03       		.byte	0x3
 2531 050b 00000000 		.4byte	TransmitBuffer
 2532 050f 19       		.uleb128 0x19
 2533 0510 9F000000 		.4byte	.LASF58
 2534 0514 01       		.byte	0x1
 2535 0515 22       		.byte	0x22
 2536 0516 8D000000 		.4byte	0x8d
 2537 051a 05       		.uleb128 0x5
 2538 051b 03       		.byte	0x3
 2539 051c 00000000 		.4byte	Output
 2540 0520 10       		.uleb128 0x10
 2541 0521 99000000 		.4byte	0x99
 2542 0525 31050000 		.4byte	0x531
 2543 0529 11       		.uleb128 0x11
 2544 052a C1000000 		.4byte	0xc1
 2545 052e 8902     		.2byte	0x289
 2546 0530 00       		.byte	0
 2547 0531 19       		.uleb128 0x19
 2548 0532 36030000 		.4byte	.LASF59
 2549 0536 01       		.byte	0x1
 2550 0537 23       		.byte	0x23
 2551 0538 20050000 		.4byte	0x520
 2552 053c 05       		.uleb128 0x5
 2553 053d 03       		.byte	0x3
 2554 053e 00000000 		.4byte	array
 2555 0542 10       		.uleb128 0x10
 2556 0543 68000000 		.4byte	0x68
 2557 0547 52050000 		.4byte	0x552
 2558 054b 12       		.uleb128 0x12
 2559 054c C1000000 		.4byte	0xc1
 2560 0550 04       		.byte	0x4
 2561 0551 00       		.byte	0
 2562 0552 19       		.uleb128 0x19
 2563 0553 6B030000 		.4byte	.LASF60
 2564 0557 01       		.byte	0x1
 2565 0558 25       		.byte	0x25
 2566 0559 42050000 		.4byte	0x542
 2567 055d 05       		.uleb128 0x5
 2568 055e 03       		.byte	0x3
 2569 055f 00000000 		.4byte	loFrequency
 2570 0563 10       		.uleb128 0x10
 2571 0564 68000000 		.4byte	0x68
 2572 0568 73050000 		.4byte	0x573
 2573 056c 12       		.uleb128 0x12
 2574 056d C1000000 		.4byte	0xc1
 2575 0571 03       		.byte	0x3
 2576 0572 00       		.byte	0
 2577 0573 19       		.uleb128 0x19
 2578 0574 E3010000 		.4byte	.LASF61
 2579 0578 01       		.byte	0x1
 2580 0579 26       		.byte	0x26
 2581 057a 63050000 		.4byte	0x563
 2582 057e 05       		.uleb128 0x5
 2583 057f 03       		.byte	0x3
ARM GAS  C:\Users\riveraes\AppData\Local\Temp\ccjBcK2F.s 			page 57


 2584 0580 00000000 		.4byte	hiFrequency
 2585 0584 19       		.uleb128 0x19
 2586 0585 AF020000 		.4byte	.LASF62
 2587 0589 01       		.byte	0x1
 2588 058a 28       		.byte	0x28
 2589 058b 81000000 		.4byte	0x81
 2590 058f 05       		.uleb128 0x5
 2591 0590 03       		.byte	0x3
 2592 0591 00000000 		.4byte	currentState
 2593 0595 1A       		.uleb128 0x1a
 2594 0596 436800   		.ascii	"Ch\000"
 2595 0599 01       		.byte	0x1
 2596 059a 29       		.byte	0x29
 2597 059b 81000000 		.4byte	0x81
 2598 059f 05       		.uleb128 0x5
 2599 05a0 03       		.byte	0x3
 2600 05a1 00000000 		.4byte	Ch
 2601 05a5 19       		.uleb128 0x19
 2602 05a6 00000000 		.4byte	.LASF63
 2603 05aa 01       		.byte	0x1
 2604 05ab 2B       		.byte	0x2b
 2605 05ac 81000000 		.4byte	0x81
 2606 05b0 05       		.uleb128 0x5
 2607 05b1 03       		.byte	0x3
 2608 05b2 00000000 		.4byte	counterEnable
 2609 05b6 19       		.uleb128 0x19
 2610 05b7 1D020000 		.4byte	.LASF64
 2611 05bb 01       		.byte	0x1
 2612 05bc 2C       		.byte	0x2c
 2613 05bd 81000000 		.4byte	0x81
 2614 05c1 05       		.uleb128 0x5
 2615 05c2 03       		.byte	0x3
 2616 05c3 00000000 		.4byte	counter
 2617 05c7 00       		.byte	0
 2618              		.section	.debug_abbrev,"",%progbits
 2619              	.Ldebug_abbrev0:
 2620 0000 01       		.uleb128 0x1
 2621 0001 11       		.uleb128 0x11
 2622 0002 01       		.byte	0x1
 2623 0003 25       		.uleb128 0x25
 2624 0004 0E       		.uleb128 0xe
 2625 0005 13       		.uleb128 0x13
 2626 0006 0B       		.uleb128 0xb
 2627 0007 03       		.uleb128 0x3
 2628 0008 0E       		.uleb128 0xe
 2629 0009 1B       		.uleb128 0x1b
 2630 000a 0E       		.uleb128 0xe
 2631 000b 55       		.uleb128 0x55
 2632 000c 17       		.uleb128 0x17
 2633 000d 11       		.uleb128 0x11
 2634 000e 01       		.uleb128 0x1
 2635 000f 10       		.uleb128 0x10
 2636 0010 17       		.uleb128 0x17
 2637 0011 00       		.byte	0
 2638 0012 00       		.byte	0
 2639 0013 02       		.uleb128 0x2
 2640 0014 24       		.uleb128 0x24
ARM GAS  C:\Users\riveraes\AppData\Local\Temp\ccjBcK2F.s 			page 58


 2641 0015 00       		.byte	0
 2642 0016 0B       		.uleb128 0xb
 2643 0017 0B       		.uleb128 0xb
 2644 0018 3E       		.uleb128 0x3e
 2645 0019 0B       		.uleb128 0xb
 2646 001a 03       		.uleb128 0x3
 2647 001b 0E       		.uleb128 0xe
 2648 001c 00       		.byte	0
 2649 001d 00       		.byte	0
 2650 001e 03       		.uleb128 0x3
 2651 001f 16       		.uleb128 0x16
 2652 0020 00       		.byte	0
 2653 0021 03       		.uleb128 0x3
 2654 0022 0E       		.uleb128 0xe
 2655 0023 3A       		.uleb128 0x3a
 2656 0024 0B       		.uleb128 0xb
 2657 0025 3B       		.uleb128 0x3b
 2658 0026 0B       		.uleb128 0xb
 2659 0027 49       		.uleb128 0x49
 2660 0028 13       		.uleb128 0x13
 2661 0029 00       		.byte	0
 2662 002a 00       		.byte	0
 2663 002b 04       		.uleb128 0x4
 2664 002c 24       		.uleb128 0x24
 2665 002d 00       		.byte	0
 2666 002e 0B       		.uleb128 0xb
 2667 002f 0B       		.uleb128 0xb
 2668 0030 3E       		.uleb128 0x3e
 2669 0031 0B       		.uleb128 0xb
 2670 0032 03       		.uleb128 0x3
 2671 0033 08       		.uleb128 0x8
 2672 0034 00       		.byte	0
 2673 0035 00       		.byte	0
 2674 0036 05       		.uleb128 0x5
 2675 0037 16       		.uleb128 0x16
 2676 0038 00       		.byte	0
 2677 0039 03       		.uleb128 0x3
 2678 003a 0E       		.uleb128 0xe
 2679 003b 3A       		.uleb128 0x3a
 2680 003c 0B       		.uleb128 0xb
 2681 003d 3B       		.uleb128 0x3b
 2682 003e 05       		.uleb128 0x5
 2683 003f 49       		.uleb128 0x49
 2684 0040 13       		.uleb128 0x13
 2685 0041 00       		.byte	0
 2686 0042 00       		.byte	0
 2687 0043 06       		.uleb128 0x6
 2688 0044 2E       		.uleb128 0x2e
 2689 0045 00       		.byte	0
 2690 0046 3F       		.uleb128 0x3f
 2691 0047 19       		.uleb128 0x19
 2692 0048 03       		.uleb128 0x3
 2693 0049 0E       		.uleb128 0xe
 2694 004a 3A       		.uleb128 0x3a
 2695 004b 0B       		.uleb128 0xb
 2696 004c 3B       		.uleb128 0x3b
 2697 004d 0B       		.uleb128 0xb
ARM GAS  C:\Users\riveraes\AppData\Local\Temp\ccjBcK2F.s 			page 59


 2698 004e 27       		.uleb128 0x27
 2699 004f 19       		.uleb128 0x19
 2700 0050 11       		.uleb128 0x11
 2701 0051 01       		.uleb128 0x1
 2702 0052 12       		.uleb128 0x12
 2703 0053 06       		.uleb128 0x6
 2704 0054 40       		.uleb128 0x40
 2705 0055 18       		.uleb128 0x18
 2706 0056 9742     		.uleb128 0x2117
 2707 0058 19       		.uleb128 0x19
 2708 0059 00       		.byte	0
 2709 005a 00       		.byte	0
 2710 005b 07       		.uleb128 0x7
 2711 005c 2E       		.uleb128 0x2e
 2712 005d 01       		.byte	0x1
 2713 005e 3F       		.uleb128 0x3f
 2714 005f 19       		.uleb128 0x19
 2715 0060 03       		.uleb128 0x3
 2716 0061 0E       		.uleb128 0xe
 2717 0062 3A       		.uleb128 0x3a
 2718 0063 0B       		.uleb128 0xb
 2719 0064 3B       		.uleb128 0x3b
 2720 0065 0B       		.uleb128 0xb
 2721 0066 49       		.uleb128 0x49
 2722 0067 13       		.uleb128 0x13
 2723 0068 11       		.uleb128 0x11
 2724 0069 01       		.uleb128 0x1
 2725 006a 12       		.uleb128 0x12
 2726 006b 06       		.uleb128 0x6
 2727 006c 40       		.uleb128 0x40
 2728 006d 18       		.uleb128 0x18
 2729 006e 9642     		.uleb128 0x2116
 2730 0070 19       		.uleb128 0x19
 2731 0071 01       		.uleb128 0x1
 2732 0072 13       		.uleb128 0x13
 2733 0073 00       		.byte	0
 2734 0074 00       		.byte	0
 2735 0075 08       		.uleb128 0x8
 2736 0076 0B       		.uleb128 0xb
 2737 0077 01       		.byte	0x1
 2738 0078 11       		.uleb128 0x11
 2739 0079 01       		.uleb128 0x1
 2740 007a 12       		.uleb128 0x12
 2741 007b 06       		.uleb128 0x6
 2742 007c 01       		.uleb128 0x1
 2743 007d 13       		.uleb128 0x13
 2744 007e 00       		.byte	0
 2745 007f 00       		.byte	0
 2746 0080 09       		.uleb128 0x9
 2747 0081 34       		.uleb128 0x34
 2748 0082 00       		.byte	0
 2749 0083 03       		.uleb128 0x3
 2750 0084 0E       		.uleb128 0xe
 2751 0085 3A       		.uleb128 0x3a
 2752 0086 0B       		.uleb128 0xb
 2753 0087 3B       		.uleb128 0x3b
 2754 0088 0B       		.uleb128 0xb
ARM GAS  C:\Users\riveraes\AppData\Local\Temp\ccjBcK2F.s 			page 60


 2755 0089 49       		.uleb128 0x49
 2756 008a 13       		.uleb128 0x13
 2757 008b 02       		.uleb128 0x2
 2758 008c 18       		.uleb128 0x18
 2759 008d 00       		.byte	0
 2760 008e 00       		.byte	0
 2761 008f 0A       		.uleb128 0xa
 2762 0090 0B       		.uleb128 0xb
 2763 0091 01       		.byte	0x1
 2764 0092 11       		.uleb128 0x11
 2765 0093 01       		.uleb128 0x1
 2766 0094 12       		.uleb128 0x12
 2767 0095 06       		.uleb128 0x6
 2768 0096 00       		.byte	0
 2769 0097 00       		.byte	0
 2770 0098 0B       		.uleb128 0xb
 2771 0099 34       		.uleb128 0x34
 2772 009a 00       		.byte	0
 2773 009b 03       		.uleb128 0x3
 2774 009c 0E       		.uleb128 0xe
 2775 009d 3A       		.uleb128 0x3a
 2776 009e 0B       		.uleb128 0xb
 2777 009f 3B       		.uleb128 0x3b
 2778 00a0 05       		.uleb128 0x5
 2779 00a1 49       		.uleb128 0x49
 2780 00a2 13       		.uleb128 0x13
 2781 00a3 02       		.uleb128 0x2
 2782 00a4 18       		.uleb128 0x18
 2783 00a5 00       		.byte	0
 2784 00a6 00       		.byte	0
 2785 00a7 0C       		.uleb128 0xc
 2786 00a8 2E       		.uleb128 0x2e
 2787 00a9 01       		.byte	0x1
 2788 00aa 3F       		.uleb128 0x3f
 2789 00ab 19       		.uleb128 0x19
 2790 00ac 03       		.uleb128 0x3
 2791 00ad 0E       		.uleb128 0xe
 2792 00ae 3A       		.uleb128 0x3a
 2793 00af 0B       		.uleb128 0xb
 2794 00b0 3B       		.uleb128 0x3b
 2795 00b1 05       		.uleb128 0x5
 2796 00b2 27       		.uleb128 0x27
 2797 00b3 19       		.uleb128 0x19
 2798 00b4 11       		.uleb128 0x11
 2799 00b5 01       		.uleb128 0x1
 2800 00b6 12       		.uleb128 0x12
 2801 00b7 06       		.uleb128 0x6
 2802 00b8 40       		.uleb128 0x40
 2803 00b9 18       		.uleb128 0x18
 2804 00ba 9642     		.uleb128 0x2116
 2805 00bc 19       		.uleb128 0x19
 2806 00bd 01       		.uleb128 0x1
 2807 00be 13       		.uleb128 0x13
 2808 00bf 00       		.byte	0
 2809 00c0 00       		.byte	0
 2810 00c1 0D       		.uleb128 0xd
 2811 00c2 05       		.uleb128 0x5
ARM GAS  C:\Users\riveraes\AppData\Local\Temp\ccjBcK2F.s 			page 61


 2812 00c3 00       		.byte	0
 2813 00c4 03       		.uleb128 0x3
 2814 00c5 0E       		.uleb128 0xe
 2815 00c6 3A       		.uleb128 0x3a
 2816 00c7 0B       		.uleb128 0xb
 2817 00c8 3B       		.uleb128 0x3b
 2818 00c9 05       		.uleb128 0x5
 2819 00ca 49       		.uleb128 0x49
 2820 00cb 13       		.uleb128 0x13
 2821 00cc 02       		.uleb128 0x2
 2822 00cd 18       		.uleb128 0x18
 2823 00ce 00       		.byte	0
 2824 00cf 00       		.byte	0
 2825 00d0 0E       		.uleb128 0xe
 2826 00d1 2E       		.uleb128 0x2e
 2827 00d2 00       		.byte	0
 2828 00d3 3F       		.uleb128 0x3f
 2829 00d4 19       		.uleb128 0x19
 2830 00d5 03       		.uleb128 0x3
 2831 00d6 0E       		.uleb128 0xe
 2832 00d7 3A       		.uleb128 0x3a
 2833 00d8 0B       		.uleb128 0xb
 2834 00d9 3B       		.uleb128 0x3b
 2835 00da 05       		.uleb128 0x5
 2836 00db 27       		.uleb128 0x27
 2837 00dc 19       		.uleb128 0x19
 2838 00dd 11       		.uleb128 0x11
 2839 00de 01       		.uleb128 0x1
 2840 00df 12       		.uleb128 0x12
 2841 00e0 06       		.uleb128 0x6
 2842 00e1 40       		.uleb128 0x40
 2843 00e2 18       		.uleb128 0x18
 2844 00e3 9642     		.uleb128 0x2116
 2845 00e5 19       		.uleb128 0x19
 2846 00e6 00       		.byte	0
 2847 00e7 00       		.byte	0
 2848 00e8 0F       		.uleb128 0xf
 2849 00e9 34       		.uleb128 0x34
 2850 00ea 00       		.byte	0
 2851 00eb 03       		.uleb128 0x3
 2852 00ec 08       		.uleb128 0x8
 2853 00ed 3A       		.uleb128 0x3a
 2854 00ee 0B       		.uleb128 0xb
 2855 00ef 3B       		.uleb128 0x3b
 2856 00f0 05       		.uleb128 0x5
 2857 00f1 49       		.uleb128 0x49
 2858 00f2 13       		.uleb128 0x13
 2859 00f3 02       		.uleb128 0x2
 2860 00f4 18       		.uleb128 0x18
 2861 00f5 00       		.byte	0
 2862 00f6 00       		.byte	0
 2863 00f7 10       		.uleb128 0x10
 2864 00f8 01       		.uleb128 0x1
 2865 00f9 01       		.byte	0x1
 2866 00fa 49       		.uleb128 0x49
 2867 00fb 13       		.uleb128 0x13
 2868 00fc 01       		.uleb128 0x1
ARM GAS  C:\Users\riveraes\AppData\Local\Temp\ccjBcK2F.s 			page 62


 2869 00fd 13       		.uleb128 0x13
 2870 00fe 00       		.byte	0
 2871 00ff 00       		.byte	0
 2872 0100 11       		.uleb128 0x11
 2873 0101 21       		.uleb128 0x21
 2874 0102 00       		.byte	0
 2875 0103 49       		.uleb128 0x49
 2876 0104 13       		.uleb128 0x13
 2877 0105 2F       		.uleb128 0x2f
 2878 0106 05       		.uleb128 0x5
 2879 0107 00       		.byte	0
 2880 0108 00       		.byte	0
 2881 0109 12       		.uleb128 0x12
 2882 010a 21       		.uleb128 0x21
 2883 010b 00       		.byte	0
 2884 010c 49       		.uleb128 0x49
 2885 010d 13       		.uleb128 0x13
 2886 010e 2F       		.uleb128 0x2f
 2887 010f 0B       		.uleb128 0xb
 2888 0110 00       		.byte	0
 2889 0111 00       		.byte	0
 2890 0112 13       		.uleb128 0x13
 2891 0113 2E       		.uleb128 0x2e
 2892 0114 01       		.byte	0x1
 2893 0115 3F       		.uleb128 0x3f
 2894 0116 19       		.uleb128 0x19
 2895 0117 03       		.uleb128 0x3
 2896 0118 0E       		.uleb128 0xe
 2897 0119 3A       		.uleb128 0x3a
 2898 011a 0B       		.uleb128 0xb
 2899 011b 3B       		.uleb128 0x3b
 2900 011c 05       		.uleb128 0x5
 2901 011d 27       		.uleb128 0x27
 2902 011e 19       		.uleb128 0x19
 2903 011f 49       		.uleb128 0x49
 2904 0120 13       		.uleb128 0x13
 2905 0121 11       		.uleb128 0x11
 2906 0122 01       		.uleb128 0x1
 2907 0123 12       		.uleb128 0x12
 2908 0124 06       		.uleb128 0x6
 2909 0125 40       		.uleb128 0x40
 2910 0126 18       		.uleb128 0x18
 2911 0127 9642     		.uleb128 0x2116
 2912 0129 19       		.uleb128 0x19
 2913 012a 01       		.uleb128 0x1
 2914 012b 13       		.uleb128 0x13
 2915 012c 00       		.byte	0
 2916 012d 00       		.byte	0
 2917 012e 14       		.uleb128 0x14
 2918 012f 34       		.uleb128 0x34
 2919 0130 00       		.byte	0
 2920 0131 03       		.uleb128 0x3
 2921 0132 08       		.uleb128 0x8
 2922 0133 3A       		.uleb128 0x3a
 2923 0134 0B       		.uleb128 0xb
 2924 0135 3B       		.uleb128 0x3b
 2925 0136 05       		.uleb128 0x5
ARM GAS  C:\Users\riveraes\AppData\Local\Temp\ccjBcK2F.s 			page 63


 2926 0137 49       		.uleb128 0x49
 2927 0138 13       		.uleb128 0x13
 2928 0139 00       		.byte	0
 2929 013a 00       		.byte	0
 2930 013b 15       		.uleb128 0x15
 2931 013c 0F       		.uleb128 0xf
 2932 013d 00       		.byte	0
 2933 013e 0B       		.uleb128 0xb
 2934 013f 0B       		.uleb128 0xb
 2935 0140 49       		.uleb128 0x49
 2936 0141 13       		.uleb128 0x13
 2937 0142 00       		.byte	0
 2938 0143 00       		.byte	0
 2939 0144 16       		.uleb128 0x16
 2940 0145 05       		.uleb128 0x5
 2941 0146 00       		.byte	0
 2942 0147 03       		.uleb128 0x3
 2943 0148 08       		.uleb128 0x8
 2944 0149 3A       		.uleb128 0x3a
 2945 014a 0B       		.uleb128 0xb
 2946 014b 3B       		.uleb128 0x3b
 2947 014c 05       		.uleb128 0x5
 2948 014d 49       		.uleb128 0x49
 2949 014e 13       		.uleb128 0x13
 2950 014f 02       		.uleb128 0x2
 2951 0150 18       		.uleb128 0x18
 2952 0151 00       		.byte	0
 2953 0152 00       		.byte	0
 2954 0153 17       		.uleb128 0x17
 2955 0154 34       		.uleb128 0x34
 2956 0155 00       		.byte	0
 2957 0156 03       		.uleb128 0x3
 2958 0157 0E       		.uleb128 0xe
 2959 0158 3A       		.uleb128 0x3a
 2960 0159 0B       		.uleb128 0xb
 2961 015a 3B       		.uleb128 0x3b
 2962 015b 05       		.uleb128 0x5
 2963 015c 49       		.uleb128 0x49
 2964 015d 13       		.uleb128 0x13
 2965 015e 3F       		.uleb128 0x3f
 2966 015f 19       		.uleb128 0x19
 2967 0160 3C       		.uleb128 0x3c
 2968 0161 19       		.uleb128 0x19
 2969 0162 00       		.byte	0
 2970 0163 00       		.byte	0
 2971 0164 18       		.uleb128 0x18
 2972 0165 35       		.uleb128 0x35
 2973 0166 00       		.byte	0
 2974 0167 49       		.uleb128 0x49
 2975 0168 13       		.uleb128 0x13
 2976 0169 00       		.byte	0
 2977 016a 00       		.byte	0
 2978 016b 19       		.uleb128 0x19
 2979 016c 34       		.uleb128 0x34
 2980 016d 00       		.byte	0
 2981 016e 03       		.uleb128 0x3
 2982 016f 0E       		.uleb128 0xe
ARM GAS  C:\Users\riveraes\AppData\Local\Temp\ccjBcK2F.s 			page 64


 2983 0170 3A       		.uleb128 0x3a
 2984 0171 0B       		.uleb128 0xb
 2985 0172 3B       		.uleb128 0x3b
 2986 0173 0B       		.uleb128 0xb
 2987 0174 49       		.uleb128 0x49
 2988 0175 13       		.uleb128 0x13
 2989 0176 3F       		.uleb128 0x3f
 2990 0177 19       		.uleb128 0x19
 2991 0178 02       		.uleb128 0x2
 2992 0179 18       		.uleb128 0x18
 2993 017a 00       		.byte	0
 2994 017b 00       		.byte	0
 2995 017c 1A       		.uleb128 0x1a
 2996 017d 34       		.uleb128 0x34
 2997 017e 00       		.byte	0
 2998 017f 03       		.uleb128 0x3
 2999 0180 08       		.uleb128 0x8
 3000 0181 3A       		.uleb128 0x3a
 3001 0182 0B       		.uleb128 0xb
 3002 0183 3B       		.uleb128 0x3b
 3003 0184 0B       		.uleb128 0xb
 3004 0185 49       		.uleb128 0x49
 3005 0186 13       		.uleb128 0x13
 3006 0187 3F       		.uleb128 0x3f
 3007 0188 19       		.uleb128 0x19
 3008 0189 02       		.uleb128 0x2
 3009 018a 18       		.uleb128 0x18
 3010 018b 00       		.byte	0
 3011 018c 00       		.byte	0
 3012 018d 00       		.byte	0
 3013              		.section	.debug_aranges,"",%progbits
 3014 0000 5C000000 		.4byte	0x5c
 3015 0004 0200     		.2byte	0x2
 3016 0006 00000000 		.4byte	.Ldebug_info0
 3017 000a 04       		.byte	0x4
 3018 000b 00       		.byte	0
 3019 000c 0000     		.2byte	0
 3020 000e 0000     		.2byte	0
 3021 0010 00000000 		.4byte	.LFB64
 3022 0014 28000000 		.4byte	.LFE64-.LFB64
 3023 0018 00000000 		.4byte	.LFB65
 3024 001c 20050000 		.4byte	.LFE65-.LFB65
 3025 0020 00000000 		.4byte	.LFB66
 3026 0024 60000000 		.4byte	.LFE66-.LFB66
 3027 0028 00000000 		.4byte	.LFB67
 3028 002c 60000000 		.4byte	.LFE67-.LFB67
 3029 0030 00000000 		.4byte	.LFB68
 3030 0034 28000000 		.4byte	.LFE68-.LFB68
 3031 0038 00000000 		.4byte	.LFB69
 3032 003c 90020000 		.4byte	.LFE69-.LFB69
 3033 0040 00000000 		.4byte	.LFB70
 3034 0044 1C020000 		.4byte	.LFE70-.LFB70
 3035 0048 00000000 		.4byte	.LFB71
 3036 004c 64000000 		.4byte	.LFE71-.LFB71
 3037 0050 00000000 		.4byte	.LFB72
 3038 0054 A0010000 		.4byte	.LFE72-.LFB72
 3039 0058 00000000 		.4byte	0
ARM GAS  C:\Users\riveraes\AppData\Local\Temp\ccjBcK2F.s 			page 65


 3040 005c 00000000 		.4byte	0
 3041              		.section	.debug_ranges,"",%progbits
 3042              	.Ldebug_ranges0:
 3043 0000 00000000 		.4byte	.LFB64
 3044 0004 28000000 		.4byte	.LFE64
 3045 0008 00000000 		.4byte	.LFB65
 3046 000c 20050000 		.4byte	.LFE65
 3047 0010 00000000 		.4byte	.LFB66
 3048 0014 60000000 		.4byte	.LFE66
 3049 0018 00000000 		.4byte	.LFB67
 3050 001c 60000000 		.4byte	.LFE67
 3051 0020 00000000 		.4byte	.LFB68
 3052 0024 28000000 		.4byte	.LFE68
 3053 0028 00000000 		.4byte	.LFB69
 3054 002c 90020000 		.4byte	.LFE69
 3055 0030 00000000 		.4byte	.LFB70
 3056 0034 1C020000 		.4byte	.LFE70
 3057 0038 00000000 		.4byte	.LFB71
 3058 003c 64000000 		.4byte	.LFE71
 3059 0040 00000000 		.4byte	.LFB72
 3060 0044 A0010000 		.4byte	.LFE72
 3061 0048 00000000 		.4byte	0
 3062 004c 00000000 		.4byte	0
 3063              		.section	.debug_line,"",%progbits
 3064              	.Ldebug_line0:
 3065 0000 C9030000 		.section	.debug_str,"MS",%progbits,1
 3065      02004C01 
 3065      00000201 
 3065      FB0E0D00 
 3065      01010101 
 3066              	.LASF63:
 3067 0000 636F756E 		.ascii	"counterEnable\000"
 3067      74657245 
 3067      6E61626C 
 3067      6500
 3068              	.LASF67:
 3069 000e 433A5C55 		.ascii	"C:\\Users\\riveraes\\Documents\\LaptopPublic\\Maest"
 3069      73657273 
 3069      5C726976 
 3069      65726165 
 3069      735C446F 
 3070 003c 7269615C 		.ascii	"ria\\MP6157_Adquisicion y procesamiento de datos\\D"
 3070      4D503631 
 3070      35375F41 
 3070      64717569 
 3070      73696369 
 3071 006d 75616C54 		.ascii	"ualToneMultiFrequency\\DTMF_Projects\\DTMF_TX.cydsn"
 3071      6F6E654D 
 3071      756C7469 
 3071      46726571 
 3071      75656E63 
 3072 009e 00       		.ascii	"\000"
 3073              	.LASF58:
 3074 009f 4F757470 		.ascii	"Output\000"
 3074      757400
 3075              	.LASF33:
 3076 00a6 6869416D 		.ascii	"hiAmp\000"
ARM GAS  C:\Users\riveraes\AppData\Local\Temp\ccjBcK2F.s 			page 66


 3076      7000
 3077              	.LASF65:
 3078 00ac 474E5520 		.ascii	"GNU C11 5.4.1 20160609 (release) [ARM/embedded-5-br"
 3078      43313120 
 3078      352E342E 
 3078      31203230 
 3078      31363036 
 3079 00df 616E6368 		.ascii	"anch revision 237715] -mcpu=cortex-m3 -mthumb -g -O"
 3079      20726576 
 3079      6973696F 
 3079      6E203233 
 3079      37373135 
 3080 0112 30202D66 		.ascii	"0 -ffunction-sections -ffat-lto-objects\000"
 3080      66756E63 
 3080      74696F6E 
 3080      2D736563 
 3080      74696F6E 
 3081              	.LASF27:
 3082 013a 496E6974 		.ascii	"InitSettings\000"
 3082      53657474 
 3082      696E6773 
 3082      00
 3083              	.LASF17:
 3084 0147 6C6F6E67 		.ascii	"long double\000"
 3084      20646F75 
 3084      626C6500 
 3085              	.LASF22:
 3086 0153 4B535053 		.ascii	"KSPS\000"
 3086      00
 3087              	.LASF2:
 3088 0158 73686F72 		.ascii	"short int\000"
 3088      7420696E 
 3088      7400
 3089              	.LASF57:
 3090 0162 5472616E 		.ascii	"TransmitBuffer\000"
 3090      736D6974 
 3090      42756666 
 3090      657200
 3091              	.LASF37:
 3092 0171 7453616D 		.ascii	"tSamplingRate\000"
 3092      706C696E 
 3092      67526174 
 3092      6500
 3093              	.LASF12:
 3094 017f 75696E74 		.ascii	"uint16\000"
 3094      313600
 3095              	.LASF13:
 3096 0186 696E7431 		.ascii	"int16\000"
 3096      3600
 3097              	.LASF11:
 3098 018c 75696E74 		.ascii	"uint8\000"
 3098      3800
 3099              	.LASF23:
 3100 0192 436C6F63 		.ascii	"ClockDivider\000"
 3100      6B446976 
 3100      69646572 
 3100      00
ARM GAS  C:\Users\riveraes\AppData\Local\Temp\ccjBcK2F.s 			page 67


 3101              	.LASF48:
 3102 019f 6D646174 		.ascii	"mdata\000"
 3102      6100
 3103              	.LASF14:
 3104 01a5 666C6F61 		.ascii	"float\000"
 3104      7400
 3105              	.LASF6:
 3106 01ab 6C6F6E67 		.ascii	"long long int\000"
 3106      206C6F6E 
 3106      6720696E 
 3106      7400
 3107              	.LASF45:
 3108 01b9 7265616C 		.ascii	"real\000"
 3108      00
 3109              	.LASF34:
 3110 01be 70646174 		.ascii	"pdata\000"
 3110      6100
 3111              	.LASF4:
 3112 01c4 6C6F6E67 		.ascii	"long int\000"
 3112      20696E74 
 3112      00
 3113              	.LASF19:
 3114 01cd 73616D70 		.ascii	"sampleNumber\000"
 3114      6C654E75 
 3114      6D626572 
 3114      00
 3115              	.LASF53:
 3116 01da 6D617856 		.ascii	"maxValue\000"
 3116      616C7565 
 3116      00
 3117              	.LASF61:
 3118 01e3 68694672 		.ascii	"hiFrequency\000"
 3118      65717565 
 3118      6E637900 
 3119              	.LASF40:
 3120 01ef 6F6D6567 		.ascii	"omega\000"
 3120      6100
 3121              	.LASF31:
 3122 01f5 6869416D 		.ascii	"hiAmplitudes\000"
 3122      706C6974 
 3122      75646573 
 3122      00
 3123              	.LASF43:
 3124 0202 636F6566 		.ascii	"coeff\000"
 3124      6600
 3125              	.LASF42:
 3126 0208 636F7369 		.ascii	"cosine\000"
 3126      6E6500
 3127              	.LASF1:
 3128 020f 756E7369 		.ascii	"unsigned char\000"
 3128      676E6564 
 3128      20636861 
 3128      7200
 3129              	.LASF64:
 3130 021d 636F756E 		.ascii	"counter\000"
 3130      74657200 
 3131              	.LASF0:
ARM GAS  C:\Users\riveraes\AppData\Local\Temp\ccjBcK2F.s 			page 68


 3132 0225 7369676E 		.ascii	"signed char\000"
 3132      65642063 
 3132      68617200 
 3133              	.LASF10:
 3134 0231 696E7433 		.ascii	"int32_t\000"
 3134      325F7400 
 3135              	.LASF7:
 3136 0239 6C6F6E67 		.ascii	"long long unsigned int\000"
 3136      206C6F6E 
 3136      6720756E 
 3136      7369676E 
 3136      65642069 
 3137              	.LASF8:
 3138 0250 756E7369 		.ascii	"unsigned int\000"
 3138      676E6564 
 3138      20696E74 
 3138      00
 3139              	.LASF46:
 3140 025d 696D6167 		.ascii	"imag\000"
 3140      00
 3141              	.LASF26:
 3142 0262 5369676E 		.ascii	"SignalON\000"
 3142      616C4F4E 
 3142      00
 3143              	.LASF41:
 3144 026b 73696E65 		.ascii	"sine\000"
 3144      00
 3145              	.LASF3:
 3146 0270 73686F72 		.ascii	"short unsigned int\000"
 3146      7420756E 
 3146      7369676E 
 3146      65642069 
 3146      6E7400
 3147              	.LASF28:
 3148 0283 44544D46 		.ascii	"DTMF\000"
 3148      00
 3149              	.LASF50:
 3150 0288 6765744D 		.ascii	"getMaxValue\000"
 3150      61785661 
 3150      6C756500 
 3151              	.LASF16:
 3152 0294 63686172 		.ascii	"char\000"
 3152      00
 3153              	.LASF29:
 3154 0299 7369676E 		.ascii	"signal\000"
 3154      616C00
 3155              	.LASF20:
 3156 02a0 6D61696E 		.ascii	"main\000"
 3156      00
 3157              	.LASF51:
 3158 02a5 61727261 		.ascii	"arrayData\000"
 3158      79446174 
 3158      6100
 3159              	.LASF62:
 3160 02af 63757272 		.ascii	"currentState\000"
 3160      656E7453 
 3160      74617465 
ARM GAS  C:\Users\riveraes\AppData\Local\Temp\ccjBcK2F.s 			page 69


 3160      00
 3161              	.LASF39:
 3162 02bc 666C6F61 		.ascii	"floatnumSamples\000"
 3162      746E756D 
 3162      53616D70 
 3162      6C657300 
 3163              	.LASF35:
 3164 02cc 6E756D53 		.ascii	"numSamples\000"
 3164      616D706C 
 3164      657300
 3165              	.LASF32:
 3166 02d7 6C6F416D 		.ascii	"loAmp\000"
 3166      7000
 3167              	.LASF38:
 3168 02dd 64617461 		.ascii	"data\000"
 3168      00
 3169              	.LASF47:
 3170 02e2 7363616C 		.ascii	"scalingFactor\000"
 3170      696E6746 
 3170      6163746F 
 3170      7200
 3171              	.LASF66:
 3172 02f0 6D61696E 		.ascii	"main.c\000"
 3172      2E6300
 3173              	.LASF21:
 3174 02f7 53657448 		.ascii	"SetHighFrequencyDacOutput\000"
 3174      69676846 
 3174      72657175 
 3174      656E6379 
 3174      4461634F 
 3175              	.LASF5:
 3176 0311 6C6F6E67 		.ascii	"long unsigned int\000"
 3176      20756E73 
 3176      69676E65 
 3176      6420696E 
 3176      7400
 3177              	.LASF55:
 3178 0323 4465636F 		.ascii	"DecodeInput\000"
 3178      6465496E 
 3178      70757400 
 3179              	.LASF15:
 3180 032f 646F7562 		.ascii	"double\000"
 3180      6C6500
 3181              	.LASF59:
 3182 0336 61727261 		.ascii	"array\000"
 3182      7900
 3183              	.LASF52:
 3184 033c 73697A65 		.ascii	"size\000"
 3184      00
 3185              	.LASF9:
 3186 0341 5F5F696E 		.ascii	"__int32_t\000"
 3186      7433325F 
 3186      7400
 3187              	.LASF18:
 3188 034b 73697A65 		.ascii	"sizetype\000"
 3188      74797065 
 3188      00
ARM GAS  C:\Users\riveraes\AppData\Local\Temp\ccjBcK2F.s 			page 70


 3189              	.LASF30:
 3190 0354 6C6F416D 		.ascii	"loAmplitudes\000"
 3190      706C6974 
 3190      75646573 
 3190      00
 3191              	.LASF44:
 3192 0361 6D61676E 		.ascii	"magnitude\000"
 3192      69747564 
 3192      6500
 3193              	.LASF60:
 3194 036b 6C6F4672 		.ascii	"loFrequency\000"
 3194      65717565 
 3194      6E637900 
 3195              	.LASF25:
 3196 0377 4F757470 		.ascii	"OutputFrequency\000"
 3196      75744672 
 3196      65717565 
 3196      6E637900 
 3197              	.LASF49:
 3198 0387 476F6572 		.ascii	"Goertzel\000"
 3198      747A656C 
 3198      00
 3199              	.LASF56:
 3200 0390 49544D5F 		.ascii	"ITM_RxBuffer\000"
 3200      52784275 
 3200      66666572 
 3200      00
 3201              	.LASF54:
 3202 039d 696E6465 		.ascii	"index\000"
 3202      7800
 3203              	.LASF36:
 3204 03a3 74467265 		.ascii	"tFrequency\000"
 3204      7175656E 
 3204      637900
 3205              	.LASF24:
 3206 03ae 5365744C 		.ascii	"SetLowFrequencyDacOutput\000"
 3206      6F774672 
 3206      65717565 
 3206      6E637944 
 3206      61634F75 
 3207              		.ident	"GCC: (GNU Tools for ARM Embedded Processors) 5.4.1 20160609 (release) [ARM/embedded-5-bran
