ARM GAS  C:\Users\riveraes\AppData\Local\Temp\ccvlAsya.s 			page 1


   1              		.syntax unified
   2              		.cpu cortex-m3
   3              		.fpu softvfp
   4              		.eabi_attribute 20, 1
   5              		.eabi_attribute 21, 1
   6              		.eabi_attribute 23, 3
   7              		.eabi_attribute 24, 1
   8              		.eabi_attribute 25, 1
   9              		.eabi_attribute 26, 1
  10              		.eabi_attribute 30, 6
  11              		.eabi_attribute 34, 1
  12              		.eabi_attribute 18, 4
  13              		.thumb
  14              		.syntax unified
  15              		.file	"LowFrequencies_2_3_PM.c"
  16              		.text
  17              	.Ltext0:
  18              		.cfi_sections	.debug_frame
  19              		.bss
  20              		.align	2
  21              	LowFrequencies_2_3_backup:
  22 0000 00       		.space	1
  23              		.section	.text.LowFrequencies_2_3_Sleep,"ax",%progbits
  24              		.align	2
  25              		.global	LowFrequencies_2_3_Sleep
  26              		.thumb
  27              		.thumb_func
  28              		.type	LowFrequencies_2_3_Sleep, %function
  29              	LowFrequencies_2_3_Sleep:
  30              	.LFB0:
  31              		.file 1 "Generated_Source\\PSoC5\\LowFrequencies_2_3_PM.c"
   1:Generated_Source\PSoC5/LowFrequencies_2_3_PM.c **** /*******************************************************************************
   2:Generated_Source\PSoC5/LowFrequencies_2_3_PM.c **** * File Name: LowFrequencies_2_3_PM.c  
   3:Generated_Source\PSoC5/LowFrequencies_2_3_PM.c **** * Version 2.10
   4:Generated_Source\PSoC5/LowFrequencies_2_3_PM.c **** *
   5:Generated_Source\PSoC5/LowFrequencies_2_3_PM.c **** * Description:
   6:Generated_Source\PSoC5/LowFrequencies_2_3_PM.c **** *  This file provides the power manager source code to the API for 
   7:Generated_Source\PSoC5/LowFrequencies_2_3_PM.c **** *  the WaveDAC8 component.
   8:Generated_Source\PSoC5/LowFrequencies_2_3_PM.c **** *
   9:Generated_Source\PSoC5/LowFrequencies_2_3_PM.c **** ********************************************************************************
  10:Generated_Source\PSoC5/LowFrequencies_2_3_PM.c **** * Copyright 2013, Cypress Semiconductor Corporation.  All rights reserved.
  11:Generated_Source\PSoC5/LowFrequencies_2_3_PM.c **** * You may use this file only in accordance with the license, terms, conditions, 
  12:Generated_Source\PSoC5/LowFrequencies_2_3_PM.c **** * disclaimers, and limitations in the end user license agreement accompanying 
  13:Generated_Source\PSoC5/LowFrequencies_2_3_PM.c **** * the software package with which this file was provided.
  14:Generated_Source\PSoC5/LowFrequencies_2_3_PM.c **** *******************************************************************************/
  15:Generated_Source\PSoC5/LowFrequencies_2_3_PM.c **** 
  16:Generated_Source\PSoC5/LowFrequencies_2_3_PM.c **** #include "LowFrequencies_2_3.h"
  17:Generated_Source\PSoC5/LowFrequencies_2_3_PM.c **** 
  18:Generated_Source\PSoC5/LowFrequencies_2_3_PM.c **** static LowFrequencies_2_3_BACKUP_STRUCT  LowFrequencies_2_3_backup;
  19:Generated_Source\PSoC5/LowFrequencies_2_3_PM.c **** 
  20:Generated_Source\PSoC5/LowFrequencies_2_3_PM.c **** 
  21:Generated_Source\PSoC5/LowFrequencies_2_3_PM.c **** /*******************************************************************************
  22:Generated_Source\PSoC5/LowFrequencies_2_3_PM.c **** * Function Name: LowFrequencies_2_3_Sleep
  23:Generated_Source\PSoC5/LowFrequencies_2_3_PM.c **** ********************************************************************************
  24:Generated_Source\PSoC5/LowFrequencies_2_3_PM.c **** *
  25:Generated_Source\PSoC5/LowFrequencies_2_3_PM.c **** * Summary:
  26:Generated_Source\PSoC5/LowFrequencies_2_3_PM.c **** *  Stops the component and saves its configuration. Should be called 
ARM GAS  C:\Users\riveraes\AppData\Local\Temp\ccvlAsya.s 			page 2


  27:Generated_Source\PSoC5/LowFrequencies_2_3_PM.c **** *  just prior to entering sleep.
  28:Generated_Source\PSoC5/LowFrequencies_2_3_PM.c **** *  
  29:Generated_Source\PSoC5/LowFrequencies_2_3_PM.c **** * Parameters:  
  30:Generated_Source\PSoC5/LowFrequencies_2_3_PM.c **** *  None
  31:Generated_Source\PSoC5/LowFrequencies_2_3_PM.c **** *
  32:Generated_Source\PSoC5/LowFrequencies_2_3_PM.c **** * Return: 
  33:Generated_Source\PSoC5/LowFrequencies_2_3_PM.c **** *  None
  34:Generated_Source\PSoC5/LowFrequencies_2_3_PM.c **** *
  35:Generated_Source\PSoC5/LowFrequencies_2_3_PM.c **** * Global variables:
  36:Generated_Source\PSoC5/LowFrequencies_2_3_PM.c **** *  LowFrequencies_2_3_backup:  The structure field 'enableState' is modified 
  37:Generated_Source\PSoC5/LowFrequencies_2_3_PM.c **** *  depending on the enable state of the block before entering to sleep mode.
  38:Generated_Source\PSoC5/LowFrequencies_2_3_PM.c **** *
  39:Generated_Source\PSoC5/LowFrequencies_2_3_PM.c **** * Reentrant:
  40:Generated_Source\PSoC5/LowFrequencies_2_3_PM.c **** *  No
  41:Generated_Source\PSoC5/LowFrequencies_2_3_PM.c **** *
  42:Generated_Source\PSoC5/LowFrequencies_2_3_PM.c **** *******************************************************************************/
  43:Generated_Source\PSoC5/LowFrequencies_2_3_PM.c **** void LowFrequencies_2_3_Sleep(void) 
  44:Generated_Source\PSoC5/LowFrequencies_2_3_PM.c **** {
  32              		.loc 1 44 0
  33              		.cfi_startproc
  34              		@ args = 0, pretend = 0, frame = 0
  35              		@ frame_needed = 1, uses_anonymous_args = 0
  36 0000 80B5     		push	{r7, lr}
  37              		.cfi_def_cfa_offset 8
  38              		.cfi_offset 7, -8
  39              		.cfi_offset 14, -4
  40 0002 00AF     		add	r7, sp, #0
  41              		.cfi_def_cfa_register 7
  45:Generated_Source\PSoC5/LowFrequencies_2_3_PM.c **** 	/* Save DAC8's enable state */
  46:Generated_Source\PSoC5/LowFrequencies_2_3_PM.c **** 
  47:Generated_Source\PSoC5/LowFrequencies_2_3_PM.c **** 	LowFrequencies_2_3_backup.enableState = (LowFrequencies_2_3_VDAC8_ACT_PWR_EN == 
  48:Generated_Source\PSoC5/LowFrequencies_2_3_PM.c **** 		(LowFrequencies_2_3_VDAC8_PWRMGR_REG & LowFrequencies_2_3_VDAC8_ACT_PWR_EN)) ? 1u : 0u ;
  42              		.loc 1 48 0
  43 0004 064B     		ldr	r3, .L2
  44 0006 1B78     		ldrb	r3, [r3]
  45 0008 DBB2     		uxtb	r3, r3
  47:Generated_Source\PSoC5/LowFrequencies_2_3_PM.c **** 		(LowFrequencies_2_3_VDAC8_PWRMGR_REG & LowFrequencies_2_3_VDAC8_ACT_PWR_EN)) ? 1u : 0u ;
  46              		.loc 1 47 0
  47 000a 03F00103 		and	r3, r3, #1
  48 000e DAB2     		uxtb	r2, r3
  49 0010 044B     		ldr	r3, .L2+4
  50 0012 1A70     		strb	r2, [r3]
  49:Generated_Source\PSoC5/LowFrequencies_2_3_PM.c **** 	
  50:Generated_Source\PSoC5/LowFrequencies_2_3_PM.c **** 	LowFrequencies_2_3_Stop();
  51              		.loc 1 50 0
  52 0014 FFF7FEFF 		bl	LowFrequencies_2_3_Stop
  51:Generated_Source\PSoC5/LowFrequencies_2_3_PM.c **** 	LowFrequencies_2_3_SaveConfig();
  53              		.loc 1 51 0
  54 0018 FFF7FEFF 		bl	LowFrequencies_2_3_VDAC8_SaveConfig
  52:Generated_Source\PSoC5/LowFrequencies_2_3_PM.c **** }
  55              		.loc 1 52 0
  56 001c 00BF     		nop
  57 001e 80BD     		pop	{r7, pc}
  58              	.L3:
  59              		.align	2
  60              	.L2:
  61 0020 A8430040 		.word	1073759144
ARM GAS  C:\Users\riveraes\AppData\Local\Temp\ccvlAsya.s 			page 3


  62 0024 00000000 		.word	LowFrequencies_2_3_backup
  63              		.cfi_endproc
  64              	.LFE0:
  65              		.size	LowFrequencies_2_3_Sleep, .-LowFrequencies_2_3_Sleep
  66              		.section	.text.LowFrequencies_2_3_Wakeup,"ax",%progbits
  67              		.align	2
  68              		.global	LowFrequencies_2_3_Wakeup
  69              		.thumb
  70              		.thumb_func
  71              		.type	LowFrequencies_2_3_Wakeup, %function
  72              	LowFrequencies_2_3_Wakeup:
  73              	.LFB1:
  53:Generated_Source\PSoC5/LowFrequencies_2_3_PM.c **** 
  54:Generated_Source\PSoC5/LowFrequencies_2_3_PM.c **** 
  55:Generated_Source\PSoC5/LowFrequencies_2_3_PM.c **** /*******************************************************************************
  56:Generated_Source\PSoC5/LowFrequencies_2_3_PM.c **** * Function Name: LowFrequencies_2_3_Wakeup
  57:Generated_Source\PSoC5/LowFrequencies_2_3_PM.c **** ********************************************************************************
  58:Generated_Source\PSoC5/LowFrequencies_2_3_PM.c **** *
  59:Generated_Source\PSoC5/LowFrequencies_2_3_PM.c **** * Summary:
  60:Generated_Source\PSoC5/LowFrequencies_2_3_PM.c **** *  Restores the component configuration. Should be called
  61:Generated_Source\PSoC5/LowFrequencies_2_3_PM.c **** *  just after awaking from sleep.
  62:Generated_Source\PSoC5/LowFrequencies_2_3_PM.c **** *  
  63:Generated_Source\PSoC5/LowFrequencies_2_3_PM.c **** * Parameters:  
  64:Generated_Source\PSoC5/LowFrequencies_2_3_PM.c **** *  None
  65:Generated_Source\PSoC5/LowFrequencies_2_3_PM.c **** *
  66:Generated_Source\PSoC5/LowFrequencies_2_3_PM.c **** * Return: 
  67:Generated_Source\PSoC5/LowFrequencies_2_3_PM.c **** *  void
  68:Generated_Source\PSoC5/LowFrequencies_2_3_PM.c **** *
  69:Generated_Source\PSoC5/LowFrequencies_2_3_PM.c **** * Global variables:
  70:Generated_Source\PSoC5/LowFrequencies_2_3_PM.c **** *  LowFrequencies_2_3_backup:  The structure field 'enableState' is used to 
  71:Generated_Source\PSoC5/LowFrequencies_2_3_PM.c **** *  restore the enable state of block after wakeup from sleep mode.
  72:Generated_Source\PSoC5/LowFrequencies_2_3_PM.c **** *
  73:Generated_Source\PSoC5/LowFrequencies_2_3_PM.c **** * Reentrant:
  74:Generated_Source\PSoC5/LowFrequencies_2_3_PM.c **** *  No
  75:Generated_Source\PSoC5/LowFrequencies_2_3_PM.c **** *
  76:Generated_Source\PSoC5/LowFrequencies_2_3_PM.c **** *******************************************************************************/
  77:Generated_Source\PSoC5/LowFrequencies_2_3_PM.c **** void LowFrequencies_2_3_Wakeup(void) 
  78:Generated_Source\PSoC5/LowFrequencies_2_3_PM.c **** {
  74              		.loc 1 78 0
  75              		.cfi_startproc
  76              		@ args = 0, pretend = 0, frame = 0
  77              		@ frame_needed = 1, uses_anonymous_args = 0
  78 0000 80B5     		push	{r7, lr}
  79              		.cfi_def_cfa_offset 8
  80              		.cfi_offset 7, -8
  81              		.cfi_offset 14, -4
  82 0002 00AF     		add	r7, sp, #0
  83              		.cfi_def_cfa_register 7
  79:Generated_Source\PSoC5/LowFrequencies_2_3_PM.c **** 	LowFrequencies_2_3_RestoreConfig();
  84              		.loc 1 79 0
  85 0004 FFF7FEFF 		bl	LowFrequencies_2_3_VDAC8_RestoreConfig
  80:Generated_Source\PSoC5/LowFrequencies_2_3_PM.c **** 
  81:Generated_Source\PSoC5/LowFrequencies_2_3_PM.c **** 	if(LowFrequencies_2_3_backup.enableState == 1u)
  86              		.loc 1 81 0
  87 0008 034B     		ldr	r3, .L7
  88 000a 1B78     		ldrb	r3, [r3]	@ zero_extendqisi2
  89 000c 012B     		cmp	r3, #1
ARM GAS  C:\Users\riveraes\AppData\Local\Temp\ccvlAsya.s 			page 4


  90 000e 01D1     		bne	.L6
  82:Generated_Source\PSoC5/LowFrequencies_2_3_PM.c **** 	{
  83:Generated_Source\PSoC5/LowFrequencies_2_3_PM.c **** 		LowFrequencies_2_3_Enable();
  91              		.loc 1 83 0
  92 0010 FFF7FEFF 		bl	LowFrequencies_2_3_Enable
  93              	.L6:
  84:Generated_Source\PSoC5/LowFrequencies_2_3_PM.c **** 	}
  85:Generated_Source\PSoC5/LowFrequencies_2_3_PM.c **** }
  94              		.loc 1 85 0
  95 0014 00BF     		nop
  96 0016 80BD     		pop	{r7, pc}
  97              	.L8:
  98              		.align	2
  99              	.L7:
 100 0018 00000000 		.word	LowFrequencies_2_3_backup
 101              		.cfi_endproc
 102              	.LFE1:
 103              		.size	LowFrequencies_2_3_Wakeup, .-LowFrequencies_2_3_Wakeup
 104              		.text
 105              	.Letext0:
 106              		.file 2 "Generated_Source\\PSoC5\\cytypes.h"
 107              		.file 3 "Generated_Source\\PSoC5\\LowFrequencies_2_3.h"