ARM GAS  C:\Users\riveraes\AppData\Local\Temp\ccmEdq2f.s 			page 1


   1              		.syntax unified
   2              		.cpu cortex-m3
   3              		.fpu softvfp
   4              		.eabi_attribute 20, 1
   5              		.eabi_attribute 21, 1
   6              		.eabi_attribute 23, 3
   7              		.eabi_attribute 24, 1
   8              		.eabi_attribute 25, 1
   9              		.eabi_attribute 26, 1
  10              		.eabi_attribute 30, 6
  11              		.eabi_attribute 34, 1
  12              		.eabi_attribute 18, 4
  13              		.thumb
  14              		.syntax unified
  15              		.file	"main.c"
  16              		.text
  17              	.Ltext0:
  18              		.cfi_sections	.debug_frame
  19              		.comm	TransmitBuffer,16,4
  20              		.comm	Output,2,2
  21              		.comm	array,300,4
  22              		.global	loFrequency
  23              		.data
  24              		.align	2
  25              		.type	loFrequency, %object
  26              		.size	loFrequency, 20
  27              	loFrequency:
  28 0000 96000000 		.word	150
  29 0004 B9020000 		.word	697
  30 0008 02030000 		.word	770
  31 000c 54030000 		.word	852
  32 0010 AD030000 		.word	941
  33              		.global	hiFrequency
  34              		.align	2
  35              		.type	hiFrequency, %object
  36              		.size	hiFrequency, 16
  37              	hiFrequency:
  38 0014 96000000 		.word	150
  39 0018 B9040000 		.word	1209
  40 001c 38050000 		.word	1336
  41 0020 C5050000 		.word	1477
  42              		.global	terminalOutputEnable
  43              		.type	terminalOutputEnable, %object
  44              		.size	terminalOutputEnable, 1
  45              	terminalOutputEnable:
  46 0024 01       		.byte	1
  47              		.section	.text.Transmit,"ax",%progbits
  48              		.align	2
  49              		.global	Transmit
  50              		.thumb
  51              		.thumb_func
  52              		.type	Transmit, %function
  53              	Transmit:
  54              	.LFB64:
  55              		.file 1 "main.c"
   1:main.c        **** /******************************************************************************
   2:main.c        **** * Project Name		: DualToneMultiFrequency TX
ARM GAS  C:\Users\riveraes\AppData\Local\Temp\ccmEdq2f.s 			page 2


   3:main.c        **** * File Name			: main.c
   4:main.c        **** *
   5:main.c        **** *******************************************************************************/
   6:main.c        **** 
   7:main.c        **** #include <device.h>
   8:main.c        **** #include "stdio.h"
   9:main.c        **** #include "math.h"
  10:main.c        **** 
  11:main.c        **** /* Project Defines */
  12:main.c        **** #define FALSE  0
  13:main.c        **** #define TRUE   1
  14:main.c        **** #define TRANSMIT_BUFFER_SIZE  16
  15:main.c        **** #define NUMBER_OF_SAMPLES 150
  16:main.c        **** #define SAMPLING_RATE 10000
  17:main.c        **** #define LOW_FREQ_DAC_NUMBER_OF_SAMPLES 200
  18:main.c        **** #define HIGH_FREQ_DAC_NUMBER_OF_SAMPLES 300
  19:main.c        **** #define MASTER_CLOCK_FREQUENCY 24000000
  20:main.c        **** #define LOW_FREQUENCIES_ANALIZED 5
  21:main.c        **** #define HIGH_FREQUENCIES_ANALIZED 4
  22:main.c        **** 
  23:main.c        **** /* Transmit Buffer */
  24:main.c        **** char TransmitBuffer[TRANSMIT_BUFFER_SIZE];
  25:main.c        **** // Variables to store ADC data
  26:main.c        **** uint16 Output;
  27:main.c        **** int16 array[NUMBER_OF_SAMPLES];
  28:main.c        **** // DualTone Frequencies
  29:main.c        **** int loFrequency[LOW_FREQUENCIES_ANALIZED] = {150, 697, 770, 852, 941};
  30:main.c        **** int hiFrequency[HIGH_FREQUENCIES_ANALIZED] = {150, 1209, 1336, 1477};
  31:main.c        **** // Terminal output enable
  32:main.c        **** int8 terminalOutputEnable = TRUE;
  33:main.c        **** 
  34:main.c        **** // Function prototypes
  35:main.c        **** void InitSettings(void);
  36:main.c        **** void SetHighFrequencyDacOutput(int OutputFrequency);
  37:main.c        **** void SetLowFrequencyDacOutput(int OutputFrequency);
  38:main.c        **** double Goertzel(int numSamples, int tFrequency, int tSamplingRate, double data[]);
  39:main.c        **** uint16 getMaxValue(double arrayData[], uint8 size);
  40:main.c        **** void DTMF(void);
  41:main.c        **** void DecodeInput(int loFrequency, int hiFrecuency);
  42:main.c        **** 
  43:main.c        **** 
  44:main.c        **** /*******************************************************************************
  45:main.c        **** * Interrupt routine
  46:main.c        **** *******************************************************************************/
  47:main.c        **** CY_ISR(Transmit)
  48:main.c        **** {
  56              		.loc 1 48 0
  57              		.cfi_startproc
  58              		@ args = 0, pretend = 0, frame = 0
  59              		@ frame_needed = 1, uses_anonymous_args = 0
  60              		@ link register save eliminated.
  61 0000 80B4     		push	{r7}
  62              		.cfi_def_cfa_offset 4
  63              		.cfi_offset 7, -4
  64 0002 00AF     		add	r7, sp, #0
  65              		.cfi_def_cfa_register 7
  49:main.c        ****     // Not used
ARM GAS  C:\Users\riveraes\AppData\Local\Temp\ccmEdq2f.s 			page 3


  50:main.c        **** }
  66              		.loc 1 50 0
  67 0004 00BF     		nop
  68 0006 BD46     		mov	sp, r7
  69              		.cfi_def_cfa_register 13
  70              		@ sp needed
  71 0008 80BC     		pop	{r7}
  72              		.cfi_restore 7
  73              		.cfi_def_cfa_offset 0
  74 000a 7047     		bx	lr
  75              		.cfi_endproc
  76              	.LFE64:
  77              		.size	Transmit, .-Transmit
  78              		.section	.text.UserInput,"ax",%progbits
  79              		.align	2
  80              		.global	UserInput
  81              		.thumb
  82              		.thumb_func
  83              		.type	UserInput, %function
  84              	UserInput:
  85              	.LFB65:
  51:main.c        **** 
  52:main.c        **** 
  53:main.c        **** /*******************************************************************************
  54:main.c        **** * Interrupt routine
  55:main.c        **** *******************************************************************************/
  56:main.c        **** CY_ISR(UserInput)
  57:main.c        **** {
  86              		.loc 1 57 0
  87              		.cfi_startproc
  88              		@ args = 0, pretend = 0, frame = 0
  89              		@ frame_needed = 1, uses_anonymous_args = 0
  90              		@ link register save eliminated.
  91 0000 80B4     		push	{r7}
  92              		.cfi_def_cfa_offset 4
  93              		.cfi_offset 7, -4
  94 0002 00AF     		add	r7, sp, #0
  95              		.cfi_def_cfa_register 7
  58:main.c        ****     //UART_1_PutString("Input Detected!\r\n");
  59:main.c        **** }
  96              		.loc 1 59 0
  97 0004 00BF     		nop
  98 0006 BD46     		mov	sp, r7
  99              		.cfi_def_cfa_register 13
 100              		@ sp needed
 101 0008 80BC     		pop	{r7}
 102              		.cfi_restore 7
 103              		.cfi_def_cfa_offset 0
 104 000a 7047     		bx	lr
 105              		.cfi_endproc
 106              	.LFE65:
 107              		.size	UserInput, .-UserInput
 108              		.section	.rodata
 109              		.align	2
 110              	.LC0:
 111 0000 5258202D 		.ascii	"RX - Ready\015\012\000"
 111      20526561 
ARM GAS  C:\Users\riveraes\AppData\Local\Temp\ccmEdq2f.s 			page 4


 111      64790D0A 
 111      00
 112 000d 000000   		.align	2
 113              	.LC1:
 114 0010 300D0A00 		.ascii	"0\015\012\000"
 115              		.align	2
 116              	.LC2:
 117 0014 310D0A00 		.ascii	"1\015\012\000"
 118              		.align	2
 119              	.LC3:
 120 0018 320D0A00 		.ascii	"2\015\012\000"
 121              		.align	2
 122              	.LC4:
 123 001c 330D0A00 		.ascii	"3\015\012\000"
 124              		.align	2
 125              	.LC5:
 126 0020 340D0A00 		.ascii	"4\015\012\000"
 127              		.align	2
 128              	.LC6:
 129 0024 350D0A00 		.ascii	"5\015\012\000"
 130              		.align	2
 131              	.LC7:
 132 0028 360D0A00 		.ascii	"6\015\012\000"
 133              		.align	2
 134              	.LC8:
 135 002c 370D0A00 		.ascii	"7\015\012\000"
 136              		.align	2
 137              	.LC9:
 138 0030 380D0A00 		.ascii	"8\015\012\000"
 139              		.align	2
 140              	.LC10:
 141 0034 390D0A00 		.ascii	"9\015\012\000"
 142              		.align	2
 143              	.LC11:
 144 0038 2A0D0A00 		.ascii	"*\015\012\000"
 145              		.align	2
 146              	.LC12:
 147 003c 230D0A00 		.ascii	"#\015\012\000"
 148              		.align	2
 149              	.LC13:
 150 0040 2D2D2D2D 		.ascii	"-----> Samples Init\015\012\000"
 150      2D3E2053 
 150      616D706C 
 150      65732049 
 150      6E69740D 
 151 0056 0000     		.align	2
 152              	.LC14:
 153 0058 25640D0A 		.ascii	"%d\015\012\000"
 153      00
 154 005d 000000   		.align	2
 155              	.LC15:
 156 0060 2D2D2D2D 		.ascii	"-----> Samples End\015\012\000"
 156      2D3E2053 
 156      616D706C 
 156      65732045 
 156      6E640D0A 
 157 0075 000000   		.align	2
ARM GAS  C:\Users\riveraes\AppData\Local\Temp\ccmEdq2f.s 			page 5


 158              	.LC16:
 159 0078 44756D6D 		.ascii	"Dummy Frequency ...\015\012\000"
 159      79204672 
 159      65717565 
 159      6E637920 
 159      2E2E2E0D 
 160              		.section	.text.main,"ax",%progbits
 161              		.align	2
 162              		.global	main
 163              		.thumb
 164              		.thumb_func
 165              		.type	main, %function
 166              	main:
 167              	.LFB66:
  60:main.c        **** 
  61:main.c        **** 
  62:main.c        **** /*******************************************************************************
  63:main.c        **** * Function Name: main
  64:main.c        **** *******************************************************************************/
  65:main.c        **** int main()
  66:main.c        **** {
 168              		.loc 1 66 0
 169              		.cfi_startproc
 170              		@ args = 0, pretend = 0, frame = 8
 171              		@ frame_needed = 1, uses_anonymous_args = 0
 172 0000 80B5     		push	{r7, lr}
 173              		.cfi_def_cfa_offset 8
 174              		.cfi_offset 7, -8
 175              		.cfi_offset 14, -4
 176 0002 82B0     		sub	sp, sp, #8
 177              		.cfi_def_cfa_offset 16
 178 0004 00AF     		add	r7, sp, #0
 179              		.cfi_def_cfa_register 7
  67:main.c        ****     /* Variable to store UART received character */
  68:main.c        ****     uint8 Ch;
  69:main.c        ****     
  70:main.c        ****     /* Start the components */
  71:main.c        ****     ADC_DelSig_1_Start();
 180              		.loc 1 71 0
 181 0006 FFF7FEFF 		bl	ADC_DelSig_1_Start
  72:main.c        ****     UART_1_Start();
 182              		.loc 1 72 0
 183 000a FFF7FEFF 		bl	UART_1_Start
  73:main.c        ****         
  74:main.c        ****     /* Start the ADC conversion */
  75:main.c        ****     ADC_DelSig_1_StartConvert();
 184              		.loc 1 75 0
 185 000e FFF7FEFF 		bl	ADC_DelSig_1_StartConvert
  76:main.c        ****     
  77:main.c        ****     /* Send message to verify COM port is connected properly */
  78:main.c        ****     UART_1_PutString("RX - Ready\r\n");
 186              		.loc 1 78 0
 187 0012 DA48     		ldr	r0, .L32
 188 0014 FFF7FEFF 		bl	UART_1_PutString
  79:main.c        ****     
  80:main.c        ****     // Enable Interrupts
  81:main.c        ****     CyGlobalIntEnable;
ARM GAS  C:\Users\riveraes\AppData\Local\Temp\ccmEdq2f.s 			page 6


 189              		.loc 1 81 0
 190              		.syntax unified
 191              	@ 81 "main.c" 1
 192 0018 62B6     		CPSIE   i
 193              	@ 0 "" 2
  82:main.c        ****     
  83:main.c        ****     // Init Settings
  84:main.c        ****     // - Output dummy 4KHz sine wave
  85:main.c        ****     // - Turn off blue LED
  86:main.c        ****     InitSettings();  
 194              		.loc 1 86 0
 195              		.thumb
 196              		.syntax unified
 197 001a FFF7FEFF 		bl	InitSettings
 198              	.L30:
  87:main.c        ****     
  88:main.c        ****     for(;;)
  89:main.c        ****     {        
  90:main.c        ****         /* Non-blocking call to get the latest data recieved  */
  91:main.c        ****         //Ch = UART_1_GetChar();
  92:main.c        ****         Ch = 's';
 199              		.loc 1 92 0
 200 001e 7323     		movs	r3, #115
 201 0020 7B70     		strb	r3, [r7, #1]
  93:main.c        ****         
  94:main.c        ****         /* Set flags based on UART command */
  95:main.c        ****         switch(Ch)
 202              		.loc 1 95 0
 203 0022 7B78     		ldrb	r3, [r7, #1]	@ zero_extendqisi2
 204 0024 233B     		subs	r3, r3, #35
 205 0026 552B     		cmp	r3, #85
 206 0028 00F2D881 		bhi	.L31
 207 002c 01A2     		adr	r2, .L6
 208 002e 52F823F0 		ldr	pc, [r2, r3, lsl #2]
 209 0032 00BF     		.p2align 2
 210              	.L6:
 211 0034 95020000 		.word	.L5+1
 212 0038 DD030000 		.word	.L31+1
 213 003c DD030000 		.word	.L31+1
 214 0040 DD030000 		.word	.L31+1
 215 0044 DD030000 		.word	.L31+1
 216 0048 DD030000 		.word	.L31+1
 217 004c DD030000 		.word	.L31+1
 218 0050 7D020000 		.word	.L7+1
 219 0054 DD030000 		.word	.L31+1
 220 0058 DD030000 		.word	.L31+1
 221 005c DD030000 		.word	.L31+1
 222 0060 DD030000 		.word	.L31+1
 223 0064 DD030000 		.word	.L31+1
 224 0068 8D010000 		.word	.L8+1
 225 006c A5010000 		.word	.L9+1
 226 0070 BD010000 		.word	.L10+1
 227 0074 D5010000 		.word	.L11+1
 228 0078 ED010000 		.word	.L12+1
 229 007c 05020000 		.word	.L13+1
 230 0080 1D020000 		.word	.L14+1
 231 0084 35020000 		.word	.L15+1
ARM GAS  C:\Users\riveraes\AppData\Local\Temp\ccmEdq2f.s 			page 7


 232 0088 4D020000 		.word	.L16+1
 233 008c 65020000 		.word	.L17+1
 234 0090 DD030000 		.word	.L31+1
 235 0094 DD030000 		.word	.L31+1
 236 0098 DD030000 		.word	.L31+1
 237 009c DD030000 		.word	.L31+1
 238 00a0 DD030000 		.word	.L31+1
 239 00a4 DD030000 		.word	.L31+1
 240 00a8 DD030000 		.word	.L31+1
 241 00ac DD030000 		.word	.L31+1
 242 00b0 DD030000 		.word	.L31+1
 243 00b4 DD030000 		.word	.L31+1
 244 00b8 AD020000 		.word	.L18+1
 245 00bc DD030000 		.word	.L31+1
 246 00c0 DD030000 		.word	.L31+1
 247 00c4 DD030000 		.word	.L31+1
 248 00c8 DD030000 		.word	.L31+1
 249 00cc DD030000 		.word	.L31+1
 250 00d0 DD030000 		.word	.L31+1
 251 00d4 DD030000 		.word	.L31+1
 252 00d8 DD030000 		.word	.L31+1
 253 00dc DD030000 		.word	.L31+1
 254 00e0 DD030000 		.word	.L31+1
 255 00e4 DD030000 		.word	.L31+1
 256 00e8 DD030000 		.word	.L31+1
 257 00ec DD030000 		.word	.L31+1
 258 00f0 DD030000 		.word	.L31+1
 259 00f4 35030000 		.word	.L19+1
 260 00f8 DD030000 		.word	.L31+1
 261 00fc DD030000 		.word	.L31+1
 262 0100 DD030000 		.word	.L31+1
 263 0104 DD030000 		.word	.L31+1
 264 0108 C9030000 		.word	.L20+1
 265 010c DD030000 		.word	.L31+1
 266 0110 DD030000 		.word	.L31+1
 267 0114 DD030000 		.word	.L31+1
 268 0118 DD030000 		.word	.L31+1
 269 011c DD030000 		.word	.L31+1
 270 0120 DD030000 		.word	.L31+1
 271 0124 DD030000 		.word	.L31+1
 272 0128 DD030000 		.word	.L31+1
 273 012c DD030000 		.word	.L31+1
 274 0130 DD030000 		.word	.L31+1
 275 0134 DD030000 		.word	.L31+1
 276 0138 AD020000 		.word	.L18+1
 277 013c DD030000 		.word	.L31+1
 278 0140 DD030000 		.word	.L31+1
 279 0144 DD030000 		.word	.L31+1
 280 0148 DD030000 		.word	.L31+1
 281 014c DD030000 		.word	.L31+1
 282 0150 DD030000 		.word	.L31+1
 283 0154 DD030000 		.word	.L31+1
 284 0158 DD030000 		.word	.L31+1
 285 015c DD030000 		.word	.L31+1
 286 0160 DD030000 		.word	.L31+1
 287 0164 DD030000 		.word	.L31+1
 288 0168 DD030000 		.word	.L31+1
ARM GAS  C:\Users\riveraes\AppData\Local\Temp\ccmEdq2f.s 			page 8


 289 016c DD030000 		.word	.L31+1
 290 0170 DD030000 		.word	.L31+1
 291 0174 35030000 		.word	.L19+1
 292 0178 DD030000 		.word	.L31+1
 293 017c DD030000 		.word	.L31+1
 294 0180 DD030000 		.word	.L31+1
 295 0184 DD030000 		.word	.L31+1
 296 0188 C9030000 		.word	.L20+1
 297              		.p2align 1
 298              	.L8:
  96:main.c        ****         {
  97:main.c        ****             case '0':
  98:main.c        ****                 UART_1_PutString("0\r\n");
 299              		.loc 1 98 0
 300 018c 7C48     		ldr	r0, .L32+4
 301 018e FFF7FEFF 		bl	UART_1_PutString
  99:main.c        ****                 SetLowFrequencyDacOutput(941);
 302              		.loc 1 99 0
 303 0192 40F2AD30 		movw	r0, #941
 304 0196 FFF7FEFF 		bl	SetLowFrequencyDacOutput
 100:main.c        ****                 SetHighFrequencyDacOutput(1336);
 305              		.loc 1 100 0
 306 019a 4FF4A760 		mov	r0, #1336
 307 019e FFF7FEFF 		bl	SetHighFrequencyDacOutput
 101:main.c        ****                 
 102:main.c        ****                 break;
 308              		.loc 1 102 0
 309 01a2 1CE1     		b	.L21
 310              	.L9:
 103:main.c        ****                 
 104:main.c        ****             case '1':
 105:main.c        ****                 UART_1_PutString("1\r\n");
 311              		.loc 1 105 0
 312 01a4 7748     		ldr	r0, .L32+8
 313 01a6 FFF7FEFF 		bl	UART_1_PutString
 106:main.c        ****                 SetLowFrequencyDacOutput(697);
 314              		.loc 1 106 0
 315 01aa 40F2B920 		movw	r0, #697
 316 01ae FFF7FEFF 		bl	SetLowFrequencyDacOutput
 107:main.c        ****                 SetHighFrequencyDacOutput(1209);
 317              		.loc 1 107 0
 318 01b2 40F2B940 		movw	r0, #1209
 319 01b6 FFF7FEFF 		bl	SetHighFrequencyDacOutput
 108:main.c        ****                 
 109:main.c        ****                 break;
 320              		.loc 1 109 0
 321 01ba 10E1     		b	.L21
 322              	.L10:
 110:main.c        ****                 
 111:main.c        ****             case '2':
 112:main.c        ****                 UART_1_PutString("2\r\n");
 323              		.loc 1 112 0
 324 01bc 7248     		ldr	r0, .L32+12
 325 01be FFF7FEFF 		bl	UART_1_PutString
 113:main.c        ****                 SetLowFrequencyDacOutput(697);
 326              		.loc 1 113 0
 327 01c2 40F2B920 		movw	r0, #697
ARM GAS  C:\Users\riveraes\AppData\Local\Temp\ccmEdq2f.s 			page 9


 328 01c6 FFF7FEFF 		bl	SetLowFrequencyDacOutput
 114:main.c        ****                 SetHighFrequencyDacOutput(1336);
 329              		.loc 1 114 0
 330 01ca 4FF4A760 		mov	r0, #1336
 331 01ce FFF7FEFF 		bl	SetHighFrequencyDacOutput
 115:main.c        ****                 
 116:main.c        ****                 break;
 332              		.loc 1 116 0
 333 01d2 04E1     		b	.L21
 334              	.L11:
 117:main.c        ****                 
 118:main.c        ****             case '3':
 119:main.c        ****                 UART_1_PutString("3\r\n");
 335              		.loc 1 119 0
 336 01d4 6D48     		ldr	r0, .L32+16
 337 01d6 FFF7FEFF 		bl	UART_1_PutString
 120:main.c        ****                 SetLowFrequencyDacOutput(697);
 338              		.loc 1 120 0
 339 01da 40F2B920 		movw	r0, #697
 340 01de FFF7FEFF 		bl	SetLowFrequencyDacOutput
 121:main.c        ****                 SetHighFrequencyDacOutput(1477);
 341              		.loc 1 121 0
 342 01e2 40F2C550 		movw	r0, #1477
 343 01e6 FFF7FEFF 		bl	SetHighFrequencyDacOutput
 122:main.c        ****                 
 123:main.c        ****                 break;
 344              		.loc 1 123 0
 345 01ea F8E0     		b	.L21
 346              	.L12:
 124:main.c        ****                 
 125:main.c        ****             case '4':
 126:main.c        ****                 UART_1_PutString("4\r\n");
 347              		.loc 1 126 0
 348 01ec 6848     		ldr	r0, .L32+20
 349 01ee FFF7FEFF 		bl	UART_1_PutString
 127:main.c        ****                 SetLowFrequencyDacOutput(770);
 350              		.loc 1 127 0
 351 01f2 40F20230 		movw	r0, #770
 352 01f6 FFF7FEFF 		bl	SetLowFrequencyDacOutput
 128:main.c        ****                 SetHighFrequencyDacOutput(1209);
 353              		.loc 1 128 0
 354 01fa 40F2B940 		movw	r0, #1209
 355 01fe FFF7FEFF 		bl	SetHighFrequencyDacOutput
 129:main.c        ****                 
 130:main.c        ****                 break;
 356              		.loc 1 130 0
 357 0202 ECE0     		b	.L21
 358              	.L13:
 131:main.c        ****                 
 132:main.c        ****             case '5':
 133:main.c        ****                 UART_1_PutString("5\r\n");
 359              		.loc 1 133 0
 360 0204 6348     		ldr	r0, .L32+24
 361 0206 FFF7FEFF 		bl	UART_1_PutString
 134:main.c        ****                 SetLowFrequencyDacOutput(770);
 362              		.loc 1 134 0
 363 020a 40F20230 		movw	r0, #770
ARM GAS  C:\Users\riveraes\AppData\Local\Temp\ccmEdq2f.s 			page 10


 364 020e FFF7FEFF 		bl	SetLowFrequencyDacOutput
 135:main.c        ****                 SetHighFrequencyDacOutput(1336);
 365              		.loc 1 135 0
 366 0212 4FF4A760 		mov	r0, #1336
 367 0216 FFF7FEFF 		bl	SetHighFrequencyDacOutput
 136:main.c        ****                 
 137:main.c        ****                 break;
 368              		.loc 1 137 0
 369 021a E0E0     		b	.L21
 370              	.L14:
 138:main.c        ****                 
 139:main.c        ****             case '6':
 140:main.c        ****                 UART_1_PutString("6\r\n");
 371              		.loc 1 140 0
 372 021c 5E48     		ldr	r0, .L32+28
 373 021e FFF7FEFF 		bl	UART_1_PutString
 141:main.c        ****                 SetLowFrequencyDacOutput(770);
 374              		.loc 1 141 0
 375 0222 40F20230 		movw	r0, #770
 376 0226 FFF7FEFF 		bl	SetLowFrequencyDacOutput
 142:main.c        ****                 SetHighFrequencyDacOutput(1477);
 377              		.loc 1 142 0
 378 022a 40F2C550 		movw	r0, #1477
 379 022e FFF7FEFF 		bl	SetHighFrequencyDacOutput
 143:main.c        ****                 
 144:main.c        ****                 break;
 380              		.loc 1 144 0
 381 0232 D4E0     		b	.L21
 382              	.L15:
 145:main.c        ****                 
 146:main.c        ****             case '7':
 147:main.c        ****                 UART_1_PutString("7\r\n");
 383              		.loc 1 147 0
 384 0234 5948     		ldr	r0, .L32+32
 385 0236 FFF7FEFF 		bl	UART_1_PutString
 148:main.c        ****                 SetLowFrequencyDacOutput(852);
 386              		.loc 1 148 0
 387 023a 4FF45570 		mov	r0, #852
 388 023e FFF7FEFF 		bl	SetLowFrequencyDacOutput
 149:main.c        ****                 SetHighFrequencyDacOutput(1209);
 389              		.loc 1 149 0
 390 0242 40F2B940 		movw	r0, #1209
 391 0246 FFF7FEFF 		bl	SetHighFrequencyDacOutput
 150:main.c        ****                 
 151:main.c        ****                 break;
 392              		.loc 1 151 0
 393 024a C8E0     		b	.L21
 394              	.L16:
 152:main.c        ****                 
 153:main.c        ****             case '8':
 154:main.c        ****                 UART_1_PutString("8\r\n");
 395              		.loc 1 154 0
 396 024c 5448     		ldr	r0, .L32+36
 397 024e FFF7FEFF 		bl	UART_1_PutString
 155:main.c        ****                 SetLowFrequencyDacOutput(852);
 398              		.loc 1 155 0
 399 0252 4FF45570 		mov	r0, #852
ARM GAS  C:\Users\riveraes\AppData\Local\Temp\ccmEdq2f.s 			page 11


 400 0256 FFF7FEFF 		bl	SetLowFrequencyDacOutput
 156:main.c        ****                 SetHighFrequencyDacOutput(1336);
 401              		.loc 1 156 0
 402 025a 4FF4A760 		mov	r0, #1336
 403 025e FFF7FEFF 		bl	SetHighFrequencyDacOutput
 157:main.c        ****                 
 158:main.c        ****                 break;
 404              		.loc 1 158 0
 405 0262 BCE0     		b	.L21
 406              	.L17:
 159:main.c        ****                 
 160:main.c        ****             case '9':
 161:main.c        ****                 UART_1_PutString("9\r\n");
 407              		.loc 1 161 0
 408 0264 4F48     		ldr	r0, .L32+40
 409 0266 FFF7FEFF 		bl	UART_1_PutString
 162:main.c        ****                 SetLowFrequencyDacOutput(852);
 410              		.loc 1 162 0
 411 026a 4FF45570 		mov	r0, #852
 412 026e FFF7FEFF 		bl	SetLowFrequencyDacOutput
 163:main.c        ****                 SetHighFrequencyDacOutput(1477);
 413              		.loc 1 163 0
 414 0272 40F2C550 		movw	r0, #1477
 415 0276 FFF7FEFF 		bl	SetHighFrequencyDacOutput
 164:main.c        ****                 
 165:main.c        ****                 break;
 416              		.loc 1 165 0
 417 027a B0E0     		b	.L21
 418              	.L7:
 166:main.c        ****                 
 167:main.c        ****             case '*':
 168:main.c        ****                 UART_1_PutString("*\r\n");
 419              		.loc 1 168 0
 420 027c 4A48     		ldr	r0, .L32+44
 421 027e FFF7FEFF 		bl	UART_1_PutString
 169:main.c        ****                 SetLowFrequencyDacOutput(941);
 422              		.loc 1 169 0
 423 0282 40F2AD30 		movw	r0, #941
 424 0286 FFF7FEFF 		bl	SetLowFrequencyDacOutput
 170:main.c        ****                 SetHighFrequencyDacOutput(1209);
 425              		.loc 1 170 0
 426 028a 40F2B940 		movw	r0, #1209
 427 028e FFF7FEFF 		bl	SetHighFrequencyDacOutput
 171:main.c        ****                 
 172:main.c        ****                 break;
 428              		.loc 1 172 0
 429 0292 A4E0     		b	.L21
 430              	.L5:
 173:main.c        ****                 
 174:main.c        ****             case '#':
 175:main.c        ****                 UART_1_PutString("#\r\n");
 431              		.loc 1 175 0
 432 0294 4548     		ldr	r0, .L32+48
 433 0296 FFF7FEFF 		bl	UART_1_PutString
 176:main.c        ****                 SetLowFrequencyDacOutput(941);
 434              		.loc 1 176 0
 435 029a 40F2AD30 		movw	r0, #941
ARM GAS  C:\Users\riveraes\AppData\Local\Temp\ccmEdq2f.s 			page 12


 436 029e FFF7FEFF 		bl	SetLowFrequencyDacOutput
 177:main.c        ****                 SetHighFrequencyDacOutput(1477);
 437              		.loc 1 177 0
 438 02a2 40F2C550 		movw	r0, #1477
 439 02a6 FFF7FEFF 		bl	SetHighFrequencyDacOutput
 178:main.c        ****                 
 179:main.c        ****                 break;
 440              		.loc 1 179 0
 441 02aa 98E0     		b	.L21
 442              	.L18:
 443              	.LBB2:
 180:main.c        ****             
 181:main.c        ****             case 'D':
 182:main.c        ****             case 'd':
 183:main.c        ****                 //Get Samples
 184:main.c        ****                 for (int16 sampleNumber = 0; sampleNumber < NUMBER_OF_SAMPLES; sampleNumber += 0)
 444              		.loc 1 184 0
 445 02ac 0023     		movs	r3, #0
 446 02ae FB80     		strh	r3, [r7, #6]	@ movhi
 447 02b0 19E0     		b	.L22
 448              	.L24:
 185:main.c        ****                 {                 
 186:main.c        ****                     /* Check to see if an ADC conversion has completed */
 187:main.c        ****                     if(ADC_DelSig_1_IsEndConversion(ADC_DelSig_1_RETURN_STATUS))
 449              		.loc 1 187 0
 450 02b2 0120     		movs	r0, #1
 451 02b4 FFF7FEFF 		bl	ADC_DelSig_1_IsEndConversion
 452 02b8 0346     		mov	r3, r0
 453 02ba 002B     		cmp	r3, #0
 454 02bc 13D0     		beq	.L22
 188:main.c        ****                     {
 189:main.c        ****                         Output = ADC_DelSig_1_GetResult16();
 455              		.loc 1 189 0
 456 02be FFF7FEFF 		bl	ADC_DelSig_1_GetResult16
 457 02c2 0346     		mov	r3, r0
 458 02c4 9AB2     		uxth	r2, r3
 459 02c6 3A4B     		ldr	r3, .L32+52
 460 02c8 1A80     		strh	r2, [r3]	@ movhi
 190:main.c        ****                         array[sampleNumber] = Output;                       
 461              		.loc 1 190 0
 462 02ca B7F90630 		ldrsh	r3, [r7, #6]
 463 02ce 384A     		ldr	r2, .L32+52
 464 02d0 1288     		ldrh	r2, [r2]
 465 02d2 11B2     		sxth	r1, r2
 466 02d4 374A     		ldr	r2, .L32+56
 467 02d6 22F81310 		strh	r1, [r2, r3, lsl #1]	@ movhi
 191:main.c        ****                         sampleNumber ++;
 468              		.loc 1 191 0
 469 02da B7F90630 		ldrsh	r3, [r7, #6]
 470 02de 9BB2     		uxth	r3, r3
 471 02e0 0133     		adds	r3, r3, #1
 472 02e2 9BB2     		uxth	r3, r3
 473 02e4 FB80     		strh	r3, [r7, #6]	@ movhi
 474              	.L22:
 184:main.c        ****                 {                 
 475              		.loc 1 184 0 discriminator 1
 476 02e6 B7F90630 		ldrsh	r3, [r7, #6]
ARM GAS  C:\Users\riveraes\AppData\Local\Temp\ccmEdq2f.s 			page 13


 477 02ea 952B     		cmp	r3, #149
 478 02ec E1DD     		ble	.L24
 479              	.LBE2:
 192:main.c        ****                     }
 193:main.c        ****                 }
 194:main.c        ****                 
 195:main.c        ****                 // Print samples
 196:main.c        ****                 UART_1_PutString("-----> Samples Init\r\n");
 480              		.loc 1 196 0
 481 02ee 3248     		ldr	r0, .L32+60
 482 02f0 FFF7FEFF 		bl	UART_1_PutString
 483              	.LBB3:
 197:main.c        ****                 for (int16 sampleNumber = 0; sampleNumber < NUMBER_OF_SAMPLES; sampleNumber ++)
 484              		.loc 1 197 0
 485 02f4 0023     		movs	r3, #0
 486 02f6 BB80     		strh	r3, [r7, #4]	@ movhi
 487 02f8 12E0     		b	.L25
 488              	.L26:
 198:main.c        ****                 {
 199:main.c        ****                     sprintf(TransmitBuffer, "%d\r\n", array[sampleNumber]);
 489              		.loc 1 199 0 discriminator 3
 490 02fa B7F90430 		ldrsh	r3, [r7, #4]
 491 02fe 2D4A     		ldr	r2, .L32+56
 492 0300 32F91330 		ldrsh	r3, [r2, r3, lsl #1]
 493 0304 1A46     		mov	r2, r3
 494 0306 2D49     		ldr	r1, .L32+64
 495 0308 2D48     		ldr	r0, .L32+68
 496 030a FFF7FEFF 		bl	sprintf
 200:main.c        ****                     UART_1_PutString(TransmitBuffer);
 497              		.loc 1 200 0 discriminator 3
 498 030e 2C48     		ldr	r0, .L32+68
 499 0310 FFF7FEFF 		bl	UART_1_PutString
 197:main.c        ****                 for (int16 sampleNumber = 0; sampleNumber < NUMBER_OF_SAMPLES; sampleNumber ++)
 500              		.loc 1 197 0 discriminator 3
 501 0314 B7F90430 		ldrsh	r3, [r7, #4]
 502 0318 9BB2     		uxth	r3, r3
 503 031a 0133     		adds	r3, r3, #1
 504 031c 9BB2     		uxth	r3, r3
 505 031e BB80     		strh	r3, [r7, #4]	@ movhi
 506              	.L25:
 197:main.c        ****                 for (int16 sampleNumber = 0; sampleNumber < NUMBER_OF_SAMPLES; sampleNumber ++)
 507              		.loc 1 197 0 is_stmt 0 discriminator 1
 508 0320 B7F90430 		ldrsh	r3, [r7, #4]
 509 0324 952B     		cmp	r3, #149
 510 0326 E8DD     		ble	.L26
 511              	.LBE3:
 201:main.c        ****                 }
 202:main.c        ****                 UART_1_PutString("-----> Samples End\r\n");
 512              		.loc 1 202 0 is_stmt 1
 513 0328 2648     		ldr	r0, .L32+72
 514 032a FFF7FEFF 		bl	UART_1_PutString
 203:main.c        ****                 
 204:main.c        ****                 // Decode data              
 205:main.c        ****                 DTMF();            
 515              		.loc 1 205 0
 516 032e FFF7FEFF 		bl	DTMF
 206:main.c        ****                 
ARM GAS  C:\Users\riveraes\AppData\Local\Temp\ccmEdq2f.s 			page 14


 207:main.c        ****                 break;
 517              		.loc 1 207 0
 518 0332 54E0     		b	.L21
 519              	.L19:
 520              	.LBB4:
 208:main.c        ****                 
 209:main.c        ****             case 'S':
 210:main.c        ****             case 's':
 211:main.c        ****                 //Get Samples
 212:main.c        ****                 for (int16 sampleNumber = 0; sampleNumber < NUMBER_OF_SAMPLES; sampleNumber += 0)
 521              		.loc 1 212 0
 522 0334 0023     		movs	r3, #0
 523 0336 7B80     		strh	r3, [r7, #2]	@ movhi
 524 0338 19E0     		b	.L27
 525              	.L29:
 213:main.c        ****                 {                 
 214:main.c        ****                     /* Check to see if an ADC conversion has completed */
 215:main.c        ****                     if(ADC_DelSig_1_IsEndConversion(ADC_DelSig_1_RETURN_STATUS))
 526              		.loc 1 215 0
 527 033a 0120     		movs	r0, #1
 528 033c FFF7FEFF 		bl	ADC_DelSig_1_IsEndConversion
 529 0340 0346     		mov	r3, r0
 530 0342 002B     		cmp	r3, #0
 531 0344 13D0     		beq	.L27
 216:main.c        ****                     {
 217:main.c        ****                         Output = ADC_DelSig_1_GetResult16();
 532              		.loc 1 217 0
 533 0346 FFF7FEFF 		bl	ADC_DelSig_1_GetResult16
 534 034a 0346     		mov	r3, r0
 535 034c 9AB2     		uxth	r2, r3
 536 034e 184B     		ldr	r3, .L32+52
 537 0350 1A80     		strh	r2, [r3]	@ movhi
 218:main.c        ****                         array[sampleNumber] = Output;                       
 538              		.loc 1 218 0
 539 0352 B7F90230 		ldrsh	r3, [r7, #2]
 540 0356 164A     		ldr	r2, .L32+52
 541 0358 1288     		ldrh	r2, [r2]
 542 035a 11B2     		sxth	r1, r2
 543 035c 154A     		ldr	r2, .L32+56
 544 035e 22F81310 		strh	r1, [r2, r3, lsl #1]	@ movhi
 219:main.c        ****                         sampleNumber ++;
 545              		.loc 1 219 0
 546 0362 B7F90230 		ldrsh	r3, [r7, #2]
 547 0366 9BB2     		uxth	r3, r3
 548 0368 0133     		adds	r3, r3, #1
 549 036a 9BB2     		uxth	r3, r3
 550 036c 7B80     		strh	r3, [r7, #2]	@ movhi
 551              	.L27:
 212:main.c        ****                 {                 
 552              		.loc 1 212 0 discriminator 1
 553 036e B7F90230 		ldrsh	r3, [r7, #2]
 554 0372 952B     		cmp	r3, #149
 555 0374 E1DD     		ble	.L29
 556              	.LBE4:
 220:main.c        ****                     }
 221:main.c        ****                 }
 222:main.c        ****                 
ARM GAS  C:\Users\riveraes\AppData\Local\Temp\ccmEdq2f.s 			page 15


 223:main.c        ****                 // Decode data              
 224:main.c        ****                 DTMF();              
 557              		.loc 1 224 0
 558 0376 FFF7FEFF 		bl	DTMF
 225:main.c        ****                 
 226:main.c        ****                 break;
 559              		.loc 1 226 0
 560 037a 30E0     		b	.L21
 561              	.L33:
 562              		.align	2
 563              	.L32:
 564 037c 00000000 		.word	.LC0
 565 0380 10000000 		.word	.LC1
 566 0384 14000000 		.word	.LC2
 567 0388 18000000 		.word	.LC3
 568 038c 1C000000 		.word	.LC4
 569 0390 20000000 		.word	.LC5
 570 0394 24000000 		.word	.LC6
 571 0398 28000000 		.word	.LC7
 572 039c 2C000000 		.word	.LC8
 573 03a0 30000000 		.word	.LC9
 574 03a4 34000000 		.word	.LC10
 575 03a8 38000000 		.word	.LC11
 576 03ac 3C000000 		.word	.LC12
 577 03b0 00000000 		.word	Output
 578 03b4 00000000 		.word	array
 579 03b8 40000000 		.word	.LC13
 580 03bc 58000000 		.word	.LC14
 581 03c0 00000000 		.word	TransmitBuffer
 582 03c4 60000000 		.word	.LC15
 583              	.L20:
 227:main.c        ****             
 228:main.c        ****             case 'X':    
 229:main.c        ****             case 'x':
 230:main.c        ****                 UART_1_PutString("Dummy Frequency ...\r\n");                             
 584              		.loc 1 230 0
 585 03c8 0548     		ldr	r0, .L34
 586 03ca FFF7FEFF 		bl	UART_1_PutString
 231:main.c        ****                 SetLowFrequencyDacOutput(150);
 587              		.loc 1 231 0
 588 03ce 9620     		movs	r0, #150
 589 03d0 FFF7FEFF 		bl	SetLowFrequencyDacOutput
 232:main.c        ****                 SetHighFrequencyDacOutput(150);
 590              		.loc 1 232 0
 591 03d4 9620     		movs	r0, #150
 592 03d6 FFF7FEFF 		bl	SetHighFrequencyDacOutput
 233:main.c        ****                 
 234:main.c        ****                 break;
 593              		.loc 1 234 0
 594 03da 00E0     		b	.L21
 595              	.L31:
 235:main.c        ****                 
 236:main.c        ****             default:
 237:main.c        ****                 /* Place error handling code here */
 238:main.c        ****                 break;    
 596              		.loc 1 238 0
 597 03dc 00BF     		nop
ARM GAS  C:\Users\riveraes\AppData\Local\Temp\ccmEdq2f.s 			page 16


 598              	.L21:
 239:main.c        ****         }
 240:main.c        ****         
 241:main.c        ****     }
 599              		.loc 1 241 0 discriminator 1
 600 03de 1EE6     		b	.L30
 601              	.L35:
 602              		.align	2
 603              	.L34:
 604 03e0 78000000 		.word	.LC16
 605              		.cfi_endproc
 606              	.LFE66:
 607              		.size	main, .-main
 608              		.global	__aeabi_i2d
 609              		.global	__aeabi_ddiv
 610              		.global	__aeabi_d2iz
 611              		.section	.text.SetHighFrequencyDacOutput,"ax",%progbits
 612              		.align	2
 613              		.global	SetHighFrequencyDacOutput
 614              		.thumb
 615              		.thumb_func
 616              		.type	SetHighFrequencyDacOutput, %function
 617              	SetHighFrequencyDacOutput:
 618              	.LFB67:
 242:main.c        **** }
 243:main.c        **** 
 244:main.c        **** /*******************************************************************************
 245:main.c        **** * Function - Init Settings
 246:main.c        **** *******************************************************************************/
 247:main.c        **** void SetHighFrequencyDacOutput(int OutputFrequency)
 248:main.c        **** {   
 619              		.loc 1 248 0
 620              		.cfi_startproc
 621              		@ args = 0, pretend = 0, frame = 24
 622              		@ frame_needed = 1, uses_anonymous_args = 0
 623 0000 90B5     		push	{r4, r7, lr}
 624              		.cfi_def_cfa_offset 12
 625              		.cfi_offset 4, -12
 626              		.cfi_offset 7, -8
 627              		.cfi_offset 14, -4
 628 0002 87B0     		sub	sp, sp, #28
 629              		.cfi_def_cfa_offset 40
 630 0004 00AF     		add	r7, sp, #0
 631              		.cfi_def_cfa_register 7
 632 0006 7860     		str	r0, [r7, #4]
 249:main.c        ****     double KSPS = HIGH_FREQ_DAC_NUMBER_OF_SAMPLES * OutputFrequency;
 633              		.loc 1 249 0
 634 0008 7B68     		ldr	r3, [r7, #4]
 635 000a 4FF49672 		mov	r2, #300
 636 000e 02FB03F3 		mul	r3, r2, r3
 637 0012 1846     		mov	r0, r3
 638 0014 FFF7FEFF 		bl	__aeabi_i2d
 639 0018 0346     		mov	r3, r0
 640 001a 0C46     		mov	r4, r1
 641 001c C7E90434 		strd	r3, [r7, #16]
 250:main.c        ****     double ClockDivider = MASTER_CLOCK_FREQUENCY / KSPS;
 642              		.loc 1 250 0
ARM GAS  C:\Users\riveraes\AppData\Local\Temp\ccmEdq2f.s 			page 17


 643 0020 D7E90423 		ldrd	r2, [r7, #16]
 644 0024 0CA1     		adr	r1, .L37
 645 0026 D1E90001 		ldrd	r0, [r1]
 646 002a FFF7FEFF 		bl	__aeabi_ddiv
 647 002e 0346     		mov	r3, r0
 648 0030 0C46     		mov	r4, r1
 649 0032 C7E90234 		strd	r3, [r7, #8]
 251:main.c        ****     HF_DAC_CLK_SetDividerValue((int)ClockDivider);
 650              		.loc 1 251 0
 651 0036 D7E90201 		ldrd	r0, [r7, #8]
 652 003a FFF7FEFF 		bl	__aeabi_d2iz
 653 003e 0346     		mov	r3, r0
 654 0040 9BB2     		uxth	r3, r3
 655 0042 013B     		subs	r3, r3, #1
 656 0044 9BB2     		uxth	r3, r3
 657 0046 0121     		movs	r1, #1
 658 0048 1846     		mov	r0, r3
 659 004a FFF7FEFF 		bl	HF_DAC_CLK_SetDividerRegister
 252:main.c        **** }
 660              		.loc 1 252 0
 661 004e 00BF     		nop
 662 0050 1C37     		adds	r7, r7, #28
 663              		.cfi_def_cfa_offset 12
 664 0052 BD46     		mov	sp, r7
 665              		.cfi_def_cfa_register 13
 666              		@ sp needed
 667 0054 90BD     		pop	{r4, r7, pc}
 668              	.L38:
 669 0056 00BF     		.align	3
 670              	.L37:
 671 0058 00000000 		.word	0
 672 005c 60E37641 		.word	1098310496
 673              		.cfi_endproc
 674              	.LFE67:
 675              		.size	SetHighFrequencyDacOutput, .-SetHighFrequencyDacOutput
 676              		.section	.text.SetLowFrequencyDacOutput,"ax",%progbits
 677              		.align	2
 678              		.global	SetLowFrequencyDacOutput
 679              		.thumb
 680              		.thumb_func
 681              		.type	SetLowFrequencyDacOutput, %function
 682              	SetLowFrequencyDacOutput:
 683              	.LFB68:
 253:main.c        **** 
 254:main.c        **** /*******************************************************************************
 255:main.c        **** * Function - Init Settings
 256:main.c        **** *******************************************************************************/
 257:main.c        **** void SetLowFrequencyDacOutput(int OutputFrequency)
 258:main.c        **** {   
 684              		.loc 1 258 0
 685              		.cfi_startproc
 686              		@ args = 0, pretend = 0, frame = 24
 687              		@ frame_needed = 1, uses_anonymous_args = 0
 688 0000 90B5     		push	{r4, r7, lr}
 689              		.cfi_def_cfa_offset 12
 690              		.cfi_offset 4, -12
 691              		.cfi_offset 7, -8
ARM GAS  C:\Users\riveraes\AppData\Local\Temp\ccmEdq2f.s 			page 18


 692              		.cfi_offset 14, -4
 693 0002 87B0     		sub	sp, sp, #28
 694              		.cfi_def_cfa_offset 40
 695 0004 00AF     		add	r7, sp, #0
 696              		.cfi_def_cfa_register 7
 697 0006 7860     		str	r0, [r7, #4]
 259:main.c        ****     double KSPS = LOW_FREQ_DAC_NUMBER_OF_SAMPLES * OutputFrequency; 
 698              		.loc 1 259 0
 699 0008 7B68     		ldr	r3, [r7, #4]
 700 000a C822     		movs	r2, #200
 701 000c 02FB03F3 		mul	r3, r2, r3
 702 0010 1846     		mov	r0, r3
 703 0012 FFF7FEFF 		bl	__aeabi_i2d
 704 0016 0346     		mov	r3, r0
 705 0018 0C46     		mov	r4, r1
 706 001a C7E90434 		strd	r3, [r7, #16]
 260:main.c        ****     double ClockDivider = MASTER_CLOCK_FREQUENCY / KSPS;
 707              		.loc 1 260 0
 708 001e D7E90423 		ldrd	r2, [r7, #16]
 709 0022 0DA1     		adr	r1, .L40
 710 0024 D1E90001 		ldrd	r0, [r1]
 711 0028 FFF7FEFF 		bl	__aeabi_ddiv
 712 002c 0346     		mov	r3, r0
 713 002e 0C46     		mov	r4, r1
 714 0030 C7E90234 		strd	r3, [r7, #8]
 261:main.c        ****     LF_DAC_CLK_SetDividerValue((int)ClockDivider);
 715              		.loc 1 261 0
 716 0034 D7E90201 		ldrd	r0, [r7, #8]
 717 0038 FFF7FEFF 		bl	__aeabi_d2iz
 718 003c 0346     		mov	r3, r0
 719 003e 9BB2     		uxth	r3, r3
 720 0040 013B     		subs	r3, r3, #1
 721 0042 9BB2     		uxth	r3, r3
 722 0044 0121     		movs	r1, #1
 723 0046 1846     		mov	r0, r3
 724 0048 FFF7FEFF 		bl	LF_DAC_CLK_SetDividerRegister
 262:main.c        **** }
 725              		.loc 1 262 0
 726 004c 00BF     		nop
 727 004e 1C37     		adds	r7, r7, #28
 728              		.cfi_def_cfa_offset 12
 729 0050 BD46     		mov	sp, r7
 730              		.cfi_def_cfa_register 13
 731              		@ sp needed
 732 0052 90BD     		pop	{r4, r7, pc}
 733              	.L41:
 734 0054 AFF30080 		.align	3
 735              	.L40:
 736 0058 00000000 		.word	0
 737 005c 60E37641 		.word	1098310496
 738              		.cfi_endproc
 739              	.LFE68:
 740              		.size	SetLowFrequencyDacOutput, .-SetLowFrequencyDacOutput
 741              		.section	.text.InitSettings,"ax",%progbits
 742              		.align	2
 743              		.global	InitSettings
 744              		.thumb
ARM GAS  C:\Users\riveraes\AppData\Local\Temp\ccmEdq2f.s 			page 19


 745              		.thumb_func
 746              		.type	InitSettings, %function
 747              	InitSettings:
 748              	.LFB69:
 263:main.c        **** 
 264:main.c        **** /*******************************************************************************
 265:main.c        **** * Function - Init Settings
 266:main.c        **** *******************************************************************************/
 267:main.c        **** void InitSettings(void)
 268:main.c        **** {   
 749              		.loc 1 268 0
 750              		.cfi_startproc
 751              		@ args = 0, pretend = 0, frame = 0
 752              		@ frame_needed = 1, uses_anonymous_args = 0
 753 0000 80B5     		push	{r7, lr}
 754              		.cfi_def_cfa_offset 8
 755              		.cfi_offset 7, -8
 756              		.cfi_offset 14, -4
 757 0002 00AF     		add	r7, sp, #0
 758              		.cfi_def_cfa_register 7
 269:main.c        ****     // Configure Muxes
 270:main.c        ****     HF_SW1_Write(0);    
 759              		.loc 1 270 0
 760 0004 0020     		movs	r0, #0
 761 0006 FFF7FEFF 		bl	HF_SW1_Write
 271:main.c        ****     LF_SW1_Write(0);
 762              		.loc 1 271 0
 763 000a 0020     		movs	r0, #0
 764 000c FFF7FEFF 		bl	LF_SW1_Write
 272:main.c        ****     
 273:main.c        ****     // Configure DAC's external clocks
 274:main.c        ****     SetLowFrequencyDacOutput(150);
 765              		.loc 1 274 0
 766 0010 9620     		movs	r0, #150
 767 0012 FFF7FEFF 		bl	SetLowFrequencyDacOutput
 275:main.c        ****     SetHighFrequencyDacOutput(150);
 768              		.loc 1 275 0
 769 0016 9620     		movs	r0, #150
 770 0018 FFF7FEFF 		bl	SetHighFrequencyDacOutput
 276:main.c        ****     
 277:main.c        ****     // Enable Components
 278:main.c        ****     HF_DAC_1_Start();   // (3,6,9,#,Dummy)
 771              		.loc 1 278 0
 772 001c FFF7FEFF 		bl	HF_DAC_1_Start
 279:main.c        ****     LF_DAC_1_Start();   // (7,8,9,*,0,#)
 773              		.loc 1 279 0
 774 0020 FFF7FEFF 		bl	LF_DAC_1_Start
 280:main.c        **** }
 775              		.loc 1 280 0
 776 0024 00BF     		nop
 777 0026 80BD     		pop	{r7, pc}
 778              		.cfi_endproc
 779              	.LFE69:
 780              		.size	InitSettings, .-InitSettings
 781              		.global	__aeabi_dmul
 782              		.section	.text.DTMF,"ax",%progbits
 783              		.align	2
ARM GAS  C:\Users\riveraes\AppData\Local\Temp\ccmEdq2f.s 			page 20


 784              		.global	DTMF
 785              		.thumb
 786              		.thumb_func
 787              		.type	DTMF, %function
 788              	DTMF:
 789              	.LFB70:
 281:main.c        **** 
 282:main.c        **** /*******************************************************************************
 283:main.c        **** * Function - Find DTMF Frequencies
 284:main.c        **** *******************************************************************************/
 285:main.c        **** void DTMF()
 286:main.c        **** {
 790              		.loc 1 286 0
 791              		.cfi_startproc
 792              		@ args = 0, pretend = 0, frame = 1296
 793              		@ frame_needed = 1, uses_anonymous_args = 0
 794 0000 B0B5     		push	{r4, r5, r7, lr}
 795              		.cfi_def_cfa_offset 16
 796              		.cfi_offset 4, -16
 797              		.cfi_offset 5, -12
 798              		.cfi_offset 7, -8
 799              		.cfi_offset 14, -4
 800 0002 ADF5A26D 		sub	sp, sp, #1296
 801              		.cfi_def_cfa_offset 1312
 802 0006 00AF     		add	r7, sp, #0
 803              		.cfi_def_cfa_register 7
 804              	.LBB5:
 287:main.c        ****     double signal[NUMBER_OF_SAMPLES];
 288:main.c        ****     for(int i = 0; i < NUMBER_OF_SAMPLES; i++)
 805              		.loc 1 288 0
 806 0008 0023     		movs	r3, #0
 807 000a C7F80C35 		str	r3, [r7, #1292]
 808 000e 3BE0     		b	.L44
 809              	.L45:
 810              	.LBB6:
 289:main.c        ****     {
 290:main.c        ****         double pdata = (double)array[i];
 811              		.loc 1 290 0 discriminator 3
 812 0010 5B4A     		ldr	r2, .L50
 813 0012 D7F80C35 		ldr	r3, [r7, #1292]
 814 0016 32F91330 		ldrsh	r3, [r2, r3, lsl #1]
 815 001a 1846     		mov	r0, r3
 816 001c FFF7FEFF 		bl	__aeabi_i2d
 817 0020 0346     		mov	r3, r0
 818 0022 0C46     		mov	r4, r1
 819 0024 07F5A062 		add	r2, r7, #1280
 820 0028 C2E90034 		strd	r3, [r2]
 291:main.c        ****         pdata = pdata*0.5;
 821              		.loc 1 291 0 discriminator 3
 822 002c 4FF00002 		mov	r2, #0
 823 0030 544B     		ldr	r3, .L50+4
 824 0032 07F5A061 		add	r1, r7, #1280
 825 0036 D1E90001 		ldrd	r0, [r1]
 826 003a FFF7FEFF 		bl	__aeabi_dmul
 827 003e 0346     		mov	r3, r0
 828 0040 0C46     		mov	r4, r1
 829 0042 07F5A062 		add	r2, r7, #1280
ARM GAS  C:\Users\riveraes\AppData\Local\Temp\ccmEdq2f.s 			page 21


 830 0046 C2E90034 		strd	r3, [r2]
 292:main.c        ****         pdata = pdata/128;
 831              		.loc 1 292 0 discriminator 3
 832 004a 4FF00002 		mov	r2, #0
 833 004e 4E4B     		ldr	r3, .L50+8
 834 0050 07F5A061 		add	r1, r7, #1280
 835 0054 D1E90001 		ldrd	r0, [r1]
 836 0058 FFF7FEFF 		bl	__aeabi_ddiv
 837 005c 0346     		mov	r3, r0
 838 005e 0C46     		mov	r4, r1
 839 0060 07F5A062 		add	r2, r7, #1280
 840 0064 C2E90034 		strd	r3, [r2]
 293:main.c        ****         signal[i] = pdata;
 841              		.loc 1 293 0 discriminator 3
 842 0068 07F14802 		add	r2, r7, #72
 843 006c D7F80C35 		ldr	r3, [r7, #1292]
 844 0070 DB00     		lsls	r3, r3, #3
 845 0072 1A44     		add	r2, r2, r3
 846 0074 07F5A063 		add	r3, r7, #1280
 847 0078 18CB     		ldmia	r3, {r3-r4}
 848 007a C2E90034 		strd	r3, [r2]
 849              	.LBE6:
 288:main.c        ****     {
 850              		.loc 1 288 0 discriminator 3
 851 007e D7F80C35 		ldr	r3, [r7, #1292]
 852 0082 0133     		adds	r3, r3, #1
 853 0084 C7F80C35 		str	r3, [r7, #1292]
 854              	.L44:
 288:main.c        ****     {
 855              		.loc 1 288 0 is_stmt 0 discriminator 1
 856 0088 D7F80C35 		ldr	r3, [r7, #1292]
 857 008c 952B     		cmp	r3, #149
 858 008e BFDD     		ble	.L45
 859              	.LBE5:
 294:main.c        ****     }
 295:main.c        ****     
 296:main.c        ****     double loAmplitudes[LOW_FREQUENCIES_ANALIZED] = {0, 0, 0, 0, 0};
 860              		.loc 1 296 0 is_stmt 1
 861 0090 07F12003 		add	r3, r7, #32
 862 0094 1846     		mov	r0, r3
 863 0096 2823     		movs	r3, #40
 864 0098 1A46     		mov	r2, r3
 865 009a 0021     		movs	r1, #0
 866 009c FFF7FEFF 		bl	memset
 297:main.c        ****     double hiAmplitudes[HIGH_FREQUENCIES_ANALIZED] = {0, 0, 0, 0};
 867              		.loc 1 297 0
 868 00a0 3B46     		mov	r3, r7
 869 00a2 1846     		mov	r0, r3
 870 00a4 2023     		movs	r3, #32
 871 00a6 1A46     		mov	r2, r3
 872 00a8 0021     		movs	r1, #0
 873 00aa FFF7FEFF 		bl	memset
 874              	.LBB7:
 298:main.c        ****     
 299:main.c        ****     for(uint8 i = 0; i < LOW_FREQUENCIES_ANALIZED; i++)
 875              		.loc 1 299 0
 876 00ae 0023     		movs	r3, #0
ARM GAS  C:\Users\riveraes\AppData\Local\Temp\ccmEdq2f.s 			page 22


 877 00b0 87F80B35 		strb	r3, [r7, #1291]
 878 00b4 1AE0     		b	.L46
 879              	.L47:
 300:main.c        ****     {
 301:main.c        ****         loAmplitudes[i] = Goertzel(NUMBER_OF_SAMPLES,loFrequency[i],SAMPLING_RATE, signal);
 880              		.loc 1 301 0 discriminator 3
 881 00b6 97F80B55 		ldrb	r5, [r7, #1291]	@ zero_extendqisi2
 882 00ba 97F80B35 		ldrb	r3, [r7, #1291]	@ zero_extendqisi2
 883 00be 334A     		ldr	r2, .L50+12
 884 00c0 52F82310 		ldr	r1, [r2, r3, lsl #2]
 885 00c4 07F14803 		add	r3, r7, #72
 886 00c8 42F21072 		movw	r2, #10000
 887 00cc 9620     		movs	r0, #150
 888 00ce FFF7FEFF 		bl	Goertzel
 889 00d2 0346     		mov	r3, r0
 890 00d4 0C46     		mov	r4, r1
 891 00d6 07F12001 		add	r1, r7, #32
 892 00da EA00     		lsls	r2, r5, #3
 893 00dc 0A44     		add	r2, r2, r1
 894 00de C2E90034 		strd	r3, [r2]
 299:main.c        ****     {
 895              		.loc 1 299 0 discriminator 3
 896 00e2 97F80B35 		ldrb	r3, [r7, #1291]	@ zero_extendqisi2
 897 00e6 0133     		adds	r3, r3, #1
 898 00e8 87F80B35 		strb	r3, [r7, #1291]
 899              	.L46:
 299:main.c        ****     {
 900              		.loc 1 299 0 is_stmt 0 discriminator 1
 901 00ec 97F80B35 		ldrb	r3, [r7, #1291]	@ zero_extendqisi2
 902 00f0 042B     		cmp	r3, #4
 903 00f2 E0D9     		bls	.L47
 904              	.LBE7:
 905              	.LBB8:
 302:main.c        ****     }
 303:main.c        ****     
 304:main.c        ****     for(uint8 i = 0; i < HIGH_FREQUENCIES_ANALIZED; i++)
 906              		.loc 1 304 0 is_stmt 1
 907 00f4 0023     		movs	r3, #0
 908 00f6 87F80A35 		strb	r3, [r7, #1290]
 909 00fa 19E0     		b	.L48
 910              	.L49:
 305:main.c        ****     {
 306:main.c        ****         hiAmplitudes[i] = Goertzel(NUMBER_OF_SAMPLES,hiFrequency[i],SAMPLING_RATE, signal);
 911              		.loc 1 306 0 discriminator 3
 912 00fc 97F80A55 		ldrb	r5, [r7, #1290]	@ zero_extendqisi2
 913 0100 97F80A35 		ldrb	r3, [r7, #1290]	@ zero_extendqisi2
 914 0104 224A     		ldr	r2, .L50+16
 915 0106 52F82310 		ldr	r1, [r2, r3, lsl #2]
 916 010a 07F14803 		add	r3, r7, #72
 917 010e 42F21072 		movw	r2, #10000
 918 0112 9620     		movs	r0, #150
 919 0114 FFF7FEFF 		bl	Goertzel
 920 0118 0346     		mov	r3, r0
 921 011a 0C46     		mov	r4, r1
 922 011c 3946     		mov	r1, r7
 923 011e EA00     		lsls	r2, r5, #3
 924 0120 0A44     		add	r2, r2, r1
ARM GAS  C:\Users\riveraes\AppData\Local\Temp\ccmEdq2f.s 			page 23


 925 0122 C2E90034 		strd	r3, [r2]
 304:main.c        ****     {
 926              		.loc 1 304 0 discriminator 3
 927 0126 97F80A35 		ldrb	r3, [r7, #1290]	@ zero_extendqisi2
 928 012a 0133     		adds	r3, r3, #1
 929 012c 87F80A35 		strb	r3, [r7, #1290]
 930              	.L48:
 304:main.c        ****     {
 931              		.loc 1 304 0 is_stmt 0 discriminator 1
 932 0130 97F80A35 		ldrb	r3, [r7, #1290]	@ zero_extendqisi2
 933 0134 032B     		cmp	r3, #3
 934 0136 E1D9     		bls	.L49
 935              	.LBE8:
 307:main.c        ****     }
 308:main.c        ****     
 309:main.c        ****     uint16 loAmp = getMaxValue(loAmplitudes, LOW_FREQUENCIES_ANALIZED);
 936              		.loc 1 309 0 is_stmt 1
 937 0138 07F12003 		add	r3, r7, #32
 938 013c 0521     		movs	r1, #5
 939 013e 1846     		mov	r0, r3
 940 0140 FFF7FEFF 		bl	getMaxValue
 941 0144 0346     		mov	r3, r0
 942 0146 A7F8FE34 		strh	r3, [r7, #1278]	@ movhi
 310:main.c        ****     uint16 hiAmp = getMaxValue(hiAmplitudes, HIGH_FREQUENCIES_ANALIZED);   
 943              		.loc 1 310 0
 944 014a 3B46     		mov	r3, r7
 945 014c 0421     		movs	r1, #4
 946 014e 1846     		mov	r0, r3
 947 0150 FFF7FEFF 		bl	getMaxValue
 948 0154 0346     		mov	r3, r0
 949 0156 A7F8FC34 		strh	r3, [r7, #1276]	@ movhi
 311:main.c        ****     
 312:main.c        ****     // Print the low and High frequencies found
 313:main.c        ****     //sprintf(TransmitBuffer, "Lo=%dHz", loFrequency[loAmp]);
 314:main.c        ****     //UART_1_PutString(TransmitBuffer);
 315:main.c        ****     //UART_1_PutString(" - ");
 316:main.c        ****     //sprintf(TransmitBuffer, "Hi=%dHz\r\n", hiFrequency[hiAmp]);
 317:main.c        ****     //UART_1_PutString(TransmitBuffer);
 318:main.c        ****     
 319:main.c        ****     // Decode the pressed key value
 320:main.c        ****     DecodeInput(loFrequency[loAmp], hiFrequency[hiAmp]);
 950              		.loc 1 320 0
 951 015a B7F8FE34 		ldrh	r3, [r7, #1278]
 952 015e 0B4A     		ldr	r2, .L50+12
 953 0160 52F82300 		ldr	r0, [r2, r3, lsl #2]
 954 0164 B7F8FC34 		ldrh	r3, [r7, #1276]
 955 0168 094A     		ldr	r2, .L50+16
 956 016a 52F82330 		ldr	r3, [r2, r3, lsl #2]
 957 016e 1946     		mov	r1, r3
 958 0170 FFF7FEFF 		bl	DecodeInput
 321:main.c        **** }
 959              		.loc 1 321 0
 960 0174 00BF     		nop
 961 0176 07F5A267 		add	r7, r7, #1296
 962              		.cfi_def_cfa_offset 16
 963 017a BD46     		mov	sp, r7
 964              		.cfi_def_cfa_register 13
ARM GAS  C:\Users\riveraes\AppData\Local\Temp\ccmEdq2f.s 			page 24


 965              		@ sp needed
 966 017c B0BD     		pop	{r4, r5, r7, pc}
 967              	.L51:
 968 017e 00BF     		.align	2
 969              	.L50:
 970 0180 00000000 		.word	array
 971 0184 0000E03F 		.word	1071644672
 972 0188 00006040 		.word	1080033280
 973 018c 00000000 		.word	loFrequency
 974 0190 00000000 		.word	hiFrequency
 975              		.cfi_endproc
 976              	.LFE70:
 977              		.size	DTMF, .-DTMF
 978              		.global	__aeabi_dadd
 979              		.global	__aeabi_dsub
 980              		.section	.text.Goertzel,"ax",%progbits
 981              		.align	2
 982              		.global	Goertzel
 983              		.thumb
 984              		.thumb_func
 985              		.type	Goertzel, %function
 986              	Goertzel:
 987              	.LFB71:
 322:main.c        **** 
 323:main.c        **** /*******************************************************************************
 324:main.c        **** * Function - Goertzel algorithm
 325:main.c        **** *******************************************************************************/
 326:main.c        **** double Goertzel(int numSamples, int tFrequency,int tSamplingRate, double data[])
 327:main.c        **** {
 988              		.loc 1 327 0
 989              		.cfi_startproc
 990              		@ args = 0, pretend = 0, frame = 136
 991              		@ frame_needed = 1, uses_anonymous_args = 0
 992 0000 B0B5     		push	{r4, r5, r7, lr}
 993              		.cfi_def_cfa_offset 16
 994              		.cfi_offset 4, -16
 995              		.cfi_offset 5, -12
 996              		.cfi_offset 7, -8
 997              		.cfi_offset 14, -4
 998 0002 A2B0     		sub	sp, sp, #136
 999              		.cfi_def_cfa_offset 152
 1000 0004 00AF     		add	r7, sp, #0
 1001              		.cfi_def_cfa_register 7
 1002 0006 F860     		str	r0, [r7, #12]
 1003 0008 B960     		str	r1, [r7, #8]
 1004 000a 7A60     		str	r2, [r7, #4]
 1005 000c 3B60     		str	r3, [r7]
 328:main.c        ****     int k;
 329:main.c        ****     int i;
 330:main.c        ****     double floatnumSamples;
 331:main.c        ****     double omega;
 332:main.c        ****     double sine;
 333:main.c        ****     double cosine;
 334:main.c        ****     double coeff;
 335:main.c        ****     double q0;
 336:main.c        ****     double q1;
 337:main.c        ****     double q2;
ARM GAS  C:\Users\riveraes\AppData\Local\Temp\ccmEdq2f.s 			page 25


 338:main.c        ****     double magnitude;
 339:main.c        ****     double real;
 340:main.c        ****     double imag;
 341:main.c        ****     
 342:main.c        ****     double scalingFactor = numSamples / 2.0;
 1006              		.loc 1 342 0
 1007 000e F868     		ldr	r0, [r7, #12]
 1008 0010 FFF7FEFF 		bl	__aeabi_i2d
 1009 0014 4FF00002 		mov	r2, #0
 1010 0018 4FF08043 		mov	r3, #1073741824
 1011 001c FFF7FEFF 		bl	__aeabi_ddiv
 1012 0020 0346     		mov	r3, r0
 1013 0022 0C46     		mov	r4, r1
 1014 0024 C7E91A34 		strd	r3, [r7, #104]
 343:main.c        **** 
 344:main.c        ****     floatnumSamples = numSamples;
 1015              		.loc 1 344 0
 1016 0028 F868     		ldr	r0, [r7, #12]
 1017 002a FFF7FEFF 		bl	__aeabi_i2d
 1018 002e 0346     		mov	r3, r0
 1019 0030 0C46     		mov	r4, r1
 1020 0032 C7E91834 		strd	r3, [r7, #96]
 345:main.c        ****     k = (0.5 + ((floatnumSamples * tFrequency) / tSamplingRate));
 1021              		.loc 1 345 0
 1022 0036 B868     		ldr	r0, [r7, #8]
 1023 0038 FFF7FEFF 		bl	__aeabi_i2d
 1024 003c D7E91823 		ldrd	r2, [r7, #96]
 1025 0040 FFF7FEFF 		bl	__aeabi_dmul
 1026 0044 0346     		mov	r3, r0
 1027 0046 0C46     		mov	r4, r1
 1028 0048 2546     		mov	r5, r4
 1029 004a 1C46     		mov	r4, r3
 1030 004c 7868     		ldr	r0, [r7, #4]
 1031 004e FFF7FEFF 		bl	__aeabi_i2d
 1032 0052 0246     		mov	r2, r0
 1033 0054 0B46     		mov	r3, r1
 1034 0056 2046     		mov	r0, r4
 1035 0058 2946     		mov	r1, r5
 1036 005a FFF7FEFF 		bl	__aeabi_ddiv
 1037 005e 0346     		mov	r3, r0
 1038 0060 0C46     		mov	r4, r1
 1039 0062 1846     		mov	r0, r3
 1040 0064 2146     		mov	r1, r4
 1041 0066 4FF00002 		mov	r2, #0
 1042 006a 6B4B     		ldr	r3, .L56+8
 1043 006c FFF7FEFF 		bl	__aeabi_dadd
 1044 0070 0346     		mov	r3, r0
 1045 0072 0C46     		mov	r4, r1
 1046 0074 1846     		mov	r0, r3
 1047 0076 2146     		mov	r1, r4
 1048 0078 FFF7FEFF 		bl	__aeabi_d2iz
 1049 007c 0346     		mov	r3, r0
 1050 007e FB65     		str	r3, [r7, #92]
 346:main.c        ****     omega = (2.0 * M_PI * k) / floatnumSamples;
 1051              		.loc 1 346 0
 1052 0080 F86D     		ldr	r0, [r7, #92]
 1053 0082 FFF7FEFF 		bl	__aeabi_i2d
ARM GAS  C:\Users\riveraes\AppData\Local\Temp\ccmEdq2f.s 			page 26


 1054 0086 62A3     		adr	r3, .L56
 1055 0088 D3E90023 		ldrd	r2, [r3]
 1056 008c FFF7FEFF 		bl	__aeabi_dmul
 1057 0090 0346     		mov	r3, r0
 1058 0092 0C46     		mov	r4, r1
 1059 0094 1846     		mov	r0, r3
 1060 0096 2146     		mov	r1, r4
 1061 0098 D7E91823 		ldrd	r2, [r7, #96]
 1062 009c FFF7FEFF 		bl	__aeabi_ddiv
 1063 00a0 0346     		mov	r3, r0
 1064 00a2 0C46     		mov	r4, r1
 1065 00a4 C7E91434 		strd	r3, [r7, #80]
 347:main.c        ****     sine = sin(omega);
 1066              		.loc 1 347 0
 1067 00a8 D7E91401 		ldrd	r0, [r7, #80]
 1068 00ac FFF7FEFF 		bl	sin
 1069 00b0 C7E91201 		strd	r0, [r7, #72]
 348:main.c        ****     cosine = cos(omega);
 1070              		.loc 1 348 0
 1071 00b4 D7E91401 		ldrd	r0, [r7, #80]
 1072 00b8 FFF7FEFF 		bl	cos
 1073 00bc C7E91001 		strd	r0, [r7, #64]
 349:main.c        ****     coeff = 2.0 * cosine;
 1074              		.loc 1 349 0
 1075 00c0 D7E91001 		ldrd	r0, [r7, #64]
 1076 00c4 0246     		mov	r2, r0
 1077 00c6 0B46     		mov	r3, r1
 1078 00c8 FFF7FEFF 		bl	__aeabi_dadd
 1079 00cc 0346     		mov	r3, r0
 1080 00ce 0C46     		mov	r4, r1
 1081 00d0 C7E90E34 		strd	r3, [r7, #56]
 350:main.c        ****     q0=0;
 1082              		.loc 1 350 0
 1083 00d4 4FF00003 		mov	r3, #0
 1084 00d8 4FF00004 		mov	r4, #0
 1085 00dc C7E90C34 		strd	r3, [r7, #48]
 351:main.c        ****     q1=0;
 1086              		.loc 1 351 0
 1087 00e0 4FF00003 		mov	r3, #0
 1088 00e4 4FF00004 		mov	r4, #0
 1089 00e8 C7E92034 		strd	r3, [r7, #128]
 352:main.c        ****     q2=0;
 1090              		.loc 1 352 0
 1091 00ec 4FF00003 		mov	r3, #0
 1092 00f0 4FF00004 		mov	r4, #0
 1093 00f4 C7E91E34 		strd	r3, [r7, #120]
 1094              	.LBB9:
 353:main.c        ****     
 354:main.c        ****     for(uint16 i = 0; i < numSamples; i++)
 1095              		.loc 1 354 0
 1096 00f8 0023     		movs	r3, #0
 1097 00fa A7F87630 		strh	r3, [r7, #118]	@ movhi
 1098 00fe 2EE0     		b	.L53
 1099              	.L54:
 1100              	.LBB10:
 355:main.c        ****     {
 356:main.c        ****         double mdata =  data[i];
ARM GAS  C:\Users\riveraes\AppData\Local\Temp\ccmEdq2f.s 			page 27


 1101              		.loc 1 356 0 discriminator 3
 1102 0100 B7F87630 		ldrh	r3, [r7, #118]
 1103 0104 DB00     		lsls	r3, r3, #3
 1104 0106 3A68     		ldr	r2, [r7]
 1105 0108 1344     		add	r3, r3, r2
 1106 010a 18CB     		ldmia	r3, {r3-r4}
 1107 010c C7E90A34 		strd	r3, [r7, #40]
 357:main.c        ****         
 358:main.c        ****         q0 = coeff * q1 - q2 + mdata;
 1108              		.loc 1 358 0 discriminator 3
 1109 0110 D7E92023 		ldrd	r2, [r7, #128]
 1110 0114 D7E90E01 		ldrd	r0, [r7, #56]
 1111 0118 FFF7FEFF 		bl	__aeabi_dmul
 1112 011c 0346     		mov	r3, r0
 1113 011e 0C46     		mov	r4, r1
 1114 0120 1846     		mov	r0, r3
 1115 0122 2146     		mov	r1, r4
 1116 0124 D7E91E23 		ldrd	r2, [r7, #120]
 1117 0128 FFF7FEFF 		bl	__aeabi_dsub
 1118 012c 0346     		mov	r3, r0
 1119 012e 0C46     		mov	r4, r1
 1120 0130 1846     		mov	r0, r3
 1121 0132 2146     		mov	r1, r4
 1122 0134 D7E90A23 		ldrd	r2, [r7, #40]
 1123 0138 FFF7FEFF 		bl	__aeabi_dadd
 1124 013c 0346     		mov	r3, r0
 1125 013e 0C46     		mov	r4, r1
 1126 0140 C7E90C34 		strd	r3, [r7, #48]
 359:main.c        ****         q2 = q1;
 1127              		.loc 1 359 0 discriminator 3
 1128 0144 D7E92034 		ldrd	r3, [r7, #128]
 1129 0148 C7E91E34 		strd	r3, [r7, #120]
 360:main.c        ****         q1 = q0;
 1130              		.loc 1 360 0 discriminator 3
 1131 014c D7E90C34 		ldrd	r3, [r7, #48]
 1132 0150 C7E92034 		strd	r3, [r7, #128]
 1133              	.LBE10:
 354:main.c        ****     {
 1134              		.loc 1 354 0 discriminator 3
 1135 0154 B7F87630 		ldrh	r3, [r7, #118]
 1136 0158 0133     		adds	r3, r3, #1
 1137 015a A7F87630 		strh	r3, [r7, #118]	@ movhi
 1138              	.L53:
 354:main.c        ****     {
 1139              		.loc 1 354 0 is_stmt 0 discriminator 1
 1140 015e B7F87620 		ldrh	r2, [r7, #118]
 1141 0162 FB68     		ldr	r3, [r7, #12]
 1142 0164 9A42     		cmp	r2, r3
 1143 0166 CBDB     		blt	.L54
 1144              	.LBE9:
 361:main.c        ****     }
 362:main.c        **** 
 363:main.c        ****     // calculate the real and imaginary results
 364:main.c        ****     // scaling appropriately
 365:main.c        ****     real = (q1 - q2 * cosine) / scalingFactor;
 1145              		.loc 1 365 0 is_stmt 1
 1146 0168 D7E91023 		ldrd	r2, [r7, #64]
ARM GAS  C:\Users\riveraes\AppData\Local\Temp\ccmEdq2f.s 			page 28


 1147 016c D7E91E01 		ldrd	r0, [r7, #120]
 1148 0170 FFF7FEFF 		bl	__aeabi_dmul
 1149 0174 0346     		mov	r3, r0
 1150 0176 0C46     		mov	r4, r1
 1151 0178 1A46     		mov	r2, r3
 1152 017a 2346     		mov	r3, r4
 1153 017c D7E92001 		ldrd	r0, [r7, #128]
 1154 0180 FFF7FEFF 		bl	__aeabi_dsub
 1155 0184 0346     		mov	r3, r0
 1156 0186 0C46     		mov	r4, r1
 1157 0188 1846     		mov	r0, r3
 1158 018a 2146     		mov	r1, r4
 1159 018c D7E91A23 		ldrd	r2, [r7, #104]
 1160 0190 FFF7FEFF 		bl	__aeabi_ddiv
 1161 0194 0346     		mov	r3, r0
 1162 0196 0C46     		mov	r4, r1
 1163 0198 C7E90834 		strd	r3, [r7, #32]
 366:main.c        ****     imag = (q2 * sine) / scalingFactor;
 1164              		.loc 1 366 0
 1165 019c D7E91223 		ldrd	r2, [r7, #72]
 1166 01a0 D7E91E01 		ldrd	r0, [r7, #120]
 1167 01a4 FFF7FEFF 		bl	__aeabi_dmul
 1168 01a8 0346     		mov	r3, r0
 1169 01aa 0C46     		mov	r4, r1
 1170 01ac 1846     		mov	r0, r3
 1171 01ae 2146     		mov	r1, r4
 1172 01b0 D7E91A23 		ldrd	r2, [r7, #104]
 1173 01b4 FFF7FEFF 		bl	__aeabi_ddiv
 1174 01b8 0346     		mov	r3, r0
 1175 01ba 0C46     		mov	r4, r1
 1176 01bc C7E90634 		strd	r3, [r7, #24]
 367:main.c        **** 
 368:main.c        ****     magnitude = sqrt(real*real + imag*imag);
 1177              		.loc 1 368 0
 1178 01c0 D7E90823 		ldrd	r2, [r7, #32]
 1179 01c4 D7E90801 		ldrd	r0, [r7, #32]
 1180 01c8 FFF7FEFF 		bl	__aeabi_dmul
 1181 01cc 0346     		mov	r3, r0
 1182 01ce 0C46     		mov	r4, r1
 1183 01d0 2546     		mov	r5, r4
 1184 01d2 1C46     		mov	r4, r3
 1185 01d4 D7E90623 		ldrd	r2, [r7, #24]
 1186 01d8 D7E90601 		ldrd	r0, [r7, #24]
 1187 01dc FFF7FEFF 		bl	__aeabi_dmul
 1188 01e0 0246     		mov	r2, r0
 1189 01e2 0B46     		mov	r3, r1
 1190 01e4 2046     		mov	r0, r4
 1191 01e6 2946     		mov	r1, r5
 1192 01e8 FFF7FEFF 		bl	__aeabi_dadd
 1193 01ec 0346     		mov	r3, r0
 1194 01ee 0C46     		mov	r4, r1
 1195 01f0 1846     		mov	r0, r3
 1196 01f2 2146     		mov	r1, r4
 1197 01f4 FFF7FEFF 		bl	sqrt
 1198 01f8 C7E90401 		strd	r0, [r7, #16]
 369:main.c        ****     return magnitude;
 1199              		.loc 1 369 0
ARM GAS  C:\Users\riveraes\AppData\Local\Temp\ccmEdq2f.s 			page 29


 1200 01fc D7E90434 		ldrd	r3, [r7, #16]
 370:main.c        **** }
 1201              		.loc 1 370 0
 1202 0200 1846     		mov	r0, r3
 1203 0202 2146     		mov	r1, r4
 1204 0204 8837     		adds	r7, r7, #136
 1205              		.cfi_def_cfa_offset 16
 1206 0206 BD46     		mov	sp, r7
 1207              		.cfi_def_cfa_register 13
 1208              		@ sp needed
 1209 0208 B0BD     		pop	{r4, r5, r7, pc}
 1210              	.L57:
 1211 020a 00BFAFF3 		.align	3
 1211      0080
 1212              	.L56:
 1213 0210 182D4454 		.word	1413754136
 1214 0214 FB211940 		.word	1075388923
 1215 0218 0000E03F 		.word	1071644672
 1216              		.cfi_endproc
 1217              	.LFE71:
 1218              		.size	Goertzel, .-Goertzel
 1219              		.global	__aeabi_dcmpgt
 1220              		.section	.text.getMaxValue,"ax",%progbits
 1221              		.align	2
 1222              		.global	getMaxValue
 1223              		.thumb
 1224              		.thumb_func
 1225              		.type	getMaxValue, %function
 1226              	getMaxValue:
 1227              	.LFB72:
 371:main.c        **** 
 372:main.c        **** /*******************************************************************************
 373:main.c        **** * Function - Find max value of given array
 374:main.c        **** *******************************************************************************/
 375:main.c        **** uint16 getMaxValue(double *arrayData, uint8 size)
 376:main.c        **** {
 1228              		.loc 1 376 0
 1229              		.cfi_startproc
 1230              		@ args = 0, pretend = 0, frame = 24
 1231              		@ frame_needed = 1, uses_anonymous_args = 0
 1232 0000 90B5     		push	{r4, r7, lr}
 1233              		.cfi_def_cfa_offset 12
 1234              		.cfi_offset 4, -12
 1235              		.cfi_offset 7, -8
 1236              		.cfi_offset 14, -4
 1237 0002 87B0     		sub	sp, sp, #28
 1238              		.cfi_def_cfa_offset 40
 1239 0004 00AF     		add	r7, sp, #0
 1240              		.cfi_def_cfa_register 7
 1241 0006 7860     		str	r0, [r7, #4]
 1242 0008 0B46     		mov	r3, r1
 1243 000a FB70     		strb	r3, [r7, #3]
 377:main.c        ****     double maxValue = arrayData[0];
 1244              		.loc 1 377 0
 1245 000c 7B68     		ldr	r3, [r7, #4]
 1246 000e 18CB     		ldmia	r3, {r3-r4}
 1247 0010 C7E90434 		strd	r3, [r7, #16]
ARM GAS  C:\Users\riveraes\AppData\Local\Temp\ccmEdq2f.s 			page 30


 378:main.c        ****     uint16 index = 0;
 1248              		.loc 1 378 0
 1249 0014 0023     		movs	r3, #0
 1250 0016 FB81     		strh	r3, [r7, #14]	@ movhi
 1251              	.LBB11:
 379:main.c        ****     for (uint16 i = 1; i < size; ++i) 
 1252              		.loc 1 379 0
 1253 0018 0123     		movs	r3, #1
 1254 001a BB81     		strh	r3, [r7, #12]	@ movhi
 1255 001c 18E0     		b	.L59
 1256              	.L62:
 380:main.c        ****     {
 381:main.c        ****         if ( arrayData[i] > maxValue ) 
 1257              		.loc 1 381 0
 1258 001e BB89     		ldrh	r3, [r7, #12]
 1259 0020 DB00     		lsls	r3, r3, #3
 1260 0022 7A68     		ldr	r2, [r7, #4]
 1261 0024 1344     		add	r3, r3, r2
 1262 0026 D3E90001 		ldrd	r0, [r3]
 1263 002a D7E90423 		ldrd	r2, [r7, #16]
 1264 002e FFF7FEFF 		bl	__aeabi_dcmpgt
 1265 0032 0346     		mov	r3, r0
 1266 0034 002B     		cmp	r3, #0
 1267 0036 08D0     		beq	.L60
 382:main.c        ****         {
 383:main.c        ****             maxValue = arrayData[i];
 1268              		.loc 1 383 0
 1269 0038 BB89     		ldrh	r3, [r7, #12]
 1270 003a DB00     		lsls	r3, r3, #3
 1271 003c 7A68     		ldr	r2, [r7, #4]
 1272 003e 1344     		add	r3, r3, r2
 1273 0040 18CB     		ldmia	r3, {r3-r4}
 1274 0042 C7E90434 		strd	r3, [r7, #16]
 384:main.c        ****             index = i;
 1275              		.loc 1 384 0
 1276 0046 BB89     		ldrh	r3, [r7, #12]	@ movhi
 1277 0048 FB81     		strh	r3, [r7, #14]	@ movhi
 1278              	.L60:
 379:main.c        ****     {
 1279              		.loc 1 379 0 discriminator 2
 1280 004a BB89     		ldrh	r3, [r7, #12]	@ movhi
 1281 004c 0133     		adds	r3, r3, #1
 1282 004e BB81     		strh	r3, [r7, #12]	@ movhi
 1283              	.L59:
 379:main.c        ****     {
 1284              		.loc 1 379 0 is_stmt 0 discriminator 1
 1285 0050 FB78     		ldrb	r3, [r7, #3]	@ zero_extendqisi2
 1286 0052 9BB2     		uxth	r3, r3
 1287 0054 BA89     		ldrh	r2, [r7, #12]
 1288 0056 9A42     		cmp	r2, r3
 1289 0058 E1D3     		bcc	.L62
 1290              	.LBE11:
 385:main.c        ****         }
 386:main.c        ****     }
 387:main.c        ****     
 388:main.c        ****     return index;
 1291              		.loc 1 388 0 is_stmt 1
ARM GAS  C:\Users\riveraes\AppData\Local\Temp\ccmEdq2f.s 			page 31


 1292 005a FB89     		ldrh	r3, [r7, #14]
 389:main.c        **** }
 1293              		.loc 1 389 0
 1294 005c 1846     		mov	r0, r3
 1295 005e 1C37     		adds	r7, r7, #28
 1296              		.cfi_def_cfa_offset 12
 1297 0060 BD46     		mov	sp, r7
 1298              		.cfi_def_cfa_register 13
 1299              		@ sp needed
 1300 0062 90BD     		pop	{r4, r7, pc}
 1301              		.cfi_endproc
 1302              	.LFE72:
 1303              		.size	getMaxValue, .-getMaxValue
 1304              		.section	.rodata
 1305 008e 0000     		.align	2
 1306              	.LC17:
 1307 0090 3100     		.ascii	"1\000"
 1308 0092 0000     		.align	2
 1309              	.LC18:
 1310 0094 3200     		.ascii	"2\000"
 1311 0096 0000     		.align	2
 1312              	.LC19:
 1313 0098 3300     		.ascii	"3\000"
 1314 009a 0000     		.align	2
 1315              	.LC20:
 1316 009c 3400     		.ascii	"4\000"
 1317 009e 0000     		.align	2
 1318              	.LC21:
 1319 00a0 3500     		.ascii	"5\000"
 1320 00a2 0000     		.align	2
 1321              	.LC22:
 1322 00a4 3600     		.ascii	"6\000"
 1323 00a6 0000     		.align	2
 1324              	.LC23:
 1325 00a8 3700     		.ascii	"7\000"
 1326 00aa 0000     		.align	2
 1327              	.LC24:
 1328 00ac 3800     		.ascii	"8\000"
 1329 00ae 0000     		.align	2
 1330              	.LC25:
 1331 00b0 3900     		.ascii	"9\000"
 1332 00b2 0000     		.align	2
 1333              	.LC26:
 1334 00b4 2A00     		.ascii	"*\000"
 1335 00b6 0000     		.align	2
 1336              	.LC27:
 1337 00b8 3000     		.ascii	"0\000"
 1338 00ba 0000     		.align	2
 1339              	.LC28:
 1340 00bc 2300     		.ascii	"#\000"
 1341              		.section	.text.DecodeInput,"ax",%progbits
 1342              		.align	2
 1343              		.global	DecodeInput
 1344              		.thumb
 1345              		.thumb_func
 1346              		.type	DecodeInput, %function
 1347              	DecodeInput:
ARM GAS  C:\Users\riveraes\AppData\Local\Temp\ccmEdq2f.s 			page 32


 1348              	.LFB73:
 390:main.c        **** 
 391:main.c        **** /*******************************************************************************
 392:main.c        **** * Function - Decode the frequencies found
 393:main.c        **** *******************************************************************************/
 394:main.c        **** void DecodeInput(int lo, int hi)
 395:main.c        **** {
 1349              		.loc 1 395 0
 1350              		.cfi_startproc
 1351              		@ args = 0, pretend = 0, frame = 8
 1352              		@ frame_needed = 1, uses_anonymous_args = 0
 1353 0000 80B5     		push	{r7, lr}
 1354              		.cfi_def_cfa_offset 8
 1355              		.cfi_offset 7, -8
 1356              		.cfi_offset 14, -4
 1357 0002 82B0     		sub	sp, sp, #8
 1358              		.cfi_def_cfa_offset 16
 1359 0004 00AF     		add	r7, sp, #0
 1360              		.cfi_def_cfa_register 7
 1361 0006 7860     		str	r0, [r7, #4]
 1362 0008 3960     		str	r1, [r7]
 396:main.c        ****     // Keys 1,2,3
 397:main.c        ****     if ( (lo == loFrequency[1]) && (hi == hiFrequency[1]))
 1363              		.loc 1 397 0
 1364 000a 864B     		ldr	r3, .L81
 1365 000c 5A68     		ldr	r2, [r3, #4]
 1366 000e 7B68     		ldr	r3, [r7, #4]
 1367 0010 9A42     		cmp	r2, r3
 1368 0012 0FD1     		bne	.L66
 1369              		.loc 1 397 0 is_stmt 0 discriminator 1
 1370 0014 844B     		ldr	r3, .L81+4
 1371 0016 5A68     		ldr	r2, [r3, #4]
 1372 0018 3B68     		ldr	r3, [r7]
 1373 001a 9A42     		cmp	r2, r3
 1374 001c 0AD1     		bne	.L66
 398:main.c        ****     {
 399:main.c        ****         if (terminalOutputEnable == TRUE)
 1375              		.loc 1 399 0 is_stmt 1
 1376 001e 834B     		ldr	r3, .L81+8
 1377 0020 93F90030 		ldrsb	r3, [r3]
 1378 0024 012B     		cmp	r3, #1
 1379 0026 05D1     		bne	.L66
 400:main.c        ****         {
 401:main.c        ****             UART_1_PutString("1");
 1380              		.loc 1 401 0
 1381 0028 8148     		ldr	r0, .L81+12
 1382 002a FFF7FEFF 		bl	UART_1_PutString
 402:main.c        ****             terminalOutputEnable = FALSE;
 1383              		.loc 1 402 0
 1384 002e 7F4B     		ldr	r3, .L81+8
 1385 0030 0022     		movs	r2, #0
 1386 0032 1A70     		strb	r2, [r3]
 1387              	.L66:
 403:main.c        ****         }
 404:main.c        ****     }
 405:main.c        ****     if ( (lo == loFrequency[1]) && (hi == hiFrequency[2]))
 1388              		.loc 1 405 0
ARM GAS  C:\Users\riveraes\AppData\Local\Temp\ccmEdq2f.s 			page 33


 1389 0034 7B4B     		ldr	r3, .L81
 1390 0036 5A68     		ldr	r2, [r3, #4]
 1391 0038 7B68     		ldr	r3, [r7, #4]
 1392 003a 9A42     		cmp	r2, r3
 1393 003c 0FD1     		bne	.L67
 1394              		.loc 1 405 0 is_stmt 0 discriminator 1
 1395 003e 7A4B     		ldr	r3, .L81+4
 1396 0040 9A68     		ldr	r2, [r3, #8]
 1397 0042 3B68     		ldr	r3, [r7]
 1398 0044 9A42     		cmp	r2, r3
 1399 0046 0AD1     		bne	.L67
 406:main.c        ****     {
 407:main.c        ****         if (terminalOutputEnable == TRUE)
 1400              		.loc 1 407 0 is_stmt 1
 1401 0048 784B     		ldr	r3, .L81+8
 1402 004a 93F90030 		ldrsb	r3, [r3]
 1403 004e 012B     		cmp	r3, #1
 1404 0050 05D1     		bne	.L67
 408:main.c        ****         {
 409:main.c        ****             UART_1_PutString("2");
 1405              		.loc 1 409 0
 1406 0052 7848     		ldr	r0, .L81+16
 1407 0054 FFF7FEFF 		bl	UART_1_PutString
 410:main.c        ****             terminalOutputEnable = FALSE;
 1408              		.loc 1 410 0
 1409 0058 744B     		ldr	r3, .L81+8
 1410 005a 0022     		movs	r2, #0
 1411 005c 1A70     		strb	r2, [r3]
 1412              	.L67:
 411:main.c        ****         }
 412:main.c        ****     }
 413:main.c        ****     if ( (lo == loFrequency[1]) && (hi == hiFrequency[3]))
 1413              		.loc 1 413 0
 1414 005e 714B     		ldr	r3, .L81
 1415 0060 5A68     		ldr	r2, [r3, #4]
 1416 0062 7B68     		ldr	r3, [r7, #4]
 1417 0064 9A42     		cmp	r2, r3
 1418 0066 0FD1     		bne	.L68
 1419              		.loc 1 413 0 is_stmt 0 discriminator 1
 1420 0068 6F4B     		ldr	r3, .L81+4
 1421 006a DA68     		ldr	r2, [r3, #12]
 1422 006c 3B68     		ldr	r3, [r7]
 1423 006e 9A42     		cmp	r2, r3
 1424 0070 0AD1     		bne	.L68
 414:main.c        ****     {
 415:main.c        ****         if (terminalOutputEnable == TRUE)
 1425              		.loc 1 415 0 is_stmt 1
 1426 0072 6E4B     		ldr	r3, .L81+8
 1427 0074 93F90030 		ldrsb	r3, [r3]
 1428 0078 012B     		cmp	r3, #1
 1429 007a 05D1     		bne	.L68
 416:main.c        ****         {
 417:main.c        ****             UART_1_PutString("3");
 1430              		.loc 1 417 0
 1431 007c 6E48     		ldr	r0, .L81+20
 1432 007e FFF7FEFF 		bl	UART_1_PutString
 418:main.c        ****             terminalOutputEnable = FALSE;
ARM GAS  C:\Users\riveraes\AppData\Local\Temp\ccmEdq2f.s 			page 34


 1433              		.loc 1 418 0
 1434 0082 6A4B     		ldr	r3, .L81+8
 1435 0084 0022     		movs	r2, #0
 1436 0086 1A70     		strb	r2, [r3]
 1437              	.L68:
 419:main.c        ****         }
 420:main.c        ****     }
 421:main.c        ****     
 422:main.c        ****     // Keys 4,5,6    
 423:main.c        ****     if ( (lo == loFrequency[2]) && (hi == hiFrequency[1]))
 1438              		.loc 1 423 0
 1439 0088 664B     		ldr	r3, .L81
 1440 008a 9A68     		ldr	r2, [r3, #8]
 1441 008c 7B68     		ldr	r3, [r7, #4]
 1442 008e 9A42     		cmp	r2, r3
 1443 0090 0FD1     		bne	.L69
 1444              		.loc 1 423 0 is_stmt 0 discriminator 1
 1445 0092 654B     		ldr	r3, .L81+4
 1446 0094 5A68     		ldr	r2, [r3, #4]
 1447 0096 3B68     		ldr	r3, [r7]
 1448 0098 9A42     		cmp	r2, r3
 1449 009a 0AD1     		bne	.L69
 424:main.c        ****     {
 425:main.c        ****         if (terminalOutputEnable == TRUE)
 1450              		.loc 1 425 0 is_stmt 1
 1451 009c 634B     		ldr	r3, .L81+8
 1452 009e 93F90030 		ldrsb	r3, [r3]
 1453 00a2 012B     		cmp	r3, #1
 1454 00a4 05D1     		bne	.L69
 426:main.c        ****         {
 427:main.c        ****             UART_1_PutString("4");
 1455              		.loc 1 427 0
 1456 00a6 6548     		ldr	r0, .L81+24
 1457 00a8 FFF7FEFF 		bl	UART_1_PutString
 428:main.c        ****             terminalOutputEnable = FALSE;
 1458              		.loc 1 428 0
 1459 00ac 5F4B     		ldr	r3, .L81+8
 1460 00ae 0022     		movs	r2, #0
 1461 00b0 1A70     		strb	r2, [r3]
 1462              	.L69:
 429:main.c        ****         }
 430:main.c        ****     }
 431:main.c        ****     if ( (lo == loFrequency[2]) && (hi == hiFrequency[2]))
 1463              		.loc 1 431 0
 1464 00b2 5C4B     		ldr	r3, .L81
 1465 00b4 9A68     		ldr	r2, [r3, #8]
 1466 00b6 7B68     		ldr	r3, [r7, #4]
 1467 00b8 9A42     		cmp	r2, r3
 1468 00ba 0FD1     		bne	.L70
 1469              		.loc 1 431 0 is_stmt 0 discriminator 1
 1470 00bc 5A4B     		ldr	r3, .L81+4
 1471 00be 9A68     		ldr	r2, [r3, #8]
 1472 00c0 3B68     		ldr	r3, [r7]
 1473 00c2 9A42     		cmp	r2, r3
 1474 00c4 0AD1     		bne	.L70
 432:main.c        ****     {
 433:main.c        ****         if (terminalOutputEnable == TRUE)
ARM GAS  C:\Users\riveraes\AppData\Local\Temp\ccmEdq2f.s 			page 35


 1475              		.loc 1 433 0 is_stmt 1
 1476 00c6 594B     		ldr	r3, .L81+8
 1477 00c8 93F90030 		ldrsb	r3, [r3]
 1478 00cc 012B     		cmp	r3, #1
 1479 00ce 05D1     		bne	.L70
 434:main.c        ****         {
 435:main.c        ****             UART_1_PutString("5");
 1480              		.loc 1 435 0
 1481 00d0 5B48     		ldr	r0, .L81+28
 1482 00d2 FFF7FEFF 		bl	UART_1_PutString
 436:main.c        ****             terminalOutputEnable = FALSE;
 1483              		.loc 1 436 0
 1484 00d6 554B     		ldr	r3, .L81+8
 1485 00d8 0022     		movs	r2, #0
 1486 00da 1A70     		strb	r2, [r3]
 1487              	.L70:
 437:main.c        ****         }
 438:main.c        ****     }
 439:main.c        ****     if ( (lo == loFrequency[2]) && (hi == hiFrequency[3]))
 1488              		.loc 1 439 0
 1489 00dc 514B     		ldr	r3, .L81
 1490 00de 9A68     		ldr	r2, [r3, #8]
 1491 00e0 7B68     		ldr	r3, [r7, #4]
 1492 00e2 9A42     		cmp	r2, r3
 1493 00e4 0FD1     		bne	.L71
 1494              		.loc 1 439 0 is_stmt 0 discriminator 1
 1495 00e6 504B     		ldr	r3, .L81+4
 1496 00e8 DA68     		ldr	r2, [r3, #12]
 1497 00ea 3B68     		ldr	r3, [r7]
 1498 00ec 9A42     		cmp	r2, r3
 1499 00ee 0AD1     		bne	.L71
 440:main.c        ****     {
 441:main.c        ****         if (terminalOutputEnable == TRUE)
 1500              		.loc 1 441 0 is_stmt 1
 1501 00f0 4E4B     		ldr	r3, .L81+8
 1502 00f2 93F90030 		ldrsb	r3, [r3]
 1503 00f6 012B     		cmp	r3, #1
 1504 00f8 05D1     		bne	.L71
 442:main.c        ****         {
 443:main.c        ****             UART_1_PutString("6");
 1505              		.loc 1 443 0
 1506 00fa 5248     		ldr	r0, .L81+32
 1507 00fc FFF7FEFF 		bl	UART_1_PutString
 444:main.c        ****             terminalOutputEnable = FALSE;
 1508              		.loc 1 444 0
 1509 0100 4A4B     		ldr	r3, .L81+8
 1510 0102 0022     		movs	r2, #0
 1511 0104 1A70     		strb	r2, [r3]
 1512              	.L71:
 445:main.c        ****         }
 446:main.c        ****     }
 447:main.c        ****     
 448:main.c        ****     // Keys 7,8,9   
 449:main.c        ****     if ( (lo == loFrequency[3]) && (hi == hiFrequency[1]))
 1513              		.loc 1 449 0
 1514 0106 474B     		ldr	r3, .L81
 1515 0108 DA68     		ldr	r2, [r3, #12]
ARM GAS  C:\Users\riveraes\AppData\Local\Temp\ccmEdq2f.s 			page 36


 1516 010a 7B68     		ldr	r3, [r7, #4]
 1517 010c 9A42     		cmp	r2, r3
 1518 010e 0FD1     		bne	.L72
 1519              		.loc 1 449 0 is_stmt 0 discriminator 1
 1520 0110 454B     		ldr	r3, .L81+4
 1521 0112 5A68     		ldr	r2, [r3, #4]
 1522 0114 3B68     		ldr	r3, [r7]
 1523 0116 9A42     		cmp	r2, r3
 1524 0118 0AD1     		bne	.L72
 450:main.c        ****     {
 451:main.c        ****         if (terminalOutputEnable == TRUE)
 1525              		.loc 1 451 0 is_stmt 1
 1526 011a 444B     		ldr	r3, .L81+8
 1527 011c 93F90030 		ldrsb	r3, [r3]
 1528 0120 012B     		cmp	r3, #1
 1529 0122 05D1     		bne	.L72
 452:main.c        ****         {
 453:main.c        ****             UART_1_PutString("7");
 1530              		.loc 1 453 0
 1531 0124 4848     		ldr	r0, .L81+36
 1532 0126 FFF7FEFF 		bl	UART_1_PutString
 454:main.c        ****             terminalOutputEnable = FALSE;
 1533              		.loc 1 454 0
 1534 012a 404B     		ldr	r3, .L81+8
 1535 012c 0022     		movs	r2, #0
 1536 012e 1A70     		strb	r2, [r3]
 1537              	.L72:
 455:main.c        ****         }
 456:main.c        ****     }
 457:main.c        ****     if ( (lo == loFrequency[3]) && (hi == hiFrequency[2]))
 1538              		.loc 1 457 0
 1539 0130 3C4B     		ldr	r3, .L81
 1540 0132 DA68     		ldr	r2, [r3, #12]
 1541 0134 7B68     		ldr	r3, [r7, #4]
 1542 0136 9A42     		cmp	r2, r3
 1543 0138 0FD1     		bne	.L73
 1544              		.loc 1 457 0 is_stmt 0 discriminator 1
 1545 013a 3B4B     		ldr	r3, .L81+4
 1546 013c 9A68     		ldr	r2, [r3, #8]
 1547 013e 3B68     		ldr	r3, [r7]
 1548 0140 9A42     		cmp	r2, r3
 1549 0142 0AD1     		bne	.L73
 458:main.c        ****     {
 459:main.c        ****         if (terminalOutputEnable == TRUE)
 1550              		.loc 1 459 0 is_stmt 1
 1551 0144 394B     		ldr	r3, .L81+8
 1552 0146 93F90030 		ldrsb	r3, [r3]
 1553 014a 012B     		cmp	r3, #1
 1554 014c 05D1     		bne	.L73
 460:main.c        ****         {
 461:main.c        ****             UART_1_PutString("8");
 1555              		.loc 1 461 0
 1556 014e 3F48     		ldr	r0, .L81+40
 1557 0150 FFF7FEFF 		bl	UART_1_PutString
 462:main.c        ****             terminalOutputEnable = FALSE;
 1558              		.loc 1 462 0
 1559 0154 354B     		ldr	r3, .L81+8
ARM GAS  C:\Users\riveraes\AppData\Local\Temp\ccmEdq2f.s 			page 37


 1560 0156 0022     		movs	r2, #0
 1561 0158 1A70     		strb	r2, [r3]
 1562              	.L73:
 463:main.c        ****         }
 464:main.c        ****     }
 465:main.c        ****     if ( (lo == loFrequency[3]) && (hi == hiFrequency[3]))
 1563              		.loc 1 465 0
 1564 015a 324B     		ldr	r3, .L81
 1565 015c DA68     		ldr	r2, [r3, #12]
 1566 015e 7B68     		ldr	r3, [r7, #4]
 1567 0160 9A42     		cmp	r2, r3
 1568 0162 0FD1     		bne	.L74
 1569              		.loc 1 465 0 is_stmt 0 discriminator 1
 1570 0164 304B     		ldr	r3, .L81+4
 1571 0166 DA68     		ldr	r2, [r3, #12]
 1572 0168 3B68     		ldr	r3, [r7]
 1573 016a 9A42     		cmp	r2, r3
 1574 016c 0AD1     		bne	.L74
 466:main.c        ****     {
 467:main.c        ****         if (terminalOutputEnable == TRUE)
 1575              		.loc 1 467 0 is_stmt 1
 1576 016e 2F4B     		ldr	r3, .L81+8
 1577 0170 93F90030 		ldrsb	r3, [r3]
 1578 0174 012B     		cmp	r3, #1
 1579 0176 05D1     		bne	.L74
 468:main.c        ****         {
 469:main.c        ****             UART_1_PutString("9");
 1580              		.loc 1 469 0
 1581 0178 3548     		ldr	r0, .L81+44
 1582 017a FFF7FEFF 		bl	UART_1_PutString
 470:main.c        ****             terminalOutputEnable = FALSE;
 1583              		.loc 1 470 0
 1584 017e 2B4B     		ldr	r3, .L81+8
 1585 0180 0022     		movs	r2, #0
 1586 0182 1A70     		strb	r2, [r3]
 1587              	.L74:
 471:main.c        ****         }
 472:main.c        ****     }
 473:main.c        ****     
 474:main.c        ****     // Keys *,0,#    
 475:main.c        ****     if ( (lo == loFrequency[4]) && (hi == hiFrequency[1]))
 1588              		.loc 1 475 0
 1589 0184 274B     		ldr	r3, .L81
 1590 0186 1A69     		ldr	r2, [r3, #16]
 1591 0188 7B68     		ldr	r3, [r7, #4]
 1592 018a 9A42     		cmp	r2, r3
 1593 018c 0FD1     		bne	.L75
 1594              		.loc 1 475 0 is_stmt 0 discriminator 1
 1595 018e 264B     		ldr	r3, .L81+4
 1596 0190 5A68     		ldr	r2, [r3, #4]
 1597 0192 3B68     		ldr	r3, [r7]
 1598 0194 9A42     		cmp	r2, r3
 1599 0196 0AD1     		bne	.L75
 476:main.c        ****     {
 477:main.c        ****         if (terminalOutputEnable == TRUE)
 1600              		.loc 1 477 0 is_stmt 1
 1601 0198 244B     		ldr	r3, .L81+8
ARM GAS  C:\Users\riveraes\AppData\Local\Temp\ccmEdq2f.s 			page 38


 1602 019a 93F90030 		ldrsb	r3, [r3]
 1603 019e 012B     		cmp	r3, #1
 1604 01a0 05D1     		bne	.L75
 478:main.c        ****         {
 479:main.c        ****             UART_1_PutString("*");
 1605              		.loc 1 479 0
 1606 01a2 2C48     		ldr	r0, .L81+48
 1607 01a4 FFF7FEFF 		bl	UART_1_PutString
 480:main.c        ****             terminalOutputEnable = FALSE;
 1608              		.loc 1 480 0
 1609 01a8 204B     		ldr	r3, .L81+8
 1610 01aa 0022     		movs	r2, #0
 1611 01ac 1A70     		strb	r2, [r3]
 1612              	.L75:
 481:main.c        ****         }
 482:main.c        ****     }
 483:main.c        ****     if ( (lo == loFrequency[4]) && (hi == hiFrequency[2]))
 1613              		.loc 1 483 0
 1614 01ae 1D4B     		ldr	r3, .L81
 1615 01b0 1A69     		ldr	r2, [r3, #16]
 1616 01b2 7B68     		ldr	r3, [r7, #4]
 1617 01b4 9A42     		cmp	r2, r3
 1618 01b6 0FD1     		bne	.L76
 1619              		.loc 1 483 0 is_stmt 0 discriminator 1
 1620 01b8 1B4B     		ldr	r3, .L81+4
 1621 01ba 9A68     		ldr	r2, [r3, #8]
 1622 01bc 3B68     		ldr	r3, [r7]
 1623 01be 9A42     		cmp	r2, r3
 1624 01c0 0AD1     		bne	.L76
 484:main.c        ****     {
 485:main.c        ****         if (terminalOutputEnable == TRUE)
 1625              		.loc 1 485 0 is_stmt 1
 1626 01c2 1A4B     		ldr	r3, .L81+8
 1627 01c4 93F90030 		ldrsb	r3, [r3]
 1628 01c8 012B     		cmp	r3, #1
 1629 01ca 05D1     		bne	.L76
 486:main.c        ****         {
 487:main.c        ****             UART_1_PutString("0");
 1630              		.loc 1 487 0
 1631 01cc 2248     		ldr	r0, .L81+52
 1632 01ce FFF7FEFF 		bl	UART_1_PutString
 488:main.c        ****             terminalOutputEnable = FALSE;
 1633              		.loc 1 488 0
 1634 01d2 164B     		ldr	r3, .L81+8
 1635 01d4 0022     		movs	r2, #0
 1636 01d6 1A70     		strb	r2, [r3]
 1637              	.L76:
 489:main.c        ****         }
 490:main.c        ****     }
 491:main.c        ****     if ( (lo == loFrequency[4]) && (hi == hiFrequency[3]))
 1638              		.loc 1 491 0
 1639 01d8 124B     		ldr	r3, .L81
 1640 01da 1A69     		ldr	r2, [r3, #16]
 1641 01dc 7B68     		ldr	r3, [r7, #4]
 1642 01de 9A42     		cmp	r2, r3
 1643 01e0 0FD1     		bne	.L77
 1644              		.loc 1 491 0 is_stmt 0 discriminator 1
ARM GAS  C:\Users\riveraes\AppData\Local\Temp\ccmEdq2f.s 			page 39


 1645 01e2 114B     		ldr	r3, .L81+4
 1646 01e4 DA68     		ldr	r2, [r3, #12]
 1647 01e6 3B68     		ldr	r3, [r7]
 1648 01e8 9A42     		cmp	r2, r3
 1649 01ea 0AD1     		bne	.L77
 492:main.c        ****     {
 493:main.c        ****         if (terminalOutputEnable == TRUE)
 1650              		.loc 1 493 0 is_stmt 1
 1651 01ec 0F4B     		ldr	r3, .L81+8
 1652 01ee 93F90030 		ldrsb	r3, [r3]
 1653 01f2 012B     		cmp	r3, #1
 1654 01f4 05D1     		bne	.L77
 494:main.c        ****         {
 495:main.c        ****             UART_1_PutString("#");
 1655              		.loc 1 495 0
 1656 01f6 1948     		ldr	r0, .L81+56
 1657 01f8 FFF7FEFF 		bl	UART_1_PutString
 496:main.c        ****             terminalOutputEnable = FALSE;
 1658              		.loc 1 496 0
 1659 01fc 0B4B     		ldr	r3, .L81+8
 1660 01fe 0022     		movs	r2, #0
 1661 0200 1A70     		strb	r2, [r3]
 1662              	.L77:
 497:main.c        ****         }
 498:main.c        ****     }
 499:main.c        ****     
 500:main.c        ****     // Dummy Frequencies    
 501:main.c        ****     if ( (lo == loFrequency[0]) || (hi == hiFrequency[0]) )
 1663              		.loc 1 501 0
 1664 0202 084B     		ldr	r3, .L81
 1665 0204 1A68     		ldr	r2, [r3]
 1666 0206 7B68     		ldr	r3, [r7, #4]
 1667 0208 9A42     		cmp	r2, r3
 1668 020a 04D0     		beq	.L78
 1669              		.loc 1 501 0 is_stmt 0 discriminator 1
 1670 020c 064B     		ldr	r3, .L81+4
 1671 020e 1A68     		ldr	r2, [r3]
 1672 0210 3B68     		ldr	r3, [r7]
 1673 0212 9A42     		cmp	r2, r3
 1674 0214 02D1     		bne	.L80
 1675              	.L78:
 502:main.c        ****     {
 503:main.c        ****         //UART_1_PutString(".");
 504:main.c        ****         terminalOutputEnable = TRUE;
 1676              		.loc 1 504 0 is_stmt 1
 1677 0216 054B     		ldr	r3, .L81+8
 1678 0218 0122     		movs	r2, #1
 1679 021a 1A70     		strb	r2, [r3]
 1680              	.L80:
 505:main.c        ****     }
 506:main.c        ****  
 507:main.c        **** }
 1681              		.loc 1 507 0
 1682 021c 00BF     		nop
 1683 021e 0837     		adds	r7, r7, #8
 1684              		.cfi_def_cfa_offset 8
 1685 0220 BD46     		mov	sp, r7
ARM GAS  C:\Users\riveraes\AppData\Local\Temp\ccmEdq2f.s 			page 40


 1686              		.cfi_def_cfa_register 13
 1687              		@ sp needed
 1688 0222 80BD     		pop	{r7, pc}
 1689              	.L82:
 1690              		.align	2
 1691              	.L81:
 1692 0224 00000000 		.word	loFrequency
 1693 0228 00000000 		.word	hiFrequency
 1694 022c 00000000 		.word	terminalOutputEnable
 1695 0230 90000000 		.word	.LC17
 1696 0234 94000000 		.word	.LC18
 1697 0238 98000000 		.word	.LC19
 1698 023c 9C000000 		.word	.LC20
 1699 0240 A0000000 		.word	.LC21
 1700 0244 A4000000 		.word	.LC22
 1701 0248 A8000000 		.word	.LC23
 1702 024c AC000000 		.word	.LC24
 1703 0250 B0000000 		.word	.LC25
 1704 0254 B4000000 		.word	.LC26
 1705 0258 B8000000 		.word	.LC27
 1706 025c BC000000 		.word	.LC28
 1707              		.cfi_endproc
 1708              	.LFE73:
 1709              		.size	DecodeInput, .-DecodeInput
 1710              		.text
 1711              	.Letext0:
 1712              		.file 2 "c:\\program files (x86)\\cypress\\psoc creator\\4.1\\psoc creator\\import\\gnu\\arm\\5.4.
 1713              		.file 3 "c:\\program files (x86)\\cypress\\psoc creator\\4.1\\psoc creator\\import\\gnu\\arm\\5.4.
 1714              		.file 4 "Generated_Source\\PSoC5/cytypes.h"
 1715              		.file 5 "Generated_Source\\PSoC5/core_cm3.h"
 1716              		.section	.debug_info,"",%progbits
 1717              	.Ldebug_info0:
 1718 0000 B5050000 		.4byte	0x5b5
 1719 0004 0400     		.2byte	0x4
 1720 0006 00000000 		.4byte	.Ldebug_abbrev0
 1721 000a 04       		.byte	0x4
 1722 000b 01       		.uleb128 0x1
 1723 000c 1D000000 		.4byte	.LASF65
 1724 0010 0C       		.byte	0xc
 1725 0011 E6020000 		.4byte	.LASF66
 1726 0015 61010000 		.4byte	.LASF67
 1727 0019 00000000 		.4byte	.Ldebug_ranges0+0
 1728 001d 00000000 		.4byte	0
 1729 0021 00000000 		.4byte	.Ldebug_line0
 1730 0025 02       		.uleb128 0x2
 1731 0026 01       		.byte	0x1
 1732 0027 06       		.byte	0x6
 1733 0028 27020000 		.4byte	.LASF0
 1734 002c 02       		.uleb128 0x2
 1735 002d 01       		.byte	0x1
 1736 002e 08       		.byte	0x8
 1737 002f 0C020000 		.4byte	.LASF1
 1738 0033 02       		.uleb128 0x2
 1739 0034 02       		.byte	0x2
 1740 0035 05       		.byte	0x5
 1741 0036 06000000 		.4byte	.LASF2
 1742 003a 02       		.uleb128 0x2
ARM GAS  C:\Users\riveraes\AppData\Local\Temp\ccmEdq2f.s 			page 41


 1743 003b 02       		.byte	0x2
 1744 003c 07       		.byte	0x7
 1745 003d 73020000 		.4byte	.LASF3
 1746 0041 03       		.uleb128 0x3
 1747 0042 4C030000 		.4byte	.LASF9
 1748 0046 02       		.byte	0x2
 1749 0047 3F       		.byte	0x3f
 1750 0048 4C000000 		.4byte	0x4c
 1751 004c 02       		.uleb128 0x2
 1752 004d 04       		.byte	0x4
 1753 004e 05       		.byte	0x5
 1754 004f 30010000 		.4byte	.LASF4
 1755 0053 02       		.uleb128 0x2
 1756 0054 04       		.byte	0x4
 1757 0055 07       		.byte	0x7
 1758 0056 07030000 		.4byte	.LASF5
 1759 005a 02       		.uleb128 0x2
 1760 005b 08       		.byte	0x8
 1761 005c 05       		.byte	0x5
 1762 005d 12010000 		.4byte	.LASF6
 1763 0061 02       		.uleb128 0x2
 1764 0062 08       		.byte	0x8
 1765 0063 07       		.byte	0x7
 1766 0064 3B020000 		.4byte	.LASF7
 1767 0068 04       		.uleb128 0x4
 1768 0069 04       		.byte	0x4
 1769 006a 05       		.byte	0x5
 1770 006b 696E7400 		.ascii	"int\000"
 1771 006f 02       		.uleb128 0x2
 1772 0070 04       		.byte	0x4
 1773 0071 07       		.byte	0x7
 1774 0072 52020000 		.4byte	.LASF8
 1775 0076 03       		.uleb128 0x3
 1776 0077 33020000 		.4byte	.LASF10
 1777 007b 03       		.byte	0x3
 1778 007c 2C       		.byte	0x2c
 1779 007d 41000000 		.4byte	0x41
 1780 0081 05       		.uleb128 0x5
 1781 0082 F3000000 		.4byte	.LASF11
 1782 0086 04       		.byte	0x4
 1783 0087 9201     		.2byte	0x192
 1784 0089 2C000000 		.4byte	0x2c
 1785 008d 05       		.uleb128 0x5
 1786 008e E6000000 		.4byte	.LASF12
 1787 0092 04       		.byte	0x4
 1788 0093 9301     		.2byte	0x193
 1789 0095 3A000000 		.4byte	0x3a
 1790 0099 05       		.uleb128 0x5
 1791 009a 20010000 		.4byte	.LASF13
 1792 009e 04       		.byte	0x4
 1793 009f 9501     		.2byte	0x195
 1794 00a1 25000000 		.4byte	0x25
 1795 00a5 05       		.uleb128 0x5
 1796 00a6 ED000000 		.4byte	.LASF14
 1797 00aa 04       		.byte	0x4
 1798 00ab 9601     		.2byte	0x196
 1799 00ad 33000000 		.4byte	0x33
ARM GAS  C:\Users\riveraes\AppData\Local\Temp\ccmEdq2f.s 			page 42


 1800 00b1 02       		.uleb128 0x2
 1801 00b2 04       		.byte	0x4
 1802 00b3 04       		.byte	0x4
 1803 00b4 0C010000 		.4byte	.LASF15
 1804 00b8 02       		.uleb128 0x2
 1805 00b9 08       		.byte	0x8
 1806 00ba 04       		.byte	0x4
 1807 00bb 25030000 		.4byte	.LASF16
 1808 00bf 02       		.uleb128 0x2
 1809 00c0 01       		.byte	0x1
 1810 00c1 08       		.byte	0x8
 1811 00c2 97020000 		.4byte	.LASF17
 1812 00c6 02       		.uleb128 0x2
 1813 00c7 08       		.byte	0x8
 1814 00c8 04       		.byte	0x4
 1815 00c9 B8000000 		.4byte	.LASF18
 1816 00cd 02       		.uleb128 0x2
 1817 00ce 04       		.byte	0x4
 1818 00cf 07       		.byte	0x7
 1819 00d0 56030000 		.4byte	.LASF19
 1820 00d4 06       		.uleb128 0x6
 1821 00d5 A6030000 		.4byte	.LASF20
 1822 00d9 01       		.byte	0x1
 1823 00da 2F       		.byte	0x2f
 1824 00db 00000000 		.4byte	.LFB64
 1825 00df 0C000000 		.4byte	.LFE64-.LFB64
 1826 00e3 01       		.uleb128 0x1
 1827 00e4 9C       		.byte	0x9c
 1828 00e5 06       		.uleb128 0x6
 1829 00e6 5F020000 		.4byte	.LASF21
 1830 00ea 01       		.byte	0x1
 1831 00eb 38       		.byte	0x38
 1832 00ec 00000000 		.4byte	.LFB65
 1833 00f0 0C000000 		.4byte	.LFE65-.LFB65
 1834 00f4 01       		.uleb128 0x1
 1835 00f5 9C       		.byte	0x9c
 1836 00f6 07       		.uleb128 0x7
 1837 00f7 A3020000 		.4byte	.LASF23
 1838 00fb 01       		.byte	0x1
 1839 00fc 41       		.byte	0x41
 1840 00fd 68000000 		.4byte	0x68
 1841 0101 00000000 		.4byte	.LFB66
 1842 0105 E4030000 		.4byte	.LFE66-.LFB66
 1843 0109 01       		.uleb128 0x1
 1844 010a 9C       		.byte	0x9c
 1845 010b 6D010000 		.4byte	0x16d
 1846 010f 08       		.uleb128 0x8
 1847 0110 436800   		.ascii	"Ch\000"
 1848 0113 01       		.byte	0x1
 1849 0114 44       		.byte	0x44
 1850 0115 81000000 		.4byte	0x81
 1851 0119 02       		.uleb128 0x2
 1852 011a 91       		.byte	0x91
 1853 011b 71       		.sleb128 -15
 1854 011c 09       		.uleb128 0x9
 1855 011d AC020000 		.4byte	.LBB2
 1856 0121 42000000 		.4byte	.LBE2-.LBB2
ARM GAS  C:\Users\riveraes\AppData\Local\Temp\ccmEdq2f.s 			page 43


 1857 0125 38010000 		.4byte	0x138
 1858 0129 0A       		.uleb128 0xa
 1859 012a 39010000 		.4byte	.LASF22
 1860 012e 01       		.byte	0x1
 1861 012f B8       		.byte	0xb8
 1862 0130 A5000000 		.4byte	0xa5
 1863 0134 02       		.uleb128 0x2
 1864 0135 91       		.byte	0x91
 1865 0136 76       		.sleb128 -10
 1866 0137 00       		.byte	0
 1867 0138 09       		.uleb128 0x9
 1868 0139 F4020000 		.4byte	.LBB3
 1869 013d 34000000 		.4byte	.LBE3-.LBB3
 1870 0141 54010000 		.4byte	0x154
 1871 0145 0A       		.uleb128 0xa
 1872 0146 39010000 		.4byte	.LASF22
 1873 014a 01       		.byte	0x1
 1874 014b C5       		.byte	0xc5
 1875 014c A5000000 		.4byte	0xa5
 1876 0150 02       		.uleb128 0x2
 1877 0151 91       		.byte	0x91
 1878 0152 74       		.sleb128 -12
 1879 0153 00       		.byte	0
 1880 0154 0B       		.uleb128 0xb
 1881 0155 34030000 		.4byte	.LBB4
 1882 0159 42000000 		.4byte	.LBE4-.LBB4
 1883 015d 0A       		.uleb128 0xa
 1884 015e 39010000 		.4byte	.LASF22
 1885 0162 01       		.byte	0x1
 1886 0163 D4       		.byte	0xd4
 1887 0164 A5000000 		.4byte	0xa5
 1888 0168 02       		.uleb128 0x2
 1889 0169 91       		.byte	0x91
 1890 016a 72       		.sleb128 -14
 1891 016b 00       		.byte	0
 1892 016c 00       		.byte	0
 1893 016d 0C       		.uleb128 0xc
 1894 016e ED020000 		.4byte	.LASF24
 1895 0172 01       		.byte	0x1
 1896 0173 F7       		.byte	0xf7
 1897 0174 00000000 		.4byte	.LFB67
 1898 0178 60000000 		.4byte	.LFE67-.LFB67
 1899 017c 01       		.uleb128 0x1
 1900 017d 9C       		.byte	0x9c
 1901 017e AD010000 		.4byte	0x1ad
 1902 0182 0D       		.uleb128 0xd
 1903 0183 75030000 		.4byte	.LASF28
 1904 0187 01       		.byte	0x1
 1905 0188 F7       		.byte	0xf7
 1906 0189 68000000 		.4byte	0x68
 1907 018d 02       		.uleb128 0x2
 1908 018e 91       		.byte	0x91
 1909 018f 5C       		.sleb128 -36
 1910 0190 0A       		.uleb128 0xa
 1911 0191 C4000000 		.4byte	.LASF25
 1912 0195 01       		.byte	0x1
 1913 0196 F9       		.byte	0xf9
ARM GAS  C:\Users\riveraes\AppData\Local\Temp\ccmEdq2f.s 			page 44


 1914 0197 B8000000 		.4byte	0xb8
 1915 019b 02       		.uleb128 0x2
 1916 019c 91       		.byte	0x91
 1917 019d 68       		.sleb128 -24
 1918 019e 0A       		.uleb128 0xa
 1919 019f F9000000 		.4byte	.LASF26
 1920 01a3 01       		.byte	0x1
 1921 01a4 FA       		.byte	0xfa
 1922 01a5 B8000000 		.4byte	0xb8
 1923 01a9 02       		.uleb128 0x2
 1924 01aa 91       		.byte	0x91
 1925 01ab 60       		.sleb128 -32
 1926 01ac 00       		.byte	0
 1927 01ad 0E       		.uleb128 0xe
 1928 01ae AF030000 		.4byte	.LASF27
 1929 01b2 01       		.byte	0x1
 1930 01b3 0101     		.2byte	0x101
 1931 01b5 00000000 		.4byte	.LFB68
 1932 01b9 60000000 		.4byte	.LFE68-.LFB68
 1933 01bd 01       		.uleb128 0x1
 1934 01be 9C       		.byte	0x9c
 1935 01bf F1010000 		.4byte	0x1f1
 1936 01c3 0F       		.uleb128 0xf
 1937 01c4 75030000 		.4byte	.LASF28
 1938 01c8 01       		.byte	0x1
 1939 01c9 0101     		.2byte	0x101
 1940 01cb 68000000 		.4byte	0x68
 1941 01cf 02       		.uleb128 0x2
 1942 01d0 91       		.byte	0x91
 1943 01d1 5C       		.sleb128 -36
 1944 01d2 10       		.uleb128 0x10
 1945 01d3 C4000000 		.4byte	.LASF25
 1946 01d7 01       		.byte	0x1
 1947 01d8 0301     		.2byte	0x103
 1948 01da B8000000 		.4byte	0xb8
 1949 01de 02       		.uleb128 0x2
 1950 01df 91       		.byte	0x91
 1951 01e0 68       		.sleb128 -24
 1952 01e1 10       		.uleb128 0x10
 1953 01e2 F9000000 		.4byte	.LASF26
 1954 01e6 01       		.byte	0x1
 1955 01e7 0401     		.2byte	0x104
 1956 01e9 B8000000 		.4byte	0xb8
 1957 01ed 02       		.uleb128 0x2
 1958 01ee 91       		.byte	0x91
 1959 01ef 60       		.sleb128 -32
 1960 01f0 00       		.byte	0
 1961 01f1 11       		.uleb128 0x11
 1962 01f2 AB000000 		.4byte	.LASF29
 1963 01f6 01       		.byte	0x1
 1964 01f7 0B01     		.2byte	0x10b
 1965 01f9 00000000 		.4byte	.LFB69
 1966 01fd 28000000 		.4byte	.LFE69-.LFB69
 1967 0201 01       		.uleb128 0x1
 1968 0202 9C       		.byte	0x9c
 1969 0203 0E       		.uleb128 0xe
 1970 0204 86020000 		.4byte	.LASF30
ARM GAS  C:\Users\riveraes\AppData\Local\Temp\ccmEdq2f.s 			page 45


 1971 0208 01       		.byte	0x1
 1972 0209 1D01     		.2byte	0x11d
 1973 020b 00000000 		.4byte	.LFB70
 1974 020f 94010000 		.4byte	.LFE70-.LFB70
 1975 0213 01       		.uleb128 0x1
 1976 0214 9C       		.byte	0x9c
 1977 0215 CE020000 		.4byte	0x2ce
 1978 0219 10       		.uleb128 0x10
 1979 021a 9C020000 		.4byte	.LASF31
 1980 021e 01       		.byte	0x1
 1981 021f 1F01     		.2byte	0x11f
 1982 0221 CE020000 		.4byte	0x2ce
 1983 0225 03       		.uleb128 0x3
 1984 0226 91       		.byte	0x91
 1985 0227 A876     		.sleb128 -1240
 1986 0229 10       		.uleb128 0x10
 1987 022a 1A020000 		.4byte	.LASF32
 1988 022e 01       		.byte	0x1
 1989 022f 2801     		.2byte	0x128
 1990 0231 DE020000 		.4byte	0x2de
 1991 0235 03       		.uleb128 0x3
 1992 0236 91       		.byte	0x91
 1993 0237 8076     		.sleb128 -1280
 1994 0239 10       		.uleb128 0x10
 1995 023a F2010000 		.4byte	.LASF33
 1996 023e 01       		.byte	0x1
 1997 023f 2901     		.2byte	0x129
 1998 0241 EE020000 		.4byte	0x2ee
 1999 0245 03       		.uleb128 0x3
 2000 0246 91       		.byte	0x91
 2001 0247 E075     		.sleb128 -1312
 2002 0249 10       		.uleb128 0x10
 2003 024a CD020000 		.4byte	.LASF34
 2004 024e 01       		.byte	0x1
 2005 024f 3501     		.2byte	0x135
 2006 0251 8D000000 		.4byte	0x8d
 2007 0255 02       		.uleb128 0x2
 2008 0256 91       		.byte	0x91
 2009 0257 5E       		.sleb128 -34
 2010 0258 10       		.uleb128 0x10
 2011 0259 17000000 		.4byte	.LASF35
 2012 025d 01       		.byte	0x1
 2013 025e 3601     		.2byte	0x136
 2014 0260 8D000000 		.4byte	0x8d
 2015 0264 02       		.uleb128 0x2
 2016 0265 91       		.byte	0x91
 2017 0266 5C       		.sleb128 -36
 2018 0267 09       		.uleb128 0x9
 2019 0268 08000000 		.4byte	.LBB5
 2020 026c 88000000 		.4byte	.LBE5-.LBB5
 2021 0270 9B020000 		.4byte	0x29b
 2022 0274 12       		.uleb128 0x12
 2023 0275 6900     		.ascii	"i\000"
 2024 0277 01       		.byte	0x1
 2025 0278 2001     		.2byte	0x120
 2026 027a 68000000 		.4byte	0x68
 2027 027e 02       		.uleb128 0x2
ARM GAS  C:\Users\riveraes\AppData\Local\Temp\ccmEdq2f.s 			page 46


 2028 027f 91       		.byte	0x91
 2029 0280 6C       		.sleb128 -20
 2030 0281 0B       		.uleb128 0xb
 2031 0282 10000000 		.4byte	.LBB6
 2032 0286 6E000000 		.4byte	.LBE6-.LBB6
 2033 028a 10       		.uleb128 0x10
 2034 028b 2A010000 		.4byte	.LASF36
 2035 028f 01       		.byte	0x1
 2036 0290 2201     		.2byte	0x122
 2037 0292 B8000000 		.4byte	0xb8
 2038 0296 02       		.uleb128 0x2
 2039 0297 91       		.byte	0x91
 2040 0298 60       		.sleb128 -32
 2041 0299 00       		.byte	0
 2042 029a 00       		.byte	0
 2043 029b 09       		.uleb128 0x9
 2044 029c AE000000 		.4byte	.LBB7
 2045 02a0 46000000 		.4byte	.LBE7-.LBB7
 2046 02a4 B6020000 		.4byte	0x2b6
 2047 02a8 12       		.uleb128 0x12
 2048 02a9 6900     		.ascii	"i\000"
 2049 02ab 01       		.byte	0x1
 2050 02ac 2B01     		.2byte	0x12b
 2051 02ae 81000000 		.4byte	0x81
 2052 02b2 02       		.uleb128 0x2
 2053 02b3 91       		.byte	0x91
 2054 02b4 6B       		.sleb128 -21
 2055 02b5 00       		.byte	0
 2056 02b6 0B       		.uleb128 0xb
 2057 02b7 F4000000 		.4byte	.LBB8
 2058 02bb 44000000 		.4byte	.LBE8-.LBB8
 2059 02bf 12       		.uleb128 0x12
 2060 02c0 6900     		.ascii	"i\000"
 2061 02c2 01       		.byte	0x1
 2062 02c3 3001     		.2byte	0x130
 2063 02c5 81000000 		.4byte	0x81
 2064 02c9 02       		.uleb128 0x2
 2065 02ca 91       		.byte	0x91
 2066 02cb 6A       		.sleb128 -22
 2067 02cc 00       		.byte	0
 2068 02cd 00       		.byte	0
 2069 02ce 13       		.uleb128 0x13
 2070 02cf B8000000 		.4byte	0xb8
 2071 02d3 DE020000 		.4byte	0x2de
 2072 02d7 14       		.uleb128 0x14
 2073 02d8 CD000000 		.4byte	0xcd
 2074 02dc 95       		.byte	0x95
 2075 02dd 00       		.byte	0
 2076 02de 13       		.uleb128 0x13
 2077 02df B8000000 		.4byte	0xb8
 2078 02e3 EE020000 		.4byte	0x2ee
 2079 02e7 14       		.uleb128 0x14
 2080 02e8 CD000000 		.4byte	0xcd
 2081 02ec 04       		.byte	0x4
 2082 02ed 00       		.byte	0
 2083 02ee 13       		.uleb128 0x13
 2084 02ef B8000000 		.4byte	0xb8
ARM GAS  C:\Users\riveraes\AppData\Local\Temp\ccmEdq2f.s 			page 47


 2085 02f3 FE020000 		.4byte	0x2fe
 2086 02f7 14       		.uleb128 0x14
 2087 02f8 CD000000 		.4byte	0xcd
 2088 02fc 03       		.byte	0x3
 2089 02fd 00       		.byte	0
 2090 02fe 15       		.uleb128 0x15
 2091 02ff 85030000 		.4byte	.LASF51
 2092 0303 01       		.byte	0x1
 2093 0304 4601     		.2byte	0x146
 2094 0306 B8000000 		.4byte	0xb8
 2095 030a 00000000 		.4byte	.LFB71
 2096 030e 1C020000 		.4byte	.LFE71-.LFB71
 2097 0312 01       		.uleb128 0x1
 2098 0313 9C       		.byte	0x9c
 2099 0314 5A040000 		.4byte	0x45a
 2100 0318 0F       		.uleb128 0xf
 2101 0319 C2020000 		.4byte	.LASF37
 2102 031d 01       		.byte	0x1
 2103 031e 4601     		.2byte	0x146
 2104 0320 68000000 		.4byte	0x68
 2105 0324 03       		.uleb128 0x3
 2106 0325 91       		.byte	0x91
 2107 0326 F47E     		.sleb128 -140
 2108 0328 0F       		.uleb128 0xf
 2109 0329 9B030000 		.4byte	.LASF38
 2110 032d 01       		.byte	0x1
 2111 032e 4601     		.2byte	0x146
 2112 0330 68000000 		.4byte	0x68
 2113 0334 03       		.uleb128 0x3
 2114 0335 91       		.byte	0x91
 2115 0336 F07E     		.sleb128 -144
 2116 0338 0F       		.uleb128 0xf
 2117 0339 D8000000 		.4byte	.LASF39
 2118 033d 01       		.byte	0x1
 2119 033e 4601     		.2byte	0x146
 2120 0340 68000000 		.4byte	0x68
 2121 0344 03       		.uleb128 0x3
 2122 0345 91       		.byte	0x91
 2123 0346 EC7E     		.sleb128 -148
 2124 0348 0F       		.uleb128 0xf
 2125 0349 D3020000 		.4byte	.LASF40
 2126 034d 01       		.byte	0x1
 2127 034e 4601     		.2byte	0x146
 2128 0350 5A040000 		.4byte	0x45a
 2129 0354 03       		.uleb128 0x3
 2130 0355 91       		.byte	0x91
 2131 0356 E87E     		.sleb128 -152
 2132 0358 12       		.uleb128 0x12
 2133 0359 6B00     		.ascii	"k\000"
 2134 035b 01       		.byte	0x1
 2135 035c 4801     		.2byte	0x148
 2136 035e 68000000 		.4byte	0x68
 2137 0362 02       		.uleb128 0x2
 2138 0363 91       		.byte	0x91
 2139 0364 44       		.sleb128 -60
 2140 0365 16       		.uleb128 0x16
 2141 0366 6900     		.ascii	"i\000"
ARM GAS  C:\Users\riveraes\AppData\Local\Temp\ccmEdq2f.s 			page 48


 2142 0368 01       		.byte	0x1
 2143 0369 4901     		.2byte	0x149
 2144 036b 68000000 		.4byte	0x68
 2145 036f 10       		.uleb128 0x10
 2146 0370 B2020000 		.4byte	.LASF41
 2147 0374 01       		.byte	0x1
 2148 0375 4A01     		.2byte	0x14a
 2149 0377 B8000000 		.4byte	0xb8
 2150 037b 02       		.uleb128 0x2
 2151 037c 91       		.byte	0x91
 2152 037d 48       		.sleb128 -56
 2153 037e 10       		.uleb128 0x10
 2154 037f 5B010000 		.4byte	.LASF42
 2155 0383 01       		.byte	0x1
 2156 0384 4B01     		.2byte	0x14b
 2157 0386 B8000000 		.4byte	0xb8
 2158 038a 03       		.uleb128 0x3
 2159 038b 91       		.byte	0x91
 2160 038c B87F     		.sleb128 -72
 2161 038e 10       		.uleb128 0x10
 2162 038f 6E020000 		.4byte	.LASF43
 2163 0393 01       		.byte	0x1
 2164 0394 4C01     		.2byte	0x14c
 2165 0396 B8000000 		.4byte	0xb8
 2166 039a 03       		.uleb128 0x3
 2167 039b 91       		.byte	0x91
 2168 039c B07F     		.sleb128 -80
 2169 039e 10       		.uleb128 0x10
 2170 039f 05020000 		.4byte	.LASF44
 2171 03a3 01       		.byte	0x1
 2172 03a4 4D01     		.2byte	0x14d
 2173 03a6 B8000000 		.4byte	0xb8
 2174 03aa 03       		.uleb128 0x3
 2175 03ab 91       		.byte	0x91
 2176 03ac A87F     		.sleb128 -88
 2177 03ae 10       		.uleb128 0x10
 2178 03af FF010000 		.4byte	.LASF45
 2179 03b3 01       		.byte	0x1
 2180 03b4 4E01     		.2byte	0x14e
 2181 03b6 B8000000 		.4byte	0xb8
 2182 03ba 03       		.uleb128 0x3
 2183 03bb 91       		.byte	0x91
 2184 03bc A07F     		.sleb128 -96
 2185 03be 12       		.uleb128 0x12
 2186 03bf 713000   		.ascii	"q0\000"
 2187 03c2 01       		.byte	0x1
 2188 03c3 4F01     		.2byte	0x14f
 2189 03c5 B8000000 		.4byte	0xb8
 2190 03c9 03       		.uleb128 0x3
 2191 03ca 91       		.byte	0x91
 2192 03cb 987F     		.sleb128 -104
 2193 03cd 12       		.uleb128 0x12
 2194 03ce 713100   		.ascii	"q1\000"
 2195 03d1 01       		.byte	0x1
 2196 03d2 5001     		.2byte	0x150
 2197 03d4 B8000000 		.4byte	0xb8
 2198 03d8 02       		.uleb128 0x2
ARM GAS  C:\Users\riveraes\AppData\Local\Temp\ccmEdq2f.s 			page 49


 2199 03d9 91       		.byte	0x91
 2200 03da 68       		.sleb128 -24
 2201 03db 12       		.uleb128 0x12
 2202 03dc 713200   		.ascii	"q2\000"
 2203 03df 01       		.byte	0x1
 2204 03e0 5101     		.2byte	0x151
 2205 03e2 B8000000 		.4byte	0xb8
 2206 03e6 02       		.uleb128 0x2
 2207 03e7 91       		.byte	0x91
 2208 03e8 60       		.sleb128 -32
 2209 03e9 10       		.uleb128 0x10
 2210 03ea 5F030000 		.4byte	.LASF46
 2211 03ee 01       		.byte	0x1
 2212 03ef 5201     		.2byte	0x152
 2213 03f1 B8000000 		.4byte	0xb8
 2214 03f5 03       		.uleb128 0x3
 2215 03f6 91       		.byte	0x91
 2216 03f7 F87E     		.sleb128 -136
 2217 03f9 10       		.uleb128 0x10
 2218 03fa 25010000 		.4byte	.LASF47
 2219 03fe 01       		.byte	0x1
 2220 03ff 5301     		.2byte	0x153
 2221 0401 B8000000 		.4byte	0xb8
 2222 0405 03       		.uleb128 0x3
 2223 0406 91       		.byte	0x91
 2224 0407 887F     		.sleb128 -120
 2225 0409 10       		.uleb128 0x10
 2226 040a 69020000 		.4byte	.LASF48
 2227 040e 01       		.byte	0x1
 2228 040f 5401     		.2byte	0x154
 2229 0411 B8000000 		.4byte	0xb8
 2230 0415 03       		.uleb128 0x3
 2231 0416 91       		.byte	0x91
 2232 0417 807F     		.sleb128 -128
 2233 0419 10       		.uleb128 0x10
 2234 041a D8020000 		.4byte	.LASF49
 2235 041e 01       		.byte	0x1
 2236 041f 5601     		.2byte	0x156
 2237 0421 B8000000 		.4byte	0xb8
 2238 0425 02       		.uleb128 0x2
 2239 0426 91       		.byte	0x91
 2240 0427 50       		.sleb128 -48
 2241 0428 0B       		.uleb128 0xb
 2242 0429 F8000000 		.4byte	.LBB9
 2243 042d 70000000 		.4byte	.LBE9-.LBB9
 2244 0431 12       		.uleb128 0x12
 2245 0432 6900     		.ascii	"i\000"
 2246 0434 01       		.byte	0x1
 2247 0435 6201     		.2byte	0x162
 2248 0437 8D000000 		.4byte	0x8d
 2249 043b 02       		.uleb128 0x2
 2250 043c 91       		.byte	0x91
 2251 043d 5E       		.sleb128 -34
 2252 043e 0B       		.uleb128 0xb
 2253 043f 00010000 		.4byte	.LBB10
 2254 0443 54000000 		.4byte	.LBE10-.LBB10
 2255 0447 10       		.uleb128 0x10
ARM GAS  C:\Users\riveraes\AppData\Local\Temp\ccmEdq2f.s 			page 50


 2256 0448 06010000 		.4byte	.LASF50
 2257 044c 01       		.byte	0x1
 2258 044d 6401     		.2byte	0x164
 2259 044f B8000000 		.4byte	0xb8
 2260 0453 03       		.uleb128 0x3
 2261 0454 91       		.byte	0x91
 2262 0455 907F     		.sleb128 -112
 2263 0457 00       		.byte	0
 2264 0458 00       		.byte	0
 2265 0459 00       		.byte	0
 2266 045a 17       		.uleb128 0x17
 2267 045b 04       		.byte	0x4
 2268 045c B8000000 		.4byte	0xb8
 2269 0460 15       		.uleb128 0x15
 2270 0461 8B020000 		.4byte	.LASF52
 2271 0465 01       		.byte	0x1
 2272 0466 7701     		.2byte	0x177
 2273 0468 8D000000 		.4byte	0x8d
 2274 046c 00000000 		.4byte	.LFB72
 2275 0470 64000000 		.4byte	.LFE72-.LFB72
 2276 0474 01       		.uleb128 0x1
 2277 0475 9C       		.byte	0x9c
 2278 0476 CE040000 		.4byte	0x4ce
 2279 047a 0F       		.uleb128 0xf
 2280 047b A8020000 		.4byte	.LASF53
 2281 047f 01       		.byte	0x1
 2282 0480 7701     		.2byte	0x177
 2283 0482 5A040000 		.4byte	0x45a
 2284 0486 02       		.uleb128 0x2
 2285 0487 91       		.byte	0x91
 2286 0488 5C       		.sleb128 -36
 2287 0489 0F       		.uleb128 0xf
 2288 048a 32030000 		.4byte	.LASF54
 2289 048e 01       		.byte	0x1
 2290 048f 7701     		.2byte	0x177
 2291 0491 81000000 		.4byte	0x81
 2292 0495 02       		.uleb128 0x2
 2293 0496 91       		.byte	0x91
 2294 0497 5B       		.sleb128 -37
 2295 0498 10       		.uleb128 0x10
 2296 0499 46010000 		.4byte	.LASF55
 2297 049d 01       		.byte	0x1
 2298 049e 7901     		.2byte	0x179
 2299 04a0 B8000000 		.4byte	0xb8
 2300 04a4 02       		.uleb128 0x2
 2301 04a5 91       		.byte	0x91
 2302 04a6 68       		.sleb128 -24
 2303 04a7 10       		.uleb128 0x10
 2304 04a8 00000000 		.4byte	.LASF56
 2305 04ac 01       		.byte	0x1
 2306 04ad 7A01     		.2byte	0x17a
 2307 04af 8D000000 		.4byte	0x8d
 2308 04b3 02       		.uleb128 0x2
 2309 04b4 91       		.byte	0x91
 2310 04b5 66       		.sleb128 -26
 2311 04b6 0B       		.uleb128 0xb
 2312 04b7 18000000 		.4byte	.LBB11
ARM GAS  C:\Users\riveraes\AppData\Local\Temp\ccmEdq2f.s 			page 51


 2313 04bb 42000000 		.4byte	.LBE11-.LBB11
 2314 04bf 12       		.uleb128 0x12
 2315 04c0 6900     		.ascii	"i\000"
 2316 04c2 01       		.byte	0x1
 2317 04c3 7B01     		.2byte	0x17b
 2318 04c5 8D000000 		.4byte	0x8d
 2319 04c9 02       		.uleb128 0x2
 2320 04ca 91       		.byte	0x91
 2321 04cb 64       		.sleb128 -28
 2322 04cc 00       		.byte	0
 2323 04cd 00       		.byte	0
 2324 04ce 0E       		.uleb128 0xe
 2325 04cf 19030000 		.4byte	.LASF57
 2326 04d3 01       		.byte	0x1
 2327 04d4 8A01     		.2byte	0x18a
 2328 04d6 00000000 		.4byte	.LFB73
 2329 04da 60020000 		.4byte	.LFE73-.LFB73
 2330 04de 01       		.uleb128 0x1
 2331 04df 9C       		.byte	0x9c
 2332 04e0 01050000 		.4byte	0x501
 2333 04e4 18       		.uleb128 0x18
 2334 04e5 6C6F00   		.ascii	"lo\000"
 2335 04e8 01       		.byte	0x1
 2336 04e9 8A01     		.2byte	0x18a
 2337 04eb 68000000 		.4byte	0x68
 2338 04ef 02       		.uleb128 0x2
 2339 04f0 91       		.byte	0x91
 2340 04f1 74       		.sleb128 -12
 2341 04f2 18       		.uleb128 0x18
 2342 04f3 686900   		.ascii	"hi\000"
 2343 04f6 01       		.byte	0x1
 2344 04f7 8A01     		.2byte	0x18a
 2345 04f9 68000000 		.4byte	0x68
 2346 04fd 02       		.uleb128 0x2
 2347 04fe 91       		.byte	0x91
 2348 04ff 70       		.sleb128 -16
 2349 0500 00       		.byte	0
 2350 0501 19       		.uleb128 0x19
 2351 0502 8E030000 		.4byte	.LASF58
 2352 0506 05       		.byte	0x5
 2353 0507 1207     		.2byte	0x712
 2354 0509 0D050000 		.4byte	0x50d
 2355 050d 1A       		.uleb128 0x1a
 2356 050e 76000000 		.4byte	0x76
 2357 0512 13       		.uleb128 0x13
 2358 0513 BF000000 		.4byte	0xbf
 2359 0517 22050000 		.4byte	0x522
 2360 051b 14       		.uleb128 0x14
 2361 051c CD000000 		.4byte	0xcd
 2362 0520 0F       		.byte	0xf
 2363 0521 00       		.byte	0
 2364 0522 1B       		.uleb128 0x1b
 2365 0523 C9000000 		.4byte	.LASF59
 2366 0527 01       		.byte	0x1
 2367 0528 18       		.byte	0x18
 2368 0529 12050000 		.4byte	0x512
 2369 052d 05       		.uleb128 0x5
ARM GAS  C:\Users\riveraes\AppData\Local\Temp\ccmEdq2f.s 			page 52


 2370 052e 03       		.byte	0x3
 2371 052f 00000000 		.4byte	TransmitBuffer
 2372 0533 1B       		.uleb128 0x1b
 2373 0534 10000000 		.4byte	.LASF60
 2374 0538 01       		.byte	0x1
 2375 0539 1A       		.byte	0x1a
 2376 053a 8D000000 		.4byte	0x8d
 2377 053e 05       		.uleb128 0x5
 2378 053f 03       		.byte	0x3
 2379 0540 00000000 		.4byte	Output
 2380 0544 13       		.uleb128 0x13
 2381 0545 A5000000 		.4byte	0xa5
 2382 0549 54050000 		.4byte	0x554
 2383 054d 14       		.uleb128 0x14
 2384 054e CD000000 		.4byte	0xcd
 2385 0552 95       		.byte	0x95
 2386 0553 00       		.byte	0
 2387 0554 1B       		.uleb128 0x1b
 2388 0555 2C030000 		.4byte	.LASF61
 2389 0559 01       		.byte	0x1
 2390 055a 1B       		.byte	0x1b
 2391 055b 44050000 		.4byte	0x544
 2392 055f 05       		.uleb128 0x5
 2393 0560 03       		.byte	0x3
 2394 0561 00000000 		.4byte	array
 2395 0565 13       		.uleb128 0x13
 2396 0566 68000000 		.4byte	0x68
 2397 056a 75050000 		.4byte	0x575
 2398 056e 14       		.uleb128 0x14
 2399 056f CD000000 		.4byte	0xcd
 2400 0573 04       		.byte	0x4
 2401 0574 00       		.byte	0
 2402 0575 1B       		.uleb128 0x1b
 2403 0576 69030000 		.4byte	.LASF62
 2404 057a 01       		.byte	0x1
 2405 057b 1D       		.byte	0x1d
 2406 057c 65050000 		.4byte	0x565
 2407 0580 05       		.uleb128 0x5
 2408 0581 03       		.byte	0x3
 2409 0582 00000000 		.4byte	loFrequency
 2410 0586 13       		.uleb128 0x13
 2411 0587 68000000 		.4byte	0x68
 2412 058b 96050000 		.4byte	0x596
 2413 058f 14       		.uleb128 0x14
 2414 0590 CD000000 		.4byte	0xcd
 2415 0594 03       		.byte	0x3
 2416 0595 00       		.byte	0
 2417 0596 1B       		.uleb128 0x1b
 2418 0597 4F010000 		.4byte	.LASF63
 2419 059b 01       		.byte	0x1
 2420 059c 1E       		.byte	0x1e
 2421 059d 86050000 		.4byte	0x586
 2422 05a1 05       		.uleb128 0x5
 2423 05a2 03       		.byte	0x3
 2424 05a3 00000000 		.4byte	hiFrequency
 2425 05a7 1B       		.uleb128 0x1b
 2426 05a8 37030000 		.4byte	.LASF64
ARM GAS  C:\Users\riveraes\AppData\Local\Temp\ccmEdq2f.s 			page 53


 2427 05ac 01       		.byte	0x1
 2428 05ad 20       		.byte	0x20
 2429 05ae 99000000 		.4byte	0x99
 2430 05b2 05       		.uleb128 0x5
 2431 05b3 03       		.byte	0x3
 2432 05b4 00000000 		.4byte	terminalOutputEnable
 2433 05b8 00       		.byte	0
 2434              		.section	.debug_abbrev,"",%progbits
 2435              	.Ldebug_abbrev0:
 2436 0000 01       		.uleb128 0x1
 2437 0001 11       		.uleb128 0x11
 2438 0002 01       		.byte	0x1
 2439 0003 25       		.uleb128 0x25
 2440 0004 0E       		.uleb128 0xe
 2441 0005 13       		.uleb128 0x13
 2442 0006 0B       		.uleb128 0xb
 2443 0007 03       		.uleb128 0x3
 2444 0008 0E       		.uleb128 0xe
 2445 0009 1B       		.uleb128 0x1b
 2446 000a 0E       		.uleb128 0xe
 2447 000b 55       		.uleb128 0x55
 2448 000c 17       		.uleb128 0x17
 2449 000d 11       		.uleb128 0x11
 2450 000e 01       		.uleb128 0x1
 2451 000f 10       		.uleb128 0x10
 2452 0010 17       		.uleb128 0x17
 2453 0011 00       		.byte	0
 2454 0012 00       		.byte	0
 2455 0013 02       		.uleb128 0x2
 2456 0014 24       		.uleb128 0x24
 2457 0015 00       		.byte	0
 2458 0016 0B       		.uleb128 0xb
 2459 0017 0B       		.uleb128 0xb
 2460 0018 3E       		.uleb128 0x3e
 2461 0019 0B       		.uleb128 0xb
 2462 001a 03       		.uleb128 0x3
 2463 001b 0E       		.uleb128 0xe
 2464 001c 00       		.byte	0
 2465 001d 00       		.byte	0
 2466 001e 03       		.uleb128 0x3
 2467 001f 16       		.uleb128 0x16
 2468 0020 00       		.byte	0
 2469 0021 03       		.uleb128 0x3
 2470 0022 0E       		.uleb128 0xe
 2471 0023 3A       		.uleb128 0x3a
 2472 0024 0B       		.uleb128 0xb
 2473 0025 3B       		.uleb128 0x3b
 2474 0026 0B       		.uleb128 0xb
 2475 0027 49       		.uleb128 0x49
 2476 0028 13       		.uleb128 0x13
 2477 0029 00       		.byte	0
 2478 002a 00       		.byte	0
 2479 002b 04       		.uleb128 0x4
 2480 002c 24       		.uleb128 0x24
 2481 002d 00       		.byte	0
 2482 002e 0B       		.uleb128 0xb
 2483 002f 0B       		.uleb128 0xb
ARM GAS  C:\Users\riveraes\AppData\Local\Temp\ccmEdq2f.s 			page 54


 2484 0030 3E       		.uleb128 0x3e
 2485 0031 0B       		.uleb128 0xb
 2486 0032 03       		.uleb128 0x3
 2487 0033 08       		.uleb128 0x8
 2488 0034 00       		.byte	0
 2489 0035 00       		.byte	0
 2490 0036 05       		.uleb128 0x5
 2491 0037 16       		.uleb128 0x16
 2492 0038 00       		.byte	0
 2493 0039 03       		.uleb128 0x3
 2494 003a 0E       		.uleb128 0xe
 2495 003b 3A       		.uleb128 0x3a
 2496 003c 0B       		.uleb128 0xb
 2497 003d 3B       		.uleb128 0x3b
 2498 003e 05       		.uleb128 0x5
 2499 003f 49       		.uleb128 0x49
 2500 0040 13       		.uleb128 0x13
 2501 0041 00       		.byte	0
 2502 0042 00       		.byte	0
 2503 0043 06       		.uleb128 0x6
 2504 0044 2E       		.uleb128 0x2e
 2505 0045 00       		.byte	0
 2506 0046 3F       		.uleb128 0x3f
 2507 0047 19       		.uleb128 0x19
 2508 0048 03       		.uleb128 0x3
 2509 0049 0E       		.uleb128 0xe
 2510 004a 3A       		.uleb128 0x3a
 2511 004b 0B       		.uleb128 0xb
 2512 004c 3B       		.uleb128 0x3b
 2513 004d 0B       		.uleb128 0xb
 2514 004e 27       		.uleb128 0x27
 2515 004f 19       		.uleb128 0x19
 2516 0050 11       		.uleb128 0x11
 2517 0051 01       		.uleb128 0x1
 2518 0052 12       		.uleb128 0x12
 2519 0053 06       		.uleb128 0x6
 2520 0054 40       		.uleb128 0x40
 2521 0055 18       		.uleb128 0x18
 2522 0056 9742     		.uleb128 0x2117
 2523 0058 19       		.uleb128 0x19
 2524 0059 00       		.byte	0
 2525 005a 00       		.byte	0
 2526 005b 07       		.uleb128 0x7
 2527 005c 2E       		.uleb128 0x2e
 2528 005d 01       		.byte	0x1
 2529 005e 3F       		.uleb128 0x3f
 2530 005f 19       		.uleb128 0x19
 2531 0060 03       		.uleb128 0x3
 2532 0061 0E       		.uleb128 0xe
 2533 0062 3A       		.uleb128 0x3a
 2534 0063 0B       		.uleb128 0xb
 2535 0064 3B       		.uleb128 0x3b
 2536 0065 0B       		.uleb128 0xb
 2537 0066 49       		.uleb128 0x49
 2538 0067 13       		.uleb128 0x13
 2539 0068 11       		.uleb128 0x11
 2540 0069 01       		.uleb128 0x1
ARM GAS  C:\Users\riveraes\AppData\Local\Temp\ccmEdq2f.s 			page 55


 2541 006a 12       		.uleb128 0x12
 2542 006b 06       		.uleb128 0x6
 2543 006c 40       		.uleb128 0x40
 2544 006d 18       		.uleb128 0x18
 2545 006e 9642     		.uleb128 0x2116
 2546 0070 19       		.uleb128 0x19
 2547 0071 01       		.uleb128 0x1
 2548 0072 13       		.uleb128 0x13
 2549 0073 00       		.byte	0
 2550 0074 00       		.byte	0
 2551 0075 08       		.uleb128 0x8
 2552 0076 34       		.uleb128 0x34
 2553 0077 00       		.byte	0
 2554 0078 03       		.uleb128 0x3
 2555 0079 08       		.uleb128 0x8
 2556 007a 3A       		.uleb128 0x3a
 2557 007b 0B       		.uleb128 0xb
 2558 007c 3B       		.uleb128 0x3b
 2559 007d 0B       		.uleb128 0xb
 2560 007e 49       		.uleb128 0x49
 2561 007f 13       		.uleb128 0x13
 2562 0080 02       		.uleb128 0x2
 2563 0081 18       		.uleb128 0x18
 2564 0082 00       		.byte	0
 2565 0083 00       		.byte	0
 2566 0084 09       		.uleb128 0x9
 2567 0085 0B       		.uleb128 0xb
 2568 0086 01       		.byte	0x1
 2569 0087 11       		.uleb128 0x11
 2570 0088 01       		.uleb128 0x1
 2571 0089 12       		.uleb128 0x12
 2572 008a 06       		.uleb128 0x6
 2573 008b 01       		.uleb128 0x1
 2574 008c 13       		.uleb128 0x13
 2575 008d 00       		.byte	0
 2576 008e 00       		.byte	0
 2577 008f 0A       		.uleb128 0xa
 2578 0090 34       		.uleb128 0x34
 2579 0091 00       		.byte	0
 2580 0092 03       		.uleb128 0x3
 2581 0093 0E       		.uleb128 0xe
 2582 0094 3A       		.uleb128 0x3a
 2583 0095 0B       		.uleb128 0xb
 2584 0096 3B       		.uleb128 0x3b
 2585 0097 0B       		.uleb128 0xb
 2586 0098 49       		.uleb128 0x49
 2587 0099 13       		.uleb128 0x13
 2588 009a 02       		.uleb128 0x2
 2589 009b 18       		.uleb128 0x18
 2590 009c 00       		.byte	0
 2591 009d 00       		.byte	0
 2592 009e 0B       		.uleb128 0xb
 2593 009f 0B       		.uleb128 0xb
 2594 00a0 01       		.byte	0x1
 2595 00a1 11       		.uleb128 0x11
 2596 00a2 01       		.uleb128 0x1
 2597 00a3 12       		.uleb128 0x12
ARM GAS  C:\Users\riveraes\AppData\Local\Temp\ccmEdq2f.s 			page 56


 2598 00a4 06       		.uleb128 0x6
 2599 00a5 00       		.byte	0
 2600 00a6 00       		.byte	0
 2601 00a7 0C       		.uleb128 0xc
 2602 00a8 2E       		.uleb128 0x2e
 2603 00a9 01       		.byte	0x1
 2604 00aa 3F       		.uleb128 0x3f
 2605 00ab 19       		.uleb128 0x19
 2606 00ac 03       		.uleb128 0x3
 2607 00ad 0E       		.uleb128 0xe
 2608 00ae 3A       		.uleb128 0x3a
 2609 00af 0B       		.uleb128 0xb
 2610 00b0 3B       		.uleb128 0x3b
 2611 00b1 0B       		.uleb128 0xb
 2612 00b2 27       		.uleb128 0x27
 2613 00b3 19       		.uleb128 0x19
 2614 00b4 11       		.uleb128 0x11
 2615 00b5 01       		.uleb128 0x1
 2616 00b6 12       		.uleb128 0x12
 2617 00b7 06       		.uleb128 0x6
 2618 00b8 40       		.uleb128 0x40
 2619 00b9 18       		.uleb128 0x18
 2620 00ba 9642     		.uleb128 0x2116
 2621 00bc 19       		.uleb128 0x19
 2622 00bd 01       		.uleb128 0x1
 2623 00be 13       		.uleb128 0x13
 2624 00bf 00       		.byte	0
 2625 00c0 00       		.byte	0
 2626 00c1 0D       		.uleb128 0xd
 2627 00c2 05       		.uleb128 0x5
 2628 00c3 00       		.byte	0
 2629 00c4 03       		.uleb128 0x3
 2630 00c5 0E       		.uleb128 0xe
 2631 00c6 3A       		.uleb128 0x3a
 2632 00c7 0B       		.uleb128 0xb
 2633 00c8 3B       		.uleb128 0x3b
 2634 00c9 0B       		.uleb128 0xb
 2635 00ca 49       		.uleb128 0x49
 2636 00cb 13       		.uleb128 0x13
 2637 00cc 02       		.uleb128 0x2
 2638 00cd 18       		.uleb128 0x18
 2639 00ce 00       		.byte	0
 2640 00cf 00       		.byte	0
 2641 00d0 0E       		.uleb128 0xe
 2642 00d1 2E       		.uleb128 0x2e
 2643 00d2 01       		.byte	0x1
 2644 00d3 3F       		.uleb128 0x3f
 2645 00d4 19       		.uleb128 0x19
 2646 00d5 03       		.uleb128 0x3
 2647 00d6 0E       		.uleb128 0xe
 2648 00d7 3A       		.uleb128 0x3a
 2649 00d8 0B       		.uleb128 0xb
 2650 00d9 3B       		.uleb128 0x3b
 2651 00da 05       		.uleb128 0x5
 2652 00db 27       		.uleb128 0x27
 2653 00dc 19       		.uleb128 0x19
 2654 00dd 11       		.uleb128 0x11
ARM GAS  C:\Users\riveraes\AppData\Local\Temp\ccmEdq2f.s 			page 57


 2655 00de 01       		.uleb128 0x1
 2656 00df 12       		.uleb128 0x12
 2657 00e0 06       		.uleb128 0x6
 2658 00e1 40       		.uleb128 0x40
 2659 00e2 18       		.uleb128 0x18
 2660 00e3 9642     		.uleb128 0x2116
 2661 00e5 19       		.uleb128 0x19
 2662 00e6 01       		.uleb128 0x1
 2663 00e7 13       		.uleb128 0x13
 2664 00e8 00       		.byte	0
 2665 00e9 00       		.byte	0
 2666 00ea 0F       		.uleb128 0xf
 2667 00eb 05       		.uleb128 0x5
 2668 00ec 00       		.byte	0
 2669 00ed 03       		.uleb128 0x3
 2670 00ee 0E       		.uleb128 0xe
 2671 00ef 3A       		.uleb128 0x3a
 2672 00f0 0B       		.uleb128 0xb
 2673 00f1 3B       		.uleb128 0x3b
 2674 00f2 05       		.uleb128 0x5
 2675 00f3 49       		.uleb128 0x49
 2676 00f4 13       		.uleb128 0x13
 2677 00f5 02       		.uleb128 0x2
 2678 00f6 18       		.uleb128 0x18
 2679 00f7 00       		.byte	0
 2680 00f8 00       		.byte	0
 2681 00f9 10       		.uleb128 0x10
 2682 00fa 34       		.uleb128 0x34
 2683 00fb 00       		.byte	0
 2684 00fc 03       		.uleb128 0x3
 2685 00fd 0E       		.uleb128 0xe
 2686 00fe 3A       		.uleb128 0x3a
 2687 00ff 0B       		.uleb128 0xb
 2688 0100 3B       		.uleb128 0x3b
 2689 0101 05       		.uleb128 0x5
 2690 0102 49       		.uleb128 0x49
 2691 0103 13       		.uleb128 0x13
 2692 0104 02       		.uleb128 0x2
 2693 0105 18       		.uleb128 0x18
 2694 0106 00       		.byte	0
 2695 0107 00       		.byte	0
 2696 0108 11       		.uleb128 0x11
 2697 0109 2E       		.uleb128 0x2e
 2698 010a 00       		.byte	0
 2699 010b 3F       		.uleb128 0x3f
 2700 010c 19       		.uleb128 0x19
 2701 010d 03       		.uleb128 0x3
 2702 010e 0E       		.uleb128 0xe
 2703 010f 3A       		.uleb128 0x3a
 2704 0110 0B       		.uleb128 0xb
 2705 0111 3B       		.uleb128 0x3b
 2706 0112 05       		.uleb128 0x5
 2707 0113 27       		.uleb128 0x27
 2708 0114 19       		.uleb128 0x19
 2709 0115 11       		.uleb128 0x11
 2710 0116 01       		.uleb128 0x1
 2711 0117 12       		.uleb128 0x12
ARM GAS  C:\Users\riveraes\AppData\Local\Temp\ccmEdq2f.s 			page 58


 2712 0118 06       		.uleb128 0x6
 2713 0119 40       		.uleb128 0x40
 2714 011a 18       		.uleb128 0x18
 2715 011b 9642     		.uleb128 0x2116
 2716 011d 19       		.uleb128 0x19
 2717 011e 00       		.byte	0
 2718 011f 00       		.byte	0
 2719 0120 12       		.uleb128 0x12
 2720 0121 34       		.uleb128 0x34
 2721 0122 00       		.byte	0
 2722 0123 03       		.uleb128 0x3
 2723 0124 08       		.uleb128 0x8
 2724 0125 3A       		.uleb128 0x3a
 2725 0126 0B       		.uleb128 0xb
 2726 0127 3B       		.uleb128 0x3b
 2727 0128 05       		.uleb128 0x5
 2728 0129 49       		.uleb128 0x49
 2729 012a 13       		.uleb128 0x13
 2730 012b 02       		.uleb128 0x2
 2731 012c 18       		.uleb128 0x18
 2732 012d 00       		.byte	0
 2733 012e 00       		.byte	0
 2734 012f 13       		.uleb128 0x13
 2735 0130 01       		.uleb128 0x1
 2736 0131 01       		.byte	0x1
 2737 0132 49       		.uleb128 0x49
 2738 0133 13       		.uleb128 0x13
 2739 0134 01       		.uleb128 0x1
 2740 0135 13       		.uleb128 0x13
 2741 0136 00       		.byte	0
 2742 0137 00       		.byte	0
 2743 0138 14       		.uleb128 0x14
 2744 0139 21       		.uleb128 0x21
 2745 013a 00       		.byte	0
 2746 013b 49       		.uleb128 0x49
 2747 013c 13       		.uleb128 0x13
 2748 013d 2F       		.uleb128 0x2f
 2749 013e 0B       		.uleb128 0xb
 2750 013f 00       		.byte	0
 2751 0140 00       		.byte	0
 2752 0141 15       		.uleb128 0x15
 2753 0142 2E       		.uleb128 0x2e
 2754 0143 01       		.byte	0x1
 2755 0144 3F       		.uleb128 0x3f
 2756 0145 19       		.uleb128 0x19
 2757 0146 03       		.uleb128 0x3
 2758 0147 0E       		.uleb128 0xe
 2759 0148 3A       		.uleb128 0x3a
 2760 0149 0B       		.uleb128 0xb
 2761 014a 3B       		.uleb128 0x3b
 2762 014b 05       		.uleb128 0x5
 2763 014c 27       		.uleb128 0x27
 2764 014d 19       		.uleb128 0x19
 2765 014e 49       		.uleb128 0x49
 2766 014f 13       		.uleb128 0x13
 2767 0150 11       		.uleb128 0x11
 2768 0151 01       		.uleb128 0x1
ARM GAS  C:\Users\riveraes\AppData\Local\Temp\ccmEdq2f.s 			page 59


 2769 0152 12       		.uleb128 0x12
 2770 0153 06       		.uleb128 0x6
 2771 0154 40       		.uleb128 0x40
 2772 0155 18       		.uleb128 0x18
 2773 0156 9642     		.uleb128 0x2116
 2774 0158 19       		.uleb128 0x19
 2775 0159 01       		.uleb128 0x1
 2776 015a 13       		.uleb128 0x13
 2777 015b 00       		.byte	0
 2778 015c 00       		.byte	0
 2779 015d 16       		.uleb128 0x16
 2780 015e 34       		.uleb128 0x34
 2781 015f 00       		.byte	0
 2782 0160 03       		.uleb128 0x3
 2783 0161 08       		.uleb128 0x8
 2784 0162 3A       		.uleb128 0x3a
 2785 0163 0B       		.uleb128 0xb
 2786 0164 3B       		.uleb128 0x3b
 2787 0165 05       		.uleb128 0x5
 2788 0166 49       		.uleb128 0x49
 2789 0167 13       		.uleb128 0x13
 2790 0168 00       		.byte	0
 2791 0169 00       		.byte	0
 2792 016a 17       		.uleb128 0x17
 2793 016b 0F       		.uleb128 0xf
 2794 016c 00       		.byte	0
 2795 016d 0B       		.uleb128 0xb
 2796 016e 0B       		.uleb128 0xb
 2797 016f 49       		.uleb128 0x49
 2798 0170 13       		.uleb128 0x13
 2799 0171 00       		.byte	0
 2800 0172 00       		.byte	0
 2801 0173 18       		.uleb128 0x18
 2802 0174 05       		.uleb128 0x5
 2803 0175 00       		.byte	0
 2804 0176 03       		.uleb128 0x3
 2805 0177 08       		.uleb128 0x8
 2806 0178 3A       		.uleb128 0x3a
 2807 0179 0B       		.uleb128 0xb
 2808 017a 3B       		.uleb128 0x3b
 2809 017b 05       		.uleb128 0x5
 2810 017c 49       		.uleb128 0x49
 2811 017d 13       		.uleb128 0x13
 2812 017e 02       		.uleb128 0x2
 2813 017f 18       		.uleb128 0x18
 2814 0180 00       		.byte	0
 2815 0181 00       		.byte	0
 2816 0182 19       		.uleb128 0x19
 2817 0183 34       		.uleb128 0x34
 2818 0184 00       		.byte	0
 2819 0185 03       		.uleb128 0x3
 2820 0186 0E       		.uleb128 0xe
 2821 0187 3A       		.uleb128 0x3a
 2822 0188 0B       		.uleb128 0xb
 2823 0189 3B       		.uleb128 0x3b
 2824 018a 05       		.uleb128 0x5
 2825 018b 49       		.uleb128 0x49
ARM GAS  C:\Users\riveraes\AppData\Local\Temp\ccmEdq2f.s 			page 60


 2826 018c 13       		.uleb128 0x13
 2827 018d 3F       		.uleb128 0x3f
 2828 018e 19       		.uleb128 0x19
 2829 018f 3C       		.uleb128 0x3c
 2830 0190 19       		.uleb128 0x19
 2831 0191 00       		.byte	0
 2832 0192 00       		.byte	0
 2833 0193 1A       		.uleb128 0x1a
 2834 0194 35       		.uleb128 0x35
 2835 0195 00       		.byte	0
 2836 0196 49       		.uleb128 0x49
 2837 0197 13       		.uleb128 0x13
 2838 0198 00       		.byte	0
 2839 0199 00       		.byte	0
 2840 019a 1B       		.uleb128 0x1b
 2841 019b 34       		.uleb128 0x34
 2842 019c 00       		.byte	0
 2843 019d 03       		.uleb128 0x3
 2844 019e 0E       		.uleb128 0xe
 2845 019f 3A       		.uleb128 0x3a
 2846 01a0 0B       		.uleb128 0xb
 2847 01a1 3B       		.uleb128 0x3b
 2848 01a2 0B       		.uleb128 0xb
 2849 01a3 49       		.uleb128 0x49
 2850 01a4 13       		.uleb128 0x13
 2851 01a5 3F       		.uleb128 0x3f
 2852 01a6 19       		.uleb128 0x19
 2853 01a7 02       		.uleb128 0x2
 2854 01a8 18       		.uleb128 0x18
 2855 01a9 00       		.byte	0
 2856 01aa 00       		.byte	0
 2857 01ab 00       		.byte	0
 2858              		.section	.debug_aranges,"",%progbits
 2859 0000 64000000 		.4byte	0x64
 2860 0004 0200     		.2byte	0x2
 2861 0006 00000000 		.4byte	.Ldebug_info0
 2862 000a 04       		.byte	0x4
 2863 000b 00       		.byte	0
 2864 000c 0000     		.2byte	0
 2865 000e 0000     		.2byte	0
 2866 0010 00000000 		.4byte	.LFB64
 2867 0014 0C000000 		.4byte	.LFE64-.LFB64
 2868 0018 00000000 		.4byte	.LFB65
 2869 001c 0C000000 		.4byte	.LFE65-.LFB65
 2870 0020 00000000 		.4byte	.LFB66
 2871 0024 E4030000 		.4byte	.LFE66-.LFB66
 2872 0028 00000000 		.4byte	.LFB67
 2873 002c 60000000 		.4byte	.LFE67-.LFB67
 2874 0030 00000000 		.4byte	.LFB68
 2875 0034 60000000 		.4byte	.LFE68-.LFB68
 2876 0038 00000000 		.4byte	.LFB69
 2877 003c 28000000 		.4byte	.LFE69-.LFB69
 2878 0040 00000000 		.4byte	.LFB70
 2879 0044 94010000 		.4byte	.LFE70-.LFB70
 2880 0048 00000000 		.4byte	.LFB71
 2881 004c 1C020000 		.4byte	.LFE71-.LFB71
 2882 0050 00000000 		.4byte	.LFB72
ARM GAS  C:\Users\riveraes\AppData\Local\Temp\ccmEdq2f.s 			page 61


 2883 0054 64000000 		.4byte	.LFE72-.LFB72
 2884 0058 00000000 		.4byte	.LFB73
 2885 005c 60020000 		.4byte	.LFE73-.LFB73
 2886 0060 00000000 		.4byte	0
 2887 0064 00000000 		.4byte	0
 2888              		.section	.debug_ranges,"",%progbits
 2889              	.Ldebug_ranges0:
 2890 0000 00000000 		.4byte	.LFB64
 2891 0004 0C000000 		.4byte	.LFE64
 2892 0008 00000000 		.4byte	.LFB65
 2893 000c 0C000000 		.4byte	.LFE65
 2894 0010 00000000 		.4byte	.LFB66
 2895 0014 E4030000 		.4byte	.LFE66
 2896 0018 00000000 		.4byte	.LFB67
 2897 001c 60000000 		.4byte	.LFE67
 2898 0020 00000000 		.4byte	.LFB68
 2899 0024 60000000 		.4byte	.LFE68
 2900 0028 00000000 		.4byte	.LFB69
 2901 002c 28000000 		.4byte	.LFE69
 2902 0030 00000000 		.4byte	.LFB70
 2903 0034 94010000 		.4byte	.LFE70
 2904 0038 00000000 		.4byte	.LFB71
 2905 003c 1C020000 		.4byte	.LFE71
 2906 0040 00000000 		.4byte	.LFB72
 2907 0044 64000000 		.4byte	.LFE72
 2908 0048 00000000 		.4byte	.LFB73
 2909 004c 60020000 		.4byte	.LFE73
 2910 0050 00000000 		.4byte	0
 2911 0054 00000000 		.4byte	0
 2912              		.section	.debug_line,"",%progbits
 2913              	.Ldebug_line0:
 2914 0000 B1030000 		.section	.debug_str,"MS",%progbits,1
 2914      02004C01 
 2914      00000201 
 2914      FB0E0D00 
 2914      01010101 
 2915              	.LASF56:
 2916 0000 696E6465 		.ascii	"index\000"
 2916      7800
 2917              	.LASF2:
 2918 0006 73686F72 		.ascii	"short int\000"
 2918      7420696E 
 2918      7400
 2919              	.LASF60:
 2920 0010 4F757470 		.ascii	"Output\000"
 2920      757400
 2921              	.LASF35:
 2922 0017 6869416D 		.ascii	"hiAmp\000"
 2922      7000
 2923              	.LASF65:
 2924 001d 474E5520 		.ascii	"GNU C11 5.4.1 20160609 (release) [ARM/embedded-5-br"
 2924      43313120 
 2924      352E342E 
 2924      31203230 
 2924      31363036 
 2925 0050 616E6368 		.ascii	"anch revision 237715] -mcpu=cortex-m3 -mthumb -g -O"
 2925      20726576 
ARM GAS  C:\Users\riveraes\AppData\Local\Temp\ccmEdq2f.s 			page 62


 2925      6973696F 
 2925      6E203233 
 2925      37373135 
 2926 0083 30202D66 		.ascii	"0 -ffunction-sections -ffat-lto-objects\000"
 2926      66756E63 
 2926      74696F6E 
 2926      2D736563 
 2926      74696F6E 
 2927              	.LASF29:
 2928 00ab 496E6974 		.ascii	"InitSettings\000"
 2928      53657474 
 2928      696E6773 
 2928      00
 2929              	.LASF18:
 2930 00b8 6C6F6E67 		.ascii	"long double\000"
 2930      20646F75 
 2930      626C6500 
 2931              	.LASF25:
 2932 00c4 4B535053 		.ascii	"KSPS\000"
 2932      00
 2933              	.LASF59:
 2934 00c9 5472616E 		.ascii	"TransmitBuffer\000"
 2934      736D6974 
 2934      42756666 
 2934      657200
 2935              	.LASF39:
 2936 00d8 7453616D 		.ascii	"tSamplingRate\000"
 2936      706C696E 
 2936      67526174 
 2936      6500
 2937              	.LASF12:
 2938 00e6 75696E74 		.ascii	"uint16\000"
 2938      313600
 2939              	.LASF14:
 2940 00ed 696E7431 		.ascii	"int16\000"
 2940      3600
 2941              	.LASF11:
 2942 00f3 75696E74 		.ascii	"uint8\000"
 2942      3800
 2943              	.LASF26:
 2944 00f9 436C6F63 		.ascii	"ClockDivider\000"
 2944      6B446976 
 2944      69646572 
 2944      00
 2945              	.LASF50:
 2946 0106 6D646174 		.ascii	"mdata\000"
 2946      6100
 2947              	.LASF15:
 2948 010c 666C6F61 		.ascii	"float\000"
 2948      7400
 2949              	.LASF6:
 2950 0112 6C6F6E67 		.ascii	"long long int\000"
 2950      206C6F6E 
 2950      6720696E 
 2950      7400
 2951              	.LASF13:
 2952 0120 696E7438 		.ascii	"int8\000"
ARM GAS  C:\Users\riveraes\AppData\Local\Temp\ccmEdq2f.s 			page 63


 2952      00
 2953              	.LASF47:
 2954 0125 7265616C 		.ascii	"real\000"
 2954      00
 2955              	.LASF36:
 2956 012a 70646174 		.ascii	"pdata\000"
 2956      6100
 2957              	.LASF4:
 2958 0130 6C6F6E67 		.ascii	"long int\000"
 2958      20696E74 
 2958      00
 2959              	.LASF22:
 2960 0139 73616D70 		.ascii	"sampleNumber\000"
 2960      6C654E75 
 2960      6D626572 
 2960      00
 2961              	.LASF55:
 2962 0146 6D617856 		.ascii	"maxValue\000"
 2962      616C7565 
 2962      00
 2963              	.LASF63:
 2964 014f 68694672 		.ascii	"hiFrequency\000"
 2964      65717565 
 2964      6E637900 
 2965              	.LASF42:
 2966 015b 6F6D6567 		.ascii	"omega\000"
 2966      6100
 2967              	.LASF67:
 2968 0161 433A5C55 		.ascii	"C:\\Users\\riveraes\\Documents\\LaptopPublic\\Maest"
 2968      73657273 
 2968      5C726976 
 2968      65726165 
 2968      735C446F 
 2969 018f 7269615C 		.ascii	"ria\\MP6157_Adquisicion y procesamiento de datos\\D"
 2969      4D503631 
 2969      35375F41 
 2969      64717569 
 2969      73696369 
 2970 01c0 75616C54 		.ascii	"ualToneMultiFrequency\\DTMF_Projects\\DTMF_RX.cydsn"
 2970      6F6E654D 
 2970      756C7469 
 2970      46726571 
 2970      75656E63 
 2971 01f1 00       		.ascii	"\000"
 2972              	.LASF33:
 2973 01f2 6869416D 		.ascii	"hiAmplitudes\000"
 2973      706C6974 
 2973      75646573 
 2973      00
 2974              	.LASF45:
 2975 01ff 636F6566 		.ascii	"coeff\000"
 2975      6600
 2976              	.LASF44:
 2977 0205 636F7369 		.ascii	"cosine\000"
 2977      6E6500
 2978              	.LASF1:
 2979 020c 756E7369 		.ascii	"unsigned char\000"
ARM GAS  C:\Users\riveraes\AppData\Local\Temp\ccmEdq2f.s 			page 64


 2979      676E6564 
 2979      20636861 
 2979      7200
 2980              	.LASF32:
 2981 021a 6C6F416D 		.ascii	"loAmplitudes\000"
 2981      706C6974 
 2981      75646573 
 2981      00
 2982              	.LASF0:
 2983 0227 7369676E 		.ascii	"signed char\000"
 2983      65642063 
 2983      68617200 
 2984              	.LASF10:
 2985 0233 696E7433 		.ascii	"int32_t\000"
 2985      325F7400 
 2986              	.LASF7:
 2987 023b 6C6F6E67 		.ascii	"long long unsigned int\000"
 2987      206C6F6E 
 2987      6720756E 
 2987      7369676E 
 2987      65642069 
 2988              	.LASF8:
 2989 0252 756E7369 		.ascii	"unsigned int\000"
 2989      676E6564 
 2989      20696E74 
 2989      00
 2990              	.LASF21:
 2991 025f 55736572 		.ascii	"UserInput\000"
 2991      496E7075 
 2991      7400
 2992              	.LASF48:
 2993 0269 696D6167 		.ascii	"imag\000"
 2993      00
 2994              	.LASF43:
 2995 026e 73696E65 		.ascii	"sine\000"
 2995      00
 2996              	.LASF3:
 2997 0273 73686F72 		.ascii	"short unsigned int\000"
 2997      7420756E 
 2997      7369676E 
 2997      65642069 
 2997      6E7400
 2998              	.LASF30:
 2999 0286 44544D46 		.ascii	"DTMF\000"
 2999      00
 3000              	.LASF52:
 3001 028b 6765744D 		.ascii	"getMaxValue\000"
 3001      61785661 
 3001      6C756500 
 3002              	.LASF17:
 3003 0297 63686172 		.ascii	"char\000"
 3003      00
 3004              	.LASF31:
 3005 029c 7369676E 		.ascii	"signal\000"
 3005      616C00
 3006              	.LASF23:
 3007 02a3 6D61696E 		.ascii	"main\000"
ARM GAS  C:\Users\riveraes\AppData\Local\Temp\ccmEdq2f.s 			page 65


 3007      00
 3008              	.LASF53:
 3009 02a8 61727261 		.ascii	"arrayData\000"
 3009      79446174 
 3009      6100
 3010              	.LASF41:
 3011 02b2 666C6F61 		.ascii	"floatnumSamples\000"
 3011      746E756D 
 3011      53616D70 
 3011      6C657300 
 3012              	.LASF37:
 3013 02c2 6E756D53 		.ascii	"numSamples\000"
 3013      616D706C 
 3013      657300
 3014              	.LASF34:
 3015 02cd 6C6F416D 		.ascii	"loAmp\000"
 3015      7000
 3016              	.LASF40:
 3017 02d3 64617461 		.ascii	"data\000"
 3017      00
 3018              	.LASF49:
 3019 02d8 7363616C 		.ascii	"scalingFactor\000"
 3019      696E6746 
 3019      6163746F 
 3019      7200
 3020              	.LASF66:
 3021 02e6 6D61696E 		.ascii	"main.c\000"
 3021      2E6300
 3022              	.LASF24:
 3023 02ed 53657448 		.ascii	"SetHighFrequencyDacOutput\000"
 3023      69676846 
 3023      72657175 
 3023      656E6379 
 3023      4461634F 
 3024              	.LASF5:
 3025 0307 6C6F6E67 		.ascii	"long unsigned int\000"
 3025      20756E73 
 3025      69676E65 
 3025      6420696E 
 3025      7400
 3026              	.LASF57:
 3027 0319 4465636F 		.ascii	"DecodeInput\000"
 3027      6465496E 
 3027      70757400 
 3028              	.LASF16:
 3029 0325 646F7562 		.ascii	"double\000"
 3029      6C6500
 3030              	.LASF61:
 3031 032c 61727261 		.ascii	"array\000"
 3031      7900
 3032              	.LASF54:
 3033 0332 73697A65 		.ascii	"size\000"
 3033      00
 3034              	.LASF64:
 3035 0337 7465726D 		.ascii	"terminalOutputEnable\000"
 3035      696E616C 
 3035      4F757470 
ARM GAS  C:\Users\riveraes\AppData\Local\Temp\ccmEdq2f.s 			page 66


 3035      7574456E 
 3035      61626C65 
 3036              	.LASF9:
 3037 034c 5F5F696E 		.ascii	"__int32_t\000"
 3037      7433325F 
 3037      7400
 3038              	.LASF19:
 3039 0356 73697A65 		.ascii	"sizetype\000"
 3039      74797065 
 3039      00
 3040              	.LASF46:
 3041 035f 6D61676E 		.ascii	"magnitude\000"
 3041      69747564 
 3041      6500
 3042              	.LASF62:
 3043 0369 6C6F4672 		.ascii	"loFrequency\000"
 3043      65717565 
 3043      6E637900 
 3044              	.LASF28:
 3045 0375 4F757470 		.ascii	"OutputFrequency\000"
 3045      75744672 
 3045      65717565 
 3045      6E637900 
 3046              	.LASF51:
 3047 0385 476F6572 		.ascii	"Goertzel\000"
 3047      747A656C 
 3047      00
 3048              	.LASF58:
 3049 038e 49544D5F 		.ascii	"ITM_RxBuffer\000"
 3049      52784275 
 3049      66666572 
 3049      00
 3050              	.LASF38:
 3051 039b 74467265 		.ascii	"tFrequency\000"
 3051      7175656E 
 3051      637900
 3052              	.LASF20:
 3053 03a6 5472616E 		.ascii	"Transmit\000"
 3053      736D6974 
 3053      00
 3054              	.LASF27:
 3055 03af 5365744C 		.ascii	"SetLowFrequencyDacOutput\000"
 3055      6F774672 
 3055      65717565 
 3055      6E637944 
 3055      61634F75 
 3056              		.ident	"GCC: (GNU Tools for ARM Embedded Processors) 5.4.1 20160609 (release) [ARM/embedded-5-bran
