ARM GAS  C:\Users\riveraes\AppData\Local\Temp\ccmEdq2f.s 			page 1


   1              		.syntax unified
   2              		.cpu cortex-m3
   3              		.fpu softvfp
   4              		.eabi_attribute 20, 1
   5              		.eabi_attribute 21, 1
   6              		.eabi_attribute 23, 3
   7              		.eabi_attribute 24, 1
   8              		.eabi_attribute 25, 1
   9              		.eabi_attribute 26, 1
  10              		.eabi_attribute 30, 6
  11              		.eabi_attribute 34, 1
  12              		.eabi_attribute 18, 4
  13              		.thumb
  14              		.syntax unified
  15              		.file	"main.c"
  16              		.text
  17              	.Ltext0:
  18              		.cfi_sections	.debug_frame
  19              		.comm	TransmitBuffer,16,4
  20              		.comm	Output,2,2
  21              		.comm	array,300,4
  22              		.global	loFrequency
  23              		.data
  24              		.align	2
  25              		.type	loFrequency, %object
  26              		.size	loFrequency, 20
  27              	loFrequency:
  28 0000 96000000 		.word	150
  29 0004 B9020000 		.word	697
  30 0008 02030000 		.word	770
  31 000c 54030000 		.word	852
  32 0010 AD030000 		.word	941
  33              		.global	hiFrequency
  34              		.align	2
  35              		.type	hiFrequency, %object
  36              		.size	hiFrequency, 16
  37              	hiFrequency:
  38 0014 96000000 		.word	150
  39 0018 B9040000 		.word	1209
  40 001c 38050000 		.word	1336
  41 0020 C5050000 		.word	1477
  42              		.global	terminalOutputEnable
  43              		.type	terminalOutputEnable, %object
  44              		.size	terminalOutputEnable, 1
  45              	terminalOutputEnable:
  46 0024 01       		.byte	1
  47              		.section	.text.Transmit,"ax",%progbits
  48              		.align	2
  49              		.global	Transmit
  50              		.thumb
  51              		.thumb_func
  52              		.type	Transmit, %function
  53              	Transmit:
  54              	.LFB64:
  55              		.file 1 "main.c"
   1:main.c        **** /******************************************************************************
   2:main.c        **** * Project Name		: DualToneMultiFrequency TX
ARM GAS  C:\Users\riveraes\AppData\Local\Temp\ccmEdq2f.s 			page 2


   3:main.c        **** * File Name			: main.c
   4:main.c        **** *
   5:main.c        **** *******************************************************************************/
   6:main.c        **** 
   7:main.c        **** #include <device.h>
   8:main.c        **** #include "stdio.h"
   9:main.c        **** #include "math.h"
  10:main.c        **** 
  11:main.c        **** /* Project Defines */
  12:main.c        **** #define FALSE  0
  13:main.c        **** #define TRUE   1
  14:main.c        **** #define TRANSMIT_BUFFER_SIZE  16
  15:main.c        **** #define NUMBER_OF_SAMPLES 150
  16:main.c        **** #define SAMPLING_RATE 10000
  17:main.c        **** #define LOW_FREQ_DAC_NUMBER_OF_SAMPLES 200
  18:main.c        **** #define HIGH_FREQ_DAC_NUMBER_OF_SAMPLES 300
  19:main.c        **** #define MASTER_CLOCK_FREQUENCY 24000000
  20:main.c        **** #define LOW_FREQUENCIES_ANALIZED 5
  21:main.c        **** #define HIGH_FREQUENCIES_ANALIZED 4
  22:main.c        **** 
  23:main.c        **** /* Transmit Buffer */
  24:main.c        **** char TransmitBuffer[TRANSMIT_BUFFER_SIZE];
  25:main.c        **** // Variables to store ADC data
  26:main.c        **** uint16 Output;
  27:main.c        **** int16 array[NUMBER_OF_SAMPLES];
  28:main.c        **** // DualTone Frequencies
  29:main.c        **** int loFrequency[LOW_FREQUENCIES_ANALIZED] = {150, 697, 770, 852, 941};
  30:main.c        **** int hiFrequency[HIGH_FREQUENCIES_ANALIZED] = {150, 1209, 1336, 1477};
  31:main.c        **** // Terminal output enable
  32:main.c        **** int8 terminalOutputEnable = TRUE;
  33:main.c        **** 
  34:main.c        **** // Function prototypes
  35:main.c        **** void InitSettings(void);
  36:main.c        **** void SetHighFrequencyDacOutput(int OutputFrequency);
  37:main.c        **** void SetLowFrequencyDacOutput(int OutputFrequency);
  38:main.c        **** double Goertzel(int numSamples, int tFrequency, int tSamplingRate, double data[]);
  39:main.c        **** uint16 getMaxValue(double arrayData[], uint8 size);
  40:main.c        **** void DTMF(void);
  41:main.c        **** void DecodeInput(int loFrequency, int hiFrecuency);
  42:main.c        **** 
  43:main.c        **** 
  44:main.c        **** /*******************************************************************************
  45:main.c        **** * Interrupt routine
  46:main.c        **** *******************************************************************************/
  47:main.c        **** CY_ISR(Transmit)
  48:main.c        **** {
  56              		.loc 1 48 0
  57              		.cfi_startproc
  58              		@ args = 0, pretend = 0, frame = 0
  59              		@ frame_needed = 1, uses_anonymous_args = 0
  60              		@ link register save eliminated.
  61 0000 80B4     		push	{r7}
  62              		.cfi_def_cfa_offset 4
  63              		.cfi_offset 7, -4
  64 0002 00AF     		add	r7, sp, #0
  65              		.cfi_def_cfa_register 7
  49:main.c        ****     // Not used
ARM GAS  C:\Users\riveraes\AppData\Local\Temp\ccmEdq2f.s 			page 3


  50:main.c        **** }
  66              		.loc 1 50 0
  67 0004 00BF     		nop
  68 0006 BD46     		mov	sp, r7
  69              		.cfi_def_cfa_register 13
  70              		@ sp needed
  71 0008 80BC     		pop	{r7}
  72              		.cfi_restore 7
  73              		.cfi_def_cfa_offset 0
  74 000a 7047     		bx	lr
  75              		.cfi_endproc
  76              	.LFE64:
  77              		.size	Transmit, .-Transmit
  78              		.section	.text.UserInput,"ax",%progbits
  79              		.align	2
  80              		.global	UserInput
  81              		.thumb
  82              		.thumb_func
  83              		.type	UserInput, %function
  84              	UserInput:
  85              	.LFB65:
  51:main.c        **** 
  52:main.c        **** 
  53:main.c        **** /*******************************************************************************
  54:main.c        **** * Interrupt routine
  55:main.c        **** *******************************************************************************/
  56:main.c        **** CY_ISR(UserInput)
  57:main.c        **** {
  86              		.loc 1 57 0
  87              		.cfi_startproc
  88              		@ args = 0, pretend = 0, frame = 0
  89              		@ frame_needed = 1, uses_anonymous_args = 0
  90              		@ link register save eliminated.
  91 0000 80B4     		push	{r7}
  92              		.cfi_def_cfa_offset 4
  93              		.cfi_offset 7, -4
  94 0002 00AF     		add	r7, sp, #0
  95              		.cfi_def_cfa_register 7
  58:main.c        ****     //UART_1_PutString("Input Detected!\r\n");
  59:main.c        **** }
  96              		.loc 1 59 0
  97 0004 00BF     		nop
  98 0006 BD46     		mov	sp, r7
  99              		.cfi_def_cfa_register 13
 100              		@ sp needed
 101 0008 80BC     		pop	{r7}
 102              		.cfi_restore 7
 103              		.cfi_def_cfa_offset 0
 104 000a 7047     		bx	lr
 105              		.cfi_endproc
 106              	.LFE65:
 107              		.size	UserInput, .-UserInput
 108              		.section	.rodata
 109              		.align	2
 110              	.LC0:
 111 0000 5258202D 		.ascii	"RX - Ready\015\012\000"
 111      20526561 
ARM GAS  C:\Users\riveraes\AppData\Local\Temp\ccmEdq2f.s 			page 4


 111      64790D0A 
 111      00
 112 000d 000000   		.align	2
 113              	.LC1:
 114 0010 300D0A00 		.ascii	"0\015\012\000"
 115              		.align	2
 116              	.LC2:
 117 0014 310D0A00 		.ascii	"1\015\012\000"
 118              		.align	2
 119              	.LC3:
 120 0018 320D0A00 		.ascii	"2\015\012\000"
 121              		.align	2
 122              	.LC4:
 123 001c 330D0A00 		.ascii	"3\015\012\000"
 124              		.align	2
 125              	.LC5:
 126 0020 340D0A00 		.ascii	"4\015\012\000"
 127              		.align	2
 128              	.LC6:
 129 0024 350D0A00 		.ascii	"5\015\012\000"
 130              		.align	2
 131              	.LC7:
 132 0028 360D0A00 		.ascii	"6\015\012\000"
 133              		.align	2
 134              	.LC8:
 135 002c 370D0A00 		.ascii	"7\015\012\000"
 136              		.align	2
 137              	.LC9:
 138 0030 380D0A00 		.ascii	"8\015\012\000"
 139              		.align	2
 140              	.LC10:
 141 0034 390D0A00 		.ascii	"9\015\012\000"
 142              		.align	2
 143              	.LC11:
 144 0038 2A0D0A00 		.ascii	"*\015\012\000"
 145              		.align	2
 146              	.LC12:
 147 003c 230D0A00 		.ascii	"#\015\012\000"
 148              		.align	2
 149              	.LC13:
 150 0040 2D2D2D2D 		.ascii	"-----> Samples Init\015\012\000"
 150      2D3E2053 
 150      616D706C 
 150      65732049 
 150      6E69740D 
 151 0056 0000     		.align	2
 152              	.LC14:
 153 0058 25640D0A 		.ascii	"%d\015\012\000"
 153      00
 154 005d 000000   		.align	2
 155              	.LC15:
 156 0060 2D2D2D2D 		.ascii	"-----> Samples End\015\012\000"
 156      2D3E2053 
 156      616D706C 
 156      65732045 
 156      6E640D0A 
 157 0075 000000   		.align	2
ARM GAS  C:\Users\riveraes\AppData\Local\Temp\ccmEdq2f.s 			page 5


 158              	.LC16:
 159 0078 44756D6D 		.ascii	"Dummy Frequency ...\015\012\000"
 159      79204672 
 159      65717565 
 159      6E637920 
 159      2E2E2E0D 
 160              		.section	.text.main,"ax",%progbits
 161              		.align	2
 162              		.global	main
 163              		.thumb
 164              		.thumb_func
 165              		.type	main, %function
 166              	main:
 167              	.LFB66:
  60:main.c        **** 
  61:main.c        **** 
  62:main.c        **** /*******************************************************************************
  63:main.c        **** * Function Name: main
  64:main.c        **** *******************************************************************************/
  65:main.c        **** int main()
  66:main.c        **** {
 168              		.loc 1 66 0
 169              		.cfi_startproc
 170              		@ args = 0, pretend = 0, frame = 8
 171              		@ frame_needed = 1, uses_anonymous_args = 0
 172 0000 80B5     		push	{r7, lr}
 173              		.cfi_def_cfa_offset 8
 174              		.cfi_offset 7, -8
 175              		.cfi_offset 14, -4
 176 0002 82B0     		sub	sp, sp, #8
 177              		.cfi_def_cfa_offset 16
 178 0004 00AF     		add	r7, sp, #0
 179              		.cfi_def_cfa_register 7
  67:main.c        ****     /* Variable to store UART received character */
  68:main.c        ****     uint8 Ch;
  69:main.c        ****     
  70:main.c        ****     /* Start the components */
  71:main.c        ****     ADC_DelSig_1_Start();
 180              		.loc 1 71 0
 181 0006 FFF7FEFF 		bl	ADC_DelSig_1_Start
  72:main.c        ****     UART_1_Start();
 182              		.loc 1 72 0
 183 000a FFF7FEFF 		bl	UART_1_Start
  73:main.c        ****         
  74:main.c        ****     /* Start the ADC conversion */
  75:main.c        ****     ADC_DelSig_1_StartConvert();
 184              		.loc 1 75 0
 185 000e FFF7FEFF 		bl	ADC_DelSig_1_StartConvert
  76:main.c        ****     
  77:main.c        ****     /* Send message to verify COM port is connected properly */
  78:main.c        ****     UART_1_PutString("RX - Ready\r\n");
 186              		.loc 1 78 0
 187 0012 DA48     		ldr	r0, .L32
 188 0014 FFF7FEFF 		bl	UART_1_PutString
  79:main.c        ****     
  80:main.c        ****     // Enable Interrupts
  81:main.c        ****     CyGlobalIntEnable;
ARM GAS  C:\Users\riveraes\AppData\Local\Temp\ccmEdq2f.s 			page 6


 189              		.loc 1 81 0
 190              		.syntax unified
 191              	@ 81 "main.c" 1
 192 0018 62B6     		CPSIE   i
 193              	@ 0 "" 2
  82:main.c        ****     
  83:main.c        ****     // Init Settings
  84:main.c        ****     // - Output dummy 4KHz sine wave
  85:main.c        ****     // - Turn off blue LED
  86:main.c        ****     InitSettings();  
 194              		.loc 1 86 0
 195              		.thumb
 196              		.syntax unified
 197 001a FFF7FEFF 		bl	InitSettings
 198              	.L30:
  87:main.c        ****     
  88:main.c        ****     for(;;)
  89:main.c        ****     {        
  90:main.c        ****         /* Non-blocking call to get the latest data recieved  */
  91:main.c        ****         //Ch = UART_1_GetChar();
  92:main.c        ****         Ch = 's';
 199              		.loc 1 92 0
 200 001e 7323     		movs	r3, #115
 201 0020 7B70     		strb	r3, [r7, #1]
  93:main.c        ****         
  94:main.c        ****         /* Set flags based on UART command */
  95:main.c        ****         switch(Ch)
 202              		.loc 1 95 0
 203 0022 7B78     		ldrb	r3, [r7, #1]	@ zero_extendqisi2
 204 0024 233B     		subs	r3, r3, #35
 205 0026 552B     		cmp	r3, #85
 206 0028 00F2D881 		bhi	.L31
 207 002c 01A2     		adr	r2, .L6
 208 002e 52F823F0 		ldr	pc, [r2, r3, lsl #2]
 209 0032 00BF     		.p2align 2
 210              	.L6:
 211 0034 95020000 		.word	.L5+1
 212 0038 DD030000 		.word	.L31+1
 213 003c DD030000 		.word	.L31+1
 214 0040 DD030000 		.word	.L31+1
 215 0044 DD030000 		.word	.L31+1
 216 0048 DD030000 		.word	.L31+1
 217 004c DD030000 		.word	.L31+1
 218 0050 7D020000 		.word	.L7+1
 219 0054 DD030000 		.word	.L31+1
 220 0058 DD030000 		.word	.L31+1
 221 005c DD030000 		.word	.L31+1
 222 0060 DD030000 		.word	.L31+1
 223 0064 DD030000 		.word	.L31+1
 224 0068 8D010000 		.word	.L8+1
 225 006c A5010000 		.word	.L9+1
 226 0070 BD010000 		.word	.L10+1
 227 0074 D5010000 		.word	.L11+1
 228 0078 ED010000 		.word	.L12+1
 229 007c 05020000 		.word	.L13+1
 230 0080 1D020000 		.word	.L14+1
 231 0084 35020000 		.word	.L15+1
ARM GAS  C:\Users\riveraes\AppData\Local\Temp\ccmEdq2f.s 			page 7


 232 0088 4D020000 		.word	.L16+1
 233 008c 65020000 		.word	.L17+1
 234 0090 DD030000 		.word	.L31+1
 235 0094 DD030000 		.word	.L31+1
 236 0098 DD030000 		.word	.L31+1
 237 009c DD030000 		.word	.L31+1
 238 00a0 DD030000 		.word	.L31+1
 239 00a4 DD030000 		.word	.L31+1
 240 00a8 DD030000 		.word	.L31+1
 241 00ac DD030000 		.word	.L31+1
 242 00b0 DD030000 		.word	.L31+1
 243 00b4 DD030000 		.word	.L31+1
 244 00b8 AD020000 		.word	.L18+1
 245 00bc DD030000 		.word	.L31+1
 246 00c0 DD030000 		.word	.L31+1
 247 00c4 DD030000 		.word	.L31+1
 248 00c8 DD030000 		.word	.L31+1
 249 00cc DD030000 		.word	.L31+1
 250 00d0 DD030000 		.word	.L31+1
 251 00d4 DD030000 		.word	.L31+1
 252 00d8 DD030000 		.word	.L31+1
 253 00dc DD030000 		.word	.L31+1
 254 00e0 DD030000 		.word	.L31+1
 255 00e4 DD030000 		.word	.L31+1
 256 00e8 DD030000 		.word	.L31+1
 257 00ec DD030000 		.word	.L31+1
 258 00f0 DD030000 		.word	.L31+1
 259 00f4 35030000 		.word	.L19+1
 260 00f8 DD030000 		.word	.L31+1
 261 00fc DD030000 		.word	.L31+1
 262 0100 DD030000 		.word	.L31+1
 263 0104 DD030000 		.word	.L31+1
 264 0108 C9030000 		.word	.L20+1
 265 010c DD030000 		.word	.L31+1
 266 0110 DD030000 		.word	.L31+1
 267 0114 DD030000 		.word	.L31+1
 268 0118 DD030000 		.word	.L31+1
 269 011c DD030000 		.word	.L31+1
 270 0120 DD030000 		.word	.L31+1
 271 0124 DD030000 		.word	.L31+1
 272 0128 DD030000 		.word	.L31+1
 273 012c DD030000 		.word	.L31+1
 274 0130 DD030000 		.word	.L31+1
 275 0134 DD030000 		.word	.L31+1
 276 0138 AD020000 		.word	.L18+1
 277 013c DD030000 		.word	.L31+1
 278 0140 DD030000 		.word	.L31+1
 279 0144 DD030000 		.word	.L31+1
 280 0148 DD030000 		.word	.L31+1
 281 014c DD030000 		.word	.L31+1
 282 0150 DD030000 		.word	.L31+1
 283 0154 DD030000 		.word	.L31+1
 284 0158 DD030000 		.word	.L31+1
 285 015c DD030000 		.word	.L31+1
 286 0160 DD030000 		.word	.L31+1
 287 0164 DD030000 		.word	.L31+1
 288 0168 DD030000 		.word	.L31+1
ARM GAS  C:\Users\riveraes\AppData\Local\Temp\ccmEdq2f.s 			page 8


 289 016c DD030000 		.word	.L31+1
 290 0170 DD030000 		.word	.L31+1
 291 0174 35030000 		.word	.L19+1
 292 0178 DD030000 		.word	.L31+1
 293 017c DD030000 		.word	.L31+1
 294 0180 DD030000 		.word	.L31+1
 295 0184 DD030000 		.word	.L31+1
 296 0188 C9030000 		.word	.L20+1
 297              		.p2align 1
 298              	.L8:
  96:main.c        ****         {
  97:main.c        ****             case '0':
  98:main.c        ****                 UART_1_PutString("0\r\n");
 299              		.loc 1 98 0
 300 018c 7C48     		ldr	r0, .L32+4
 301 018e FFF7FEFF 		bl	UART_1_PutString
  99:main.c        ****                 SetLowFrequencyDacOutput(941);
 302              		.loc 1 99 0
 303 0192 40F2AD30 		movw	r0, #941
 304 0196 FFF7FEFF 		bl	SetLowFrequencyDacOutput
 100:main.c        ****                 SetHighFrequencyDacOutput(1336);
 305              		.loc 1 100 0
 306 019a 4FF4A760 		mov	r0, #1336
 307 019e FFF7FEFF 		bl	SetHighFrequencyDacOutput
 101:main.c        ****                 
 102:main.c        ****                 break;
 308              		.loc 1 102 0
 309 01a2 1CE1     		b	.L21
 310              	.L9:
 103:main.c        ****                 
 104:main.c        ****             case '1':
 105:main.c        ****                 UART_1_PutString("1\r\n");
 311              		.loc 1 105 0
 312 01a4 7748     		ldr	r0, .L32+8
 313 01a6 FFF7FEFF 		bl	UART_1_PutString
 106:main.c        ****                 SetLowFrequencyDacOutput(697);
 314              		.loc 1 106 0
 315 01aa 40F2B920 		movw	r0, #697
 316 01ae FFF7FEFF 		bl	SetLowFrequencyDacOutput
 107:main.c        ****                 SetHighFrequencyDacOutput(1209);
 317              		.loc 1 107 0
 318 01b2 40F2B940 		movw	r0, #1209
 319 01b6 FFF7FEFF 		bl	SetHighFrequencyDacOutput
 108:main.c        ****                 
 109:main.c        ****                 break;
 320              		.loc 1 109 0
 321 01ba 10E1     		b	.L21
 322              	.L10:
 110:main.c        ****                 
 111:main.c        ****             case '2':
 112:main.c        ****                 UART_1_PutString("2\r\n");
 323              		.loc 1 112 0
 324 01bc 7248     		ldr	r0, .L32+12
 325 01be FFF7FEFF 		bl	UART_1_PutString
 113:main.c        ****                 SetLowFrequencyDacOutput(697);
 326              		.loc 1 113 0
 327 01c2 40F2B920 		movw	r0, #697
ARM GAS  C:\Users\riveraes\AppData\Local\Temp\ccmEdq2f.s 			page 9


 328 01c6 FFF7FEFF 		bl	SetLowFrequencyDacOutput
 114:main.c        ****                 SetHighFrequencyDacOutput(1336);
 329              		.loc 1 114 0
 330 01ca 4FF4A760 		mov	r0, #1336
 331 01ce FFF7FEFF 		bl	SetHighFrequencyDacOutput
 115:main.c        ****                 
 116:main.c        ****                 break;
 332              		.loc 1 116 0
 333 01d2 04E1     		b	.L21
 334              	.L11:
 117:main.c        ****                 
 118:main.c        ****             case '3':
 119:main.c        ****                 UART_1_PutString("3\r\n");
 335              		.loc 1 119 0
 336 01d4 6D48     		ldr	r0, .L32+16
 337 01d6 FFF7FEFF 		bl	UART_1_PutString
 120:main.c        ****                 SetLowFrequencyDacOutput(697);
 338              		.loc 1 120 0
 339 01da 40F2B920 		movw	r0, #697
 340 01de FFF7FEFF 		bl	SetLowFrequencyDacOutput
 121:main.c        ****                 SetHighFrequencyDacOutput(1477);
 341              		.loc 1 121 0
 342 01e2 40F2C550 		movw	r0, #1477
 343 01e6 FFF7FEFF 		bl	SetHighFrequencyDacOutput
 122:main.c        ****                 
 123:main.c        ****                 break;
 344              		.loc 1 123 0
 345 01ea F8E0     		b	.L21
 346              	.L12:
 124:main.c        ****                 
 125:main.c        ****             case '4':
 126:main.c        ****                 UART_1_PutString("4\r\n");
 347              		.loc 1 126 0
 348 01ec 6848     		ldr	r0, .L32+20
 349 01ee FFF7FEFF 		bl	UART_1_PutString
 127:main.c        ****                 SetLowFrequencyDacOutput(770);
 350              		.loc 1 127 0
 351 01f2 40F20230 		movw	r0, #770
 352 01f6 FFF7FEFF 		bl	SetLowFrequencyDacOutput
 128:main.c        ****                 SetHighFrequencyDacOutput(1209);
 353              		.loc 1 128 0
 354 01fa 40F2B940 		movw	r0, #1209
 355 01fe FFF7FEFF 		bl	SetHighFrequencyDacOutput
 129:main.c        ****                 
 130:main.c        ****                 break;
 356              		.loc 1 130 0
 357 0202 ECE0     		b	.L21
 358              	.L13:
 131:main.c        ****                 
 132:main.c        ****             case '5':
 133:main.c        ****                 UART_1_PutString("5\r\n");
 359              		.loc 1 133 0
 360 0204 6348     		ldr	r0, .L32+24
 361 0206 FFF7FEFF 		bl	UART_1_PutString
 134:main.c        ****                 SetLowFrequencyDacOutput(770);
 362              		.loc 1 134 0
 363 020a 40F20230 		movw	r0, #770
ARM GAS  C:\Users\riveraes\AppData\Local\Temp\ccmEdq2f.s 			page 10


 364 020e FFF7FEFF 		bl	SetLowFrequencyDacOutput
 135:main.c        ****                 SetHighFrequencyDacOutput(1336);
 365              		.loc 1 135 0
 366 0212 4FF4A760 		mov	r0, #1336
 367 0216 FFF7FEFF 		bl	SetHighFrequencyDacOutput
 136:main.c        ****                 
 137:main.c        ****                 break;
 368              		.loc 1 137 0
 369 021a E0E0     		b	.L21
 370              	.L14:
 138:main.c        ****                 
 139:main.c        ****             case '6':
 140:main.c        ****                 UART_1_PutString("6\r\n");
 371              		.loc 1 140 0
 372 021c 5E48     		ldr	r0, .L32+28
 373 021e FFF7FEFF 		bl	UART_1_PutString
 141:main.c        ****                 SetLowFrequencyDacOutput(770);
 374              		.loc 1 141 0
 375 0222 40F20230 		movw	r0, #770
 376 0226 FFF7FEFF 		bl	SetLowFrequencyDacOutput
 142:main.c        ****                 SetHighFrequencyDacOutput(1477);
 377              		.loc 1 142 0
 378 022a 40F2C550 		movw	r0, #1477
 379 022e FFF7FEFF 		bl	SetHighFrequencyDacOutput
 143:main.c        ****                 
 144:main.c        ****                 break;
 380              		.loc 1 144 0
 381 0232 D4E0     		b	.L21
 382              	.L15:
 145:main.c        ****                 
 146:main.c        ****             case '7':
 147:main.c        ****                 UART_1_PutString("7\r\n");
 383              		.loc 1 147 0
 384 0234 5948     		ldr	r0, .L32+32
 385 0236 FFF7FEFF 		bl	UART_1_PutString
 148:main.c        ****                 SetLowFrequencyDacOutput(852);
 386              		.loc 1 148 0
 387 023a 4FF45570 		mov	r0, #852
 388 023e FFF7FEFF 		bl	SetLowFrequencyDacOutput
 149:main.c        ****                 SetHighFrequencyDacOutput(1209);
 389              		.loc 1 149 0
 390 0242 40F2B940 		movw	r0, #1209
 391 0246 FFF7FEFF 		bl	SetHighFrequencyDacOutput
 150:main.c        ****                 
 151:main.c        ****                 break;
 392              		.loc 1 151 0
 393 024a C8E0     		b	.L21
 394              	.L16:
 152:main.c        ****                 
 153:main.c        ****             case '8':
 154:main.c        ****                 UART_1_PutString("8\r\n");
 395              		.loc 1 154 0
 396 024c 5448     		ldr	r0, .L32+36
 397 024e FFF7FEFF 		bl	UART_1_PutString
 155:main.c        ****                 SetLowFrequencyDacOutput(852);
 398              		.loc 1 155 0
 399 0252 4FF45570 		mov	r0, #852
ARM GAS  C:\Users\riveraes\AppData\Local\Temp\ccmEdq2f.s 			page 11


 400 0256 FFF7FEFF 		bl	SetLowFrequencyDacOutput
 156:main.c        ****                 SetHighFrequencyDacOutput(1336);
 401              		.loc 1 156 0
 402 025a 4FF4A760 		mov	r0, #1336
 403 025e FFF7FEFF 		bl	SetHighFrequencyDacOutput
 157:main.c        ****                 
 158:main.c        ****                 break;
 404              		.loc 1 158 0
 405 0262 BCE0     		b	.L21
 406              	.L17:
 159:main.c        ****                 
 160:main.c        ****             case '9':
 161:main.c        ****                 UART_1_PutString("9\r\n");
 407              		.loc 1 161 0
 408 0264 4F48     		ldr	r0, .L32+40
 409 0266 FFF7FEFF 		bl	UART_1_PutString
 162:main.c        ****                 SetLowFrequencyDacOutput(852);
 410              		.loc 1 162 0
 411 026a 4FF45570 		mov	r0, #852
 412 026e FFF7FEFF 		bl	SetLowFrequencyDacOutput
 163:main.c        ****                 SetHighFrequencyDacOutput(1477);
 413              		.loc 1 163 0
 414 0272 40F2C550 		movw	r0, #1477
 415 0276 FFF7FEFF 		bl	SetHighFrequencyDacOutput
 164:main.c        ****                 
 165:main.c        ****                 break;
 416              		.loc 1 165 0
 417 027a B0E0     		b	.L21
 418              	.L7:
 166:main.c        ****                 
 167:main.c        ****             case '*':
 168:main.c        ****                 UART_1_PutString("*\r\n");
 419              		.loc 1 168 0
 420 027c 4A48     		ldr	r0, .L32+44
 421 027e FFF7FEFF 		bl	UART_1_PutString
 169:main.c        ****                 SetLowFrequencyDacOutput(941);
 422              		.loc 1 169 0
 423 0282 40F2AD30 		movw	r0, #941
 424 0286 FFF7FEFF 		bl	SetLowFrequencyDacOutput
 170:main.c        ****                 SetHighFrequencyDacOutput(1209);
 425              		.loc 1 170 0
 426 028a 40F2B940 		movw	r0, #1209
 427 028e FFF7FEFF 		bl	SetHighFrequencyDacOutput
 171:main.c        ****                 
 172:main.c        ****                 break;
 428              		.loc 1 172 0
 429 0292 A4E0     		b	.L21
 430              	.L5:
 173:main.c        ****                 
 174:main.c        ****             case '#':
 175:main.c        ****                 UART_1_PutString("#\r\n");
 431              		.loc 1 175 0
 432 0294 4548     		ldr	r0, .L32+48
 433 0296 FFF7FEFF 		bl	UART_1_PutString
 176:main.c        ****                 SetLowFrequencyDacOutput(941);
 434              		.loc 1 176 0
 435 029a 40F2AD30 		movw	r0, #941
ARM GAS  C:\Users\riveraes\AppData\Local\Temp\ccmEdq2f.s 			page 12


 436 029e FFF7FEFF 		bl	SetLowFrequencyDacOutput
 177:main.c        ****                 SetHighFrequencyDacOutput(1477);
 437              		.loc 1 177 0
 438 02a2 40F2C550 		movw	r0, #1477
 439 02a6 FFF7FEFF 		bl	SetHighFrequencyDacOutput
 178:main.c        ****                 
 179:main.c        ****                 break;
 440              		.loc 1 179 0
 441 02aa 98E0     		b	.L21
 442              	.L18:
 443              	.LBB2:
 180:main.c        ****             
 181:main.c        ****             case 'D':
 182:main.c        ****             case 'd':
 183:main.c        ****                 //Get Samples
 184:main.c        ****                 for (int16 sampleNumber = 0; sampleNumber < NUMBER_OF_SAMPLES; sampleNumber += 0)
 444              		.loc 1 184 0
 445 02ac 0023     		movs	r3, #0
 446 02ae FB80     		strh	r3, [r7, #6]	@ movhi
 447 02b0 19E0     		b	.L22
 448              	.L24:
 185:main.c        ****                 {                 
 186:main.c        ****                     /* Check to see if an ADC conversion has completed */
 187:main.c        ****                     if(ADC_DelSig_1_IsEndConversion(ADC_DelSig_1_RETURN_STATUS))
 449              		.loc 1 187 0
 450 02b2 0120     		movs	r0, #1
 451 02b4 FFF7FEFF 		bl	ADC_DelSig_1_IsEndConversion
 452 02b8 0346     		mov	r3, r0
 453 02ba 002B     		cmp	r3, #0
 454 02bc 13D0     		beq	.L22
 188:main.c        ****                     {
 189:main.c        ****                         Output = ADC_DelSig_1_GetResult16();
 455              		.loc 1 189 0
 456 02be FFF7FEFF 		bl	ADC_DelSig_1_GetResult16
 457 02c2 0346     		mov	r3, r0
 458 02c4 9AB2     		uxth	r2, r3
 459 02c6 3A4B     		ldr	r3, .L32+52
 460 02c8 1A80     		strh	r2, [r3]	@ movhi
 190:main.c        ****                         array[sampleNumber] = Output;                       
 461              		.loc 1 190 0
 462 02ca B7F90630 		ldrsh	r3, [r7, #6]
 463 02ce 384A     		ldr	r2, .L32+52
 464 02d0 1288     		ldrh	r2, [r2]
 465 02d2 11B2     		sxth	r1, r2
 466 02d4 374A     		ldr	r2, .L32+56
 467 02d6 22F81310 		strh	r1, [r2, r3, lsl #1]	@ movhi
 191:main.c        ****                         sampleNumber ++;
 468              		.loc 1 191 0
 469 02da B7F90630 		ldrsh	r3, [r7, #6]
 470 02de 9BB2     		uxth	r3, r3
 471 02e0 0133     		adds	r3, r3, #1
 472 02e2 9BB2     		uxth	r3, r3
 473 02e4 FB80     		strh	r3, [r7, #6]	@ movhi
 474              	.L22:
 184:main.c        ****                 {                 
 475              		.loc 1 184 0 discriminator 1
 476 02e6 B7F90630 		ldrsh	r3, [r7, #6]
ARM GAS  C:\Users\riveraes\AppData\Local\Temp\ccmEdq2f.s 			page 13


 477 02ea 952B     		cmp	r3, #149
 478 02ec E1DD     		ble	.L24
 479              	.LBE2:
 192:main.c        ****                     }
 193:main.c        ****                 }
 194:main.c        ****                 
 195:main.c        ****                 // Print samples
 196:main.c        ****                 UART_1_PutString("-----> Samples Init\r\n");
 480              		.loc 1 196 0
 481 02ee 3248     		ldr	r0, .L32+60
 482 02f0 FFF7FEFF 		bl	UART_1_PutString
 483              	.LBB3:
 197:main.c        ****                 for (int16 sampleNumber = 0; sampleNumber < NUMBER_OF_SAMPLES; sampleNumber ++)
 484              		.loc 1 197 0
 485 02f4 0023     		movs	r3, #0
 486 02f6 BB80     		strh	r3, [r7, #4]	@ movhi
 487 02f8 12E0     		b	.L25
 488              	.L26:
 198:main.c        ****                 {
 199:main.c        ****                     sprintf(TransmitBuffer, "%d\r\n", array[sampleNumber]);
 489              		.loc 1 199 0 discriminator 3
 490 02fa B7F90430 		ldrsh	r3, [r7, #4]
 491 02fe 2D4A     		ldr	r2, .L32+56
 492 0300 32F91330 		ldrsh	r3, [r2, r3, lsl #1]
 493 0304 1A46     		mov	r2, r3
 494 0306 2D49     		ldr	r1, .L32+64
 495 0308 2D48     		ldr	r0, .L32+68
 496 030a FFF7FEFF 		bl	sprintf
 200:main.c        ****                     UART_1_PutString(TransmitBuffer);
 497              		.loc 1 200 0 discriminator 3
 498 030e 2C48     		ldr	r0, .L32+68
 499 0310 FFF7FEFF 		bl	UART_1_PutString
 197:main.c        ****                 for (int16 sampleNumber = 0; sampleNumber < NUMBER_OF_SAMPLES; sampleNumber ++)
 500              		.loc 1 197 0 discriminator 3
 501 0314 B7F90430 		ldrsh	r3, [r7, #4]
 502 0318 9BB2     		uxth	r3, r3
 503 031a 0133     		adds	r3, r3, #1
 504 031c 9BB2     		uxth	r3, r3
 505 031e BB80     		strh	r3, [r7, #4]	@ movhi
 506              	.L25:
 197:main.c        ****                 for (int16 sampleNumber = 0; sampleNumber < NUMBER_OF_SAMPLES; sampleNumber ++)
 507              		.loc 1 197 0 is_stmt 0 discriminator 1
 508 0320 B7F90430 		ldrsh	r3, [r7, #4]
 509 0324 952B     		cmp	r3, #149
 510 0326 E8DD     		ble	.L26
 511              	.LBE3:
 201:main.c        ****                 }
 202:main.c        ****                 UART_1_PutString("-----> Samples End\r\n");
 512              		.loc 1 202 0 is_stmt 1
 513 0328 2648     		ldr	r0, .L32+72
 514 032a FFF7FEFF 		bl	UART_1_PutString
 203:main.c        ****                 
 204:main.c        ****                 // Decode data              
 205:main.c        ****                 DTMF();            
 515              		.loc 1 205 0
 516 032e FFF7FEFF 		bl	DTMF
 206:main.c        ****                 
ARM GAS  C:\Users\riveraes\AppData\Local\Temp\ccmEdq2f.s 			page 14


 207:main.c        ****                 break;
 517              		.loc 1 207 0
 518 0332 54E0     		b	.L21
 519              	.L19:
 520              	.LBB4:
 208:main.c        ****                 
 209:main.c        ****             case 'S':
 210:main.c        ****             case 's':
 211:main.c        ****                 //Get Samples
 212:main.c        ****                 for (int16 sampleNumber = 0; sampleNumber < NUMBER_OF_SAMPLES; sampleNumber += 0)
 521              		.loc 1 212 0
 522 0334 0023     		movs	r3, #0
 523 0336 7B80     		strh	r3, [r7, #2]	@ movhi
 524 0338 19E0     		b	.L27
 525              	.L29:
 213:main.c        ****                 {                 
 214:main.c        ****                     /* Check to see if an ADC conversion has completed */
 215:main.c        ****                     if(ADC_DelSig_1_IsEndConversion(ADC_DelSig_1_RETURN_STATUS))
 526              		.loc 1 215 0
 527 033a 0120     		movs	r0, #1
 528 033c FFF7FEFF 		bl	ADC_DelSig_1_IsEndConversion
 529 0340 0346     		mov	r3, r0
 530 0342 002B     		cmp	r3, #0
 531 0344 13D0     		beq	.L27
 216:main.c        ****                     {
 217:main.c        ****                         Output = ADC_DelSig_1_GetResult16();
 532              		.loc 1 217 0
 533 0346 FFF7FEFF 		bl	ADC_DelSig_1_GetResult16
 534 034a 0346     		mov	r3, r0
 535 034c 9AB2     		uxth	r2, r3
 536 034e 184B     		ldr	r3, .L32+52
 537 0350 1A80     		strh	r2, [r3]	@ movhi
 218:main.c        ****                         array[sampleNumber] = Output;                       
 538              		.loc 1 218 0
 539 0352 B7F90230 		ldrsh	r3, [r7, #2]
 540 0356 164A     		ldr	r2, .L32+52
 541 0358 1288     		ldrh	r2, [r2]
 542 035a 11B2     		sxth	r1, r2
 543 035c 154A     		ldr	r2, .L32+56
 544 035e 22F81310 		strh	r1, [r2, r3, lsl #1]	@ movhi
 219:main.c        ****                         sampleNumber ++;
 545              		.loc 1 219 0
 546 0362 B7F90230 		ldrsh	r3, [r7, #2]
 547 0366 9BB2     		uxth	r3, r3
 548 0368 0133     		adds	r3, r3, #1
 549 036a 9BB2     		uxth	r3, r3
 550 036c 7B80     		strh	r3, [r7, #2]	@ movhi
 551              	.L27:
 212:main.c        ****                 {                 
 552              		.loc 1 212 0 discriminator 1
 553 036e B7F90230 		ldrsh	r3, [r7, #2]
 554 0372 952B     		cmp	r3, #149
 555 0374 E1DD     		ble	.L29
 556              	.LBE4:
 220:main.c        ****                     }
 221:main.c        ****                 }
 222:main.c        ****                 
ARM GAS  C:\Users\riveraes\AppData\Local\Temp\ccmEdq2f.s 			page 15


 223:main.c        ****                 // Decode data              
 224:main.c        ****                 DTMF();              
 557              		.loc 1 224 0
 558 0376 FFF7FEFF 		bl	DTMF
 225:main.c        ****                 
 226:main.c        ****                 break;
 559              		.loc 1 226 0
 560 037a 30E0     		b	.L21
 561              	.L33:
 562              		.align	2
 563              	.L32:
 564 037c 00000000 		.word	.LC0
 565 0380 10000000 		.word	.LC1
 566 0384 14000000 		.word	.LC2
 567 0388 18000000 		.word	.LC3
 568 038c 1C000000 		.word	.LC4
 569 0390 20000000 		.word	.LC5
 570 0394 24000000 		.word	.LC6
 571 0398 28000000 		.word	.LC7
 572 039c 2C000000 		.word	.LC8
 573 03a0 30000000 		.word	.LC9
 574 03a4 34000000 		.word	.LC10
 575 03a8 38000000 		.word	.LC11
 576 03ac 3C000000 		.word	.LC12
 577 03b0 00000000 		.word	Output
 578 03b4 00000000 		.word	array
 579 03b8 40000000 		.word	.LC13
 580 03bc 58000000 		.word	.LC14
 581 03c0 00000000 		.word	TransmitBuffer
 582 03c4 60000000 		.word	.LC15
 583              	.L20:
 227:main.c        ****             
 228:main.c        ****             case 'X':    
 229:main.c        ****             case 'x':
 230:main.c        ****                 UART_1_PutString("Dummy Frequency ...\r\n");                             
 584              		.loc 1 230 0
 585 03c8 0548     		ldr	r0, .L34
 586 03ca FFF7FEFF 		bl	UART_1_PutString
 231:main.c        ****                 SetLowFrequencyDacOutput(150);
 587              		.loc 1 231 0
 588 03ce 9620     		movs	r0, #150
 589 03d0 FFF7FEFF 		bl	SetLowFrequencyDacOutput
 232:main.c        ****                 SetHighFrequencyDacOutput(150);
 590              		.loc 1 232 0
 591 03d4 9620     		movs	r0, #150
 592 03d6 FFF7FEFF 		bl	SetHighFrequencyDacOutput
 233:main.c        ****                 
 234:main.c        ****                 break;
 593              		.loc 1 234 0
 594 03da 00E0     		b	.L21
 595              	.L31:
 235:main.c        ****                 
 236:main.c        ****             default:
 237:main.c        ****                 /* Place error handling code here */
 238:main.c        ****                 break;    
 596              		.loc 1 238 0
 597 03dc 00BF     		nop
ARM GAS  C:\Users\riveraes\AppData\Local\Temp\ccmEdq2f.s 			page 16


 598              	.L21:
 239:main.c        ****         }
 240:main.c        ****         
 241:main.c        ****     }
 599              		.loc 1 241 0 discriminator 1
 600 03de 1EE6     		b	.L30
 601              	.L35:
 602              		.align	2
 603              	.L34:
 604 03e0 78000000 		.word	.LC16
 605              		.cfi_endproc
 606              	.LFE66:
 607              		.size	main, .-main
 608              		.global	__aeabi_i2d
 609              		.global	__aeabi_ddiv
 610              		.global	__aeabi_d2iz
 611              		.section	.text.SetHighFrequencyDacOutput,"ax",%progbits
 612              		.align	2
 613              		.global	SetHighFrequencyDacOutput
 614              		.thumb
 615              		.thumb_func
 616              		.type	SetHighFrequencyDacOutput, %function
 617              	SetHighFrequencyDacOutput:
 618              	.LFB67:
 242:main.c        **** }
 243:main.c        **** 
 244:main.c        **** /*******************************************************************************
 245:main.c        **** * Function - Init Settings
 246:main.c        **** *******************************************************************************/
 247:main.c        **** void SetHighFrequencyDacOutput(int OutputFrequency)
 248:main.c        **** {   
 619              		.loc 1 248 0
 620              		.cfi_startproc
 621              		@ args = 0, pretend = 0, frame = 24
 622              		@ frame_needed = 1, uses_anonymous_args = 0
 623 0000 90B5     		push	{r4, r7, lr}
 624              		.cfi_def_cfa_offset 12
 625              		.cfi_offset 4, -12
 626              		.cfi_offset 7, -8
 627              		.cfi_offset 14, -4
 628 0002 87B0     		sub	sp, sp, #28
 629              		.cfi_def_cfa_offset 40
 630 0004 00AF     		add	r7, sp, #0
 631              		.cfi_def_cfa_register 7
 632 0006 7860     		str	r0, [r7, #4]
 249:main.c        ****     double KSPS = HIGH_FREQ_DAC_NUMBER_OF_SAMPLES * OutputFrequency;
 633              		.loc 1 249 0
 634 0008 7B68     		ldr	r3, [r7, #4]
 635 000a 4FF49672 		mov	r2, #300
 636 000e 02FB03F3 		mul	r3, r2, r3
 637 0012 1846     		mov	r0, r3
 638 0014 FFF7FEFF 		bl	__aeabi_i2d
 639 0018 0346     		mov	r3, r0
 640 001a 0C46     		mov	r4, r1
 641 001c C7E90434 		strd	r3, [r7, #16]
 250:main.c        ****     double ClockDivider = MASTER_CLOCK_FREQUENCY / KSPS;
 642              		.loc 1 250 0
ARM GAS  C:\Users\riveraes\AppData\Local\Temp\ccmEdq2f.s 			page 17


 643 0020 D7E90423 		ldrd	r2, [r7, #16]
 644 0024 0CA1     		adr	r1, .L37
 645 0026 D1E90001 		ldrd	r0, [r1]
 646 002a FFF7FEFF 		bl	__aeabi_ddiv
 647 002e 0346     		mov	r3, r0
 648 0030 0C46     		mov	r4, r1
 649 0032 C7E90234 		strd	r3, [r7, #8]
 251:main.c        ****     HF_DAC_CLK_SetDividerValue((int)ClockDivider);
 650              		.loc 1 251 0
 651 0036 D7E90201 		ldrd	r0, [r7, #8]
 652 003a FFF7FEFF 		bl	__aeabi_d2iz
 653 003e 0346     		mov	r3, r0
 654 0040 9BB2     		uxth	r3, r3
 655 0042 013B     		subs	r3, r3, #1
 656 0044 9BB2     		uxth	r3, r3
 657 0046 0121     		movs	r1, #1
 658 0048 1846     		mov	r0, r3
 659 004a FFF7FEFF 		bl	HF_DAC_CLK_SetDividerRegister
 252:main.c        **** }
 660              		.loc 1 252 0
 661 004e 00BF     		nop
 662 0050 1C37     		adds	r7, r7, #28
 663              		.cfi_def_cfa_offset 12
 664 0052 BD46     		mov	sp, r7
 665              		.cfi_def_cfa_register 13
 666              		@ sp needed
 667 0054 90BD     		pop	{r4, r7, pc}
 668              	.L38:
 669 0056 00BF     		.align	3
 670              	.L37:
 671 0058 00000000 		.word	0
 672 005c 60E37641 		.word	1098310496
 673              		.cfi_endproc
 674              	.LFE67:
 675              		.size	SetHighFrequencyDacOutput, .-SetHighFrequencyDacOutput
 676              		.section	.text.SetLowFrequencyDacOutput,"ax",%progbits
 677              		.align	2
 678              		.global	SetLowFrequencyDacOutput
 679              		.thumb
 680              		.thumb_func
 681              		.type	SetLowFrequencyDacOutput, %function
 682              	SetLowFrequencyDacOutput:
 683              	.LFB68:
 253:main.c        **** 
 254:main.c        **** /*******************************************************************************
 255:main.c        **** * Function - Init Settings
 256:main.c        **** *******************************************************************************/
 257:main.c        **** void SetLowFrequencyDacOutput(int OutputFrequency)
 258:main.c        **** {   
 684              		.loc 1 258 0
 685              		.cfi_startproc
 686              		@ args = 0, pretend = 0, frame = 24
 687              		@ frame_needed = 1, uses_anonymous_args = 0
 688 0000 90B5     		push	{r4, r7, lr}
 689              		.cfi_def_cfa_offset 12
 690              		.cfi_offset 4, -12
 691              		.cfi_offset 7, -8
ARM GAS  C:\Users\riveraes\AppData\Local\Temp\ccmEdq2f.s 			page 18


 692              		.cfi_offset 14, -4
 693 0002 87B0     		sub	sp, sp, #28
 694              		.cfi_def_cfa_offset 40
 695 0004 00AF     		add	r7, sp, #0
 696              		.cfi_def_cfa_register 7
 697 0006 7860     		str	r0, [r7, #4]
 259:main.c        ****     double KSPS = LOW_FREQ_DAC_NUMBER_OF_SAMPLES * OutputFrequency; 
 698              		.loc 1 259 0
 699 0008 7B68     		ldr	r3, [r7, #4]
 700 000a C822     		movs	r2, #200
 701 000c 02FB03F3 		mul	r3, r2, r3
 702 0010 1846     		mov	r0, r3
 703 0012 FFF7FEFF 		bl	__aeabi_i2d
 704 0016 0346     		mov	r3, r0
 705 0018 0C46     		mov	r4, r1
 706 001a C7E90434 		strd	r3, [r7, #16]
 260:main.c        ****     double ClockDivider = MASTER_CLOCK_FREQUENCY / KSPS;
 707              		.loc 1 260 0
 708 001e D7E90423 		ldrd	r2, [r7, #16]
 709 0022 0DA1     		adr	r1, .L40
 710 0024 D1E90001 		ldrd	r0, [r1]
 711 0028 FFF7FEFF 		bl	__aeabi_ddiv
 712 002c 0346     		mov	r3, r0
 713 002e 0C46     		mov	r4, r1
 714 0030 C7E90234 		strd	r3, [r7, #8]
 261:main.c        ****     LF_DAC_CLK_SetDividerValue((int)ClockDivider);
 715              		.loc 1 261 0
 716 0034 D7E90201 		ldrd	r0, [r7, #8]
 717 0038 FFF7FEFF 		bl	__aeabi_d2iz
 718 003c 0346     		mov	r3, r0
 719 003e 9BB2     		uxth	r3, r3
 720 0040 013B     		subs	r3, r3, #1
 721 0042 9BB2     		uxth	r3, r3
 722 0044 0121     		movs	r1, #1
 723 0046 1846     		mov	r0, r3
 724 0048 FFF7FEFF 		bl	LF_DAC_CLK_SetDividerRegister
 262:main.c        **** }
 725              		.loc 1 262 0
 726 004c 00BF     		nop
 727 004e 1C37     		adds	r7, r7, #28
 728              		.cfi_def_cfa_offset 12
 729 0050 BD46     		mov	sp, r7
 730              		.cfi_def_cfa_register 13
 731              		@ sp needed
 732 0052 90BD     		pop	{r4, r7, pc}
 733              	.L41:
 734 0054 AFF30080 		.align	3
 735              	.L40:
 736 0058 00000000 		.word	0
 737 005c 60E37641 		.word	1098310496
 738              		.cfi_endproc
 739              	.LFE68:
 740              		.size	SetLowFrequencyDacOutput, .-SetLowFrequencyDacOutput
 741              		.section	.text.InitSettings,"ax",%progbits
 742              		.align	2
 743              		.global	InitSettings
 744              		.thumb
ARM GAS  C:\Users\riveraes\AppData\Local\Temp\ccmEdq2f.s 			page 19


 745              		.thumb_func
 746              		.type	InitSettings, %function
 747              	InitSettings:
 748              	.LFB69:
 263:main.c        **** 
 264:main.c        **** /*******************************************************************************
 265:main.c        **** * Function - Init Settings
 266:main.c        **** *******************************************************************************/
 267:main.c        **** void InitSettings(void)
 268:main.c        **** {   
 749              		.loc 1 268 0
 750              		.cfi_startproc
 751              		@ args = 0, pretend = 0, frame = 0
 752              		@ frame_needed = 1, uses_anonymous_args = 0
 753 0000 80B5     		push	{r7, lr}
 754              		.cfi_def_cfa_offset 8
 755              		.cfi_offset 7, -8
 756              		.cfi_offset 14, -4
 757 0002 00AF     		add	r7, sp, #0
 758              		.cfi_def_cfa_register 7
 269:main.c        ****     // Configure Muxes
 270:main.c        ****     HF_SW1_Write(0);    
 759              		.loc 1 270 0
 760 0004 0020     		movs	r0, #0
 761 0006 FFF7FEFF 		bl	HF_SW1_Write
 271:main.c        ****     LF_SW1_Write(0);
 762              		.loc 1 271 0
 763 000a 0020     		movs	r0, #0
 764 000c FFF7FEFF 		bl	LF_SW1_Write
 272:main.c        ****     
 273:main.c        ****     // Configure DAC's external clocks
 274:main.c        ****     SetLowFrequencyDacOutput(150);
 765              		.loc 1 274 0
 766 0010 9620     		movs	r0, #150
 767 0012 FFF7FEFF 		bl	SetLowFrequencyDacOutput
 275:main.c        ****     SetHighFrequencyDacOutput(150);
 768              		.loc 1 275 0
 769 0016 9620     		movs	r0, #150
 770 0018 FFF7FEFF 		bl	SetHighFrequencyDacOutput
 276:main.c        ****     
 277:main.c        ****     // Enable Components
 278:main.c        ****     HF_DAC_1_Start();   // (3,6,9,#,Dummy)
 771              		.loc 1 278 0
 772 001c FFF7FEFF 		bl	HF_DAC_1_Start
 279:main.c        ****     LF_DAC_1_Start();   // (7,8,9,*,0,#)
 773              		.loc 1 279 0
 774 0020 FFF7FEFF 		bl	LF_DAC_1_Start
 280:main.c        **** }
 775              		.loc 1 280 0
 776 0024 00BF     		nop
 777 0026 80BD     		pop	{r7, pc}
 778              		.cfi_endproc
 779              	.LFE69:
 780              		.size	InitSettings, .-InitSettings
 781              		.global	__aeabi_dmul
 782              		.section	.text.DTMF,"ax",%progbits
 783              		.align	2
ARM GAS  C:\Users\riveraes\AppData\Local\Temp\ccmEdq2f.s 			page 20


 784              		.global	DTMF
 785              		.thumb
 786              		.thumb_func
 787              		.type	DTMF, %function
 788              	DTMF:
 789              	.LFB70:
 281:main.c        **** 
 282:main.c        **** /*******************************************************************************
 283:main.c        **** * Function - Find DTMF Frequencies
 284:main.c        **** *******************************************************************************/
 285:main.c        **** void DTMF()
 286:main.c        **** {
 790              		.loc 1 286 0
 791              		.cfi_startproc
 792              		@ args = 0, pretend = 0, frame = 1296
 793              		@ frame_needed = 1, uses_anonymous_args = 0
 794 0000 B0B5     		push	{r4, r5, r7, lr}
 795              		.cfi_def_cfa_offset 16
 796              		.cfi_offset 4, -16
 797              		.cfi_offset 5, -12
 798              		.cfi_offset 7, -8
 799              		.cfi_offset 14, -4
 800 0002 ADF5A26D 		sub	sp, sp, #1296
 801              		.cfi_def_cfa_offset 1312
 802 0006 00AF     		add	r7, sp, #0
 803              		.cfi_def_cfa_register 7
 804              	.LBB5:
 287:main.c        ****     double signal[NUMBER_OF_SAMPLES];
 288:main.c        ****     for(int i = 0; i < NUMBER_OF_SAMPLES; i++)
 805              		.loc 1 288 0
 806 0008 0023     		movs	r3, #0
 807 000a C7F80C35 		str	r3, [r7, #1292]
 808 000e 3BE0     		b	.L44
 809              	.L45:
 810              	.LBB6:
 289:main.c        ****     {
 290:main.c        ****         double pdata = (double)array[i];
 811              		.loc 1 290 0 discriminator 3
 812 0010 5B4A     		ldr	r2, .L50
 813 0012 D7F80C35 		ldr	r3, [r7, #1292]
 814 0016 32F91330 		ldrsh	r3, [r2, r3, lsl #1]
 815 001a 1846     		mov	r0, r3
 816 001c FFF7FEFF 		bl	__aeabi_i2d
 817 0020 0346     		mov	r3, r0
 818 0022 0C46     		mov	r4, r1
 819 0024 07F5A062 		add	r2, r7, #1280
 820 0028 C2E90034 		strd	r3, [r2]
 291:main.c        ****         pdata = pdata*0.5;
 821              		.loc 1 291 0 discriminator 3
 822 002c 4FF00002 		mov	r2, #0
 823 0030 544B     		ldr	r3, .L50+4
 824 0032 07F5A061 		add	r1, r7, #1280
 825 0036 D1E90001 		ldrd	r0, [r1]
 826 003a FFF7FEFF 		bl	__aeabi_dmul
 827 003e 0346     		mov	r3, r0
 828 0040 0C46     		mov	r4, r1
 829 0042 07F5A062 		add	r2, r7, #1280
ARM GAS  C:\Users\riveraes\AppData\Local\Temp\ccmEdq2f.s 			page 21


 830 0046 C2E90034 		strd	r3, [r2]
 292:main.c        ****         pdata = pdata/128;
 831              		.loc 1 292 0 discriminator 3
 832 004a 4FF00002 		mov	r2, #0
 833 004e 4E4B     		ldr	r3, .L50+8
 834 0050 07F5A061 		add	r1, r7, #1280
 835 0054 D1E90001 		ldrd	r0, [r1]
 836 0058 FFF7FEFF 		bl	__aeabi_ddiv
 837 005c 0346     		mov	r3, r0
 838 005e 0C46     		mov	r4, r1
 839 0060 07F5A062 		add	r2, r7, #1280
 840 0064 C2E90034 		strd	r3, [r2]
 293:main.c        ****         signal[i] = pdata;
 841              		.loc 1 293 0 discriminator 3
 842 0068 07F14802 		add	r2, r7, #72
 843 006c D7F80C35 		ldr	r3, [r7, #1292]
 844 0070 DB00     		lsls	r3, r3, #3
 845 0072 1A44     		add	r2, r2, r3
 846 0074 07F5A063 		add	r3, r7, #1280
 847 0078 18CB     		ldmia	r3, {r3-r4}
 848 007a C2E90034 		strd	r3, [r2]
 849              	.LBE6:
 288:main.c        ****     {
 850              		.loc 1 288 0 discriminator 3
 851 007e D7F80C35 		ldr	r3, [r7, #1292]
 852 0082 0133     		adds	r3, r3, #1
 853 0084 C7F80C35 		str	r3, [r7, #1292]
 854              	.L44:
 288:main.c        ****     {
 855              		.loc 1 288 0 is_stmt 0 discriminator 1
 856 0088 D7F80C35 		ldr	r3, [r7, #1292]
 857 008c 952B     		cmp	r3, #149
 858 008e BFDD     		ble	.L45
 859              	.LBE5:
 294:main.c        ****     }
 295:main.c        ****     
 296:main.c        ****     double loAmplitudes[LOW_FREQUENCIES_ANALIZED] = {0, 0, 0, 0, 0};
 860              		.loc 1 296 0 is_stmt 1
 861 0090 07F12003 		add	r3, r7, #32
 862 0094 1846     		mov	r0, r3
 863 0096 2823     		movs	r3, #40
 864 0098 1A46     		mov	r2, r3
 865 009a 0021     		movs	r1, #0
 866 009c FFF7FEFF 		bl	memset
 297:main.c        ****     double hiAmplitudes[HIGH_FREQUENCIES_ANALIZED] = {0, 0, 0, 0};
 867              		.loc 1 297 0
 868 00a0 3B46     		mov	r3, r7
 869 00a2 1846     		mov	r0, r3
 870 00a4 2023     		movs	r3, #32
 871 00a6 1A46     		mov	r2, r3
 872 00a8 0021     		movs	r1, #0
 873 00aa FFF7FEFF 		bl	memset
 874              	.LBB7:
 298:main.c        ****     
 299:main.c        ****     for(uint8 i = 0; i < LOW_FREQUENCIES_ANALIZED; i++)
 875              		.loc 1 299 0
 876 00ae 0023     		movs	r3, #0
ARM GAS  C:\Users\riveraes\AppData\Local\Temp\ccmEdq2f.s 			page 22


 877 00b0 87F80B35 		strb	r3, [r7, #1291]
 878 00b4 1AE0     		b	.L46
 879              	.L47:
 300:main.c        ****     {
 301:main.c        ****         loAmplitudes[i] = Goertzel(NUMBER_OF_SAMPLES,loFrequency[i],SAMPLING_RATE, signal);
 880              		.loc 1 301 0 discriminator 3
 881 00b6 97F80B55 		ldrb	r5, [r7, #1291]	@ zero_extendqisi2
 882 00ba 97F80B35 		ldrb	r3, [r7, #1291]	@ zero_extendqisi2
 883 00be 334A     		ldr	r2, .L50+12
 884 00c0 52F82310 		ldr	r1, [r2, r3, lsl #2]
 885 00c4 07F14803 		add	r3, r7, #72
 886 00c8 42F21072 		movw	r2, #10000
 887 00cc 9620     		movs	r0, #150
 888 00ce FFF7FEFF 		bl	Goertzel
 889 00d2 0346     		mov	r3, r0
 890 00d4 0C46     		mov	r4, r1
 891 00d6 07F12001 		add	r1, r7, #32
 892 00da EA00     		lsls	r2, r5, #3
 893 00dc 0A44     		add	r2, r2, r1
 894 00de C2E90034 		strd	r3, [r2]
 299:main.c        ****     {
 895              		.loc 1 299 0 discriminator 3
 896 00e2 97F80B35 		ldrb	r3, [r7, #1291]	@ zero_extendqisi2
 897 00e6 0133     		adds	r3, r3, #1
 898 00e8 87F80B35 		strb	r3, [r7, #1291]
 899              	.L46:
 299:main.c        ****     {
 900              		.loc 1 299 0 is_stmt 0 discriminator 1
 901 00ec 97F80B35 		ldrb	r3, [r7, #1291]	@ zero_extendqisi2
 902 00f0 042B     		cmp	r3, #4
 903 00f2 E0D9     		bls	.L47
 904              	.LBE7:
 905              	.LBB8:
 302:main.c        ****     }
 303:main.c        ****     
 304:main.c        ****     for(uint8 i = 0; i < HIGH_FREQUENCIES_ANALIZED; i++)
 906              		.loc 1 304 0 is_stmt 1
 907 00f4 0023     		movs	r3, #0
 908 00f6 87F80A35 		strb	r3, [r7, #1290]
 909 00fa 19E0     		b	.L48
 910              	.L49:
 305:main.c        ****     {
 306:main.c        ****         hiAmplitudes[i] = Goertzel(NUMBER_OF_SAMPLES,hiFrequency[i],SAMPLING_RATE, signal);
 911              		.loc 1 306 0 discriminator 3
 912 00fc 97F80A55 		ldrb	r5, [r7, #1290]	@ zero_extendqisi2
 913 0100 97F80A35 		ldrb	r3, [r7, #1290]	@ zero_extendqisi2
 914 0104 224A     		ldr	r2, .L50+16
 915 0106 52F82310 		ldr	r1, [r2, r3, lsl #2]
 916 010a 07F14803 		add	r3, r7, #72
 917 010e 42F21072 		movw	r2, #10000
 918 0112 9620     		movs	r0, #150
 919 0114 FFF7FEFF 		bl	Goertzel
 920 0118 0346     		mov	r3, r0
 921 011a 0C46     		mov	r4, r1
 922 011c 3946     		mov	r1, r7
 923 011e EA00     		lsls	r2, r5, #3
 924 0120 0A44     		add	r2, r2, r1
ARM GAS  C:\Users\riveraes\AppData\Local\Temp\ccmEdq2f.s 			page 23


 925 0122 C2E90034 		strd	r3, [r2]
 304:main.c        ****     {
 926              		.loc 1 304 0 discriminator 3
 927 0126 97F80A35 		ldrb	r3, [r7, #1290]	@ zero_extendqisi2
 928 012a 0133     		adds	r3, r3, #1
 929 012c 87F80A35 		strb	r3, [r7, #1290]
 930              	.L48:
 304:main.c        ****     {
 931              		.loc 1 304 0 is_stmt 0 discriminator 1
 932 0130 97F80A35 		ldrb	r3, [r7, #1290]	@ zero_extendqisi2
 933 0134 032B     		cmp	r3, #3
 934 0136 E1D9     		bls	.L49
 935              	.LBE8:
 307:main.c        ****     }
 308:main.c        ****     
 309:main.c        ****     uint16 loAmp = getMaxValue(loAmplitudes, LOW_FREQUENCIES_ANALIZED);
 936              		.loc 1 309 0 is_stmt 1
 937 0138 07F12003 		add	r3, r7, #32
 938 013c 0521     		movs	r1, #5
 939 013e 1846     		mov	r0, r3
 940 0140 FFF7FEFF 		bl	getMaxValue
 941 0144 0346     		mov	r3, r0
 942 0146 A7F8FE34 		strh	r3, [r7, #1278]	@ movhi
 310:main.c        ****     uint16 hiAmp = getMaxValue(hiAmplitudes, HIGH_FREQUENCIES_ANALIZED);   
 943              		.loc 1 310 0
 944 014a 3B46     		mov	r3, r7
 945 014c 0421     		movs	r1, #4
 946 014e 1846     		mov	r0, r3
 947 0150 FFF7FEFF 		bl	getMaxValue
 948 0154 0346     		mov	r3, r0
 949 0156 A7F8FC34 		strh	r3, [r7, #1276]	@ movhi
 311:main.c        ****     
 312:main.c        ****     // Print the low and High frequencies found
 313:main.c        ****     //sprintf(TransmitBuffer, "Lo=%dHz", loFrequency[loAmp]);
 314:main.c        ****     //UART_1_PutString(TransmitBuffer);
 315:main.c        ****     //UART_1_PutString(" - ");
 316:main.c        ****     //sprintf(TransmitBuffer, "Hi=%dHz\r\n", hiFrequency[hiAmp]);
 317:main.c        ****     //UART_1_PutString(TransmitBuffer);
 318:main.c        ****     
 319:main.c        ****     // Decode the pressed key value
 320:main.c        ****     DecodeInput(loFrequency[loAmp], hiFrequency[hiAmp]);
 950              		.loc 1 320 0
 951 015a B7F8FE34 		ldrh	r3, [r7, #1278]
 952 015e 0B4A     		ldr	r2, .L50+12
 953 0160 52F82300 		ldr	r0, [r2, r3, lsl #2]
 954 0164 B7F8FC34 		ldrh	r3, [r7, #1276]
 955 0168 094A     		ldr	r2, .L50+16
 956 016a 52F82330 		ldr	r3, [r2, r3, lsl #2]
 957 016e 1946     		mov	r1, r3
 958 0170 FFF7FEFF 		bl	DecodeInput
 321:main.c        **** }
 959              		.loc 1 321 0
 960 0174 00BF     		nop
 961 0176 07F5A267 		add	r7, r7, #1296
 962              		.cfi_def_cfa_offset 16
 963 017a BD46     		mov	sp, r7
 964              		.cfi_def_cfa_register 13
ARM GAS  C:\Users\riveraes\AppData\Local\Temp\ccmEdq2f.s 			page 24


 965              		@ sp needed
 966 017c B0BD     		pop	{r4, r5, r7, pc}
 967              	.L51:
 968 017e 00BF     		.align	2
 969              	.L50:
 970 0180 00000000 		.word	array
 971 0184 0000E03F 		.word	1071644672
 972 0188 00006040 		.word	1080033280
 973 018c 00000000 		.word	loFrequency
 974 0190 00000000 		.word	hiFrequency
 975              		.cfi_endproc
 976              	.LFE70:
 977              		.size	DTMF, .-DTMF
 978              		.global	__aeabi_dadd
 979              		.global	__aeabi_dsub
 980              		.section	.text.Goertzel,"ax",%progbits
 981              		.align	2
 982              		.global	Goertzel
 983              		.thumb
 984              		.thumb_func
 985              		.type	Goertzel, %function
 986              	Goertzel:
 987              	.LFB71:
 322:main.c        **** 
 323:main.c        **** /*******************************************************************************
 324:main.c        **** * Function - Goertzel algorithm
 325:main.c        **** *******************************************************************************/
 326:main.c        **** double Goertzel(int numSamples, int tFrequency,int tSamplingRate, double data[])
 327:main.c        **** {
 988              		.loc 1 327 0
 989              		.cfi_startproc
 990              		@ args = 0, pretend = 0, frame = 136
 991              		@ frame_needed = 1, uses_anonymous_args = 0
 992 0000 B0B5     		push	{r4, r5, r7, lr}
 993              		.cfi_def_cfa_offset 16
 994              		.cfi_offset 4, -16
 995              		.cfi_offset 5, -12
 996              		.cfi_offset 7, -8
 997              		.cfi_offset 14, -4
 998 0002 A2B0     		sub	sp, sp, #136
 999              		.cfi_def_cfa_offset 152
 1000 0004 00AF     		add	r7, sp, #0
 1001              		.cfi_def_cfa_register 7
 1002 0006 F860     		str	r0, [r7, #12]
 1003 0008 B960     		str	r1, [r7, #8]
 1004 000a 7A60     		str	r2, [r7, #4]
 1005 000c 3B60     		str	r3, [r7]
 328:main.c        ****     int k;
 329:main.c        ****     int i;
 330:main.c        ****     double floatnumSamples;
 331:main.c        ****     double omega;
 332:main.c        ****     double sine;
 333:main.c        ****     double cosine;
 334:main.c        ****     double coeff;
 335:main.c        ****     double q0;
 336:main.c        ****     double q1;
 337:main.c        ****     double q2;
ARM GAS  C:\Users\riveraes\AppData\Local\Temp\ccmEdq2f.s 			page 25


 338:main.c        ****     double magnitude;
 339:main.c        ****     double real;
 340:main.c        ****     double imag;
 341:main.c        ****     
 342:main.c        ****     double scalingFactor = numSamples / 2.0;
 1006              		.loc 1 342 0
 1007 000e F868     		ldr	r0, [r7, #12]
 1008 0010 FFF7FEFF 		bl	__aeabi_i2d
 1009 0014 4FF00002 		mov	r2, #0
 1010 0018 4FF08043 		mov	r3, #1073741824
 1011 001c FFF7FEFF 		bl	__aeabi_ddiv
 1012 0020 0346     		mov	r3, r0
 1013 0022 0C46     		mov	r4, r1
 1014 0024 C7E91A34 		strd	r3, [r7, #104]
 343:main.c        **** 
 344:main.c        ****     floatnumSamples = numSamples;
 1015              		.loc 1 344 0
 1016 0028 F868     		ldr	r0, [r7, #12]
 1017 002a FFF7FEFF 		bl	__aeabi_i2d
 1018 002e 0346     		mov	r3, r0
 1019 0030 0C46     		mov	r4, r1
 1020 0032 C7E91834 		strd	r3, [r7, #96]
 345:main.c        ****     k = (0.5 + ((floatnumSamples * tFrequency) / tSamplingRate));
 1021              		.loc 1 345 0
 1022 0036 B868     		ldr	r0, [r7, #8]
 1023 0038 FFF7FEFF 		bl	__aeabi_i2d
 1024 003c D7E91823 		ldrd	r2, [r7, #96]
 1025 0040 FFF7FEFF 		bl	__aeabi_dmul
 1026 0044 0346     		mov	r3, r0
 1027 0046 0C46     		mov	r4, r1
 1028 0048 2546     		mov	r5, r4
 1029 004a 1C46     		mov	r4, r3
 1030 004c 7868     		ldr	r0, [r7, #4]
 1031 004e FFF7FEFF 		bl	__aeabi_i2d
 1032 0052 0246     		mov	r2, r0
 1033 0054 0B46     		mov	r3, r1
 1034 0056 2046     		mov	r0, r4
 1035 0058 2946     		mov	r1, r5
 1036 005a FFF7FEFF 		bl	__aeabi_ddiv
 1037 005e 0346     		mov	r3, r0
 1038 0060 0C46     		mov	r4, r1
 1039 0062 1846     		mov	r0, r3
 1040 0064 2146     		mov	r1, r4
 1041 0066 4FF00002 		mov	r2, #0
 1042 006a 6B4B     		ldr	r3, .L56+8
 1043 006c FFF7FEFF 		bl	__aeabi_dadd
 1044 0070 0346     		mov	r3, r0
 1045 0072 0C46     		mov	r4, r1
 1046 0074 1846     		mov	r0, r3
 1047 0076 2146     		mov	r1, r4
 1048 0078 FFF7FEFF 		bl	__aeabi_d2iz
 1049 007c 0346     		mov	r3, r0
 1050 007e FB65     		str	r3, [r7, #92]
 346:main.c        ****     omega = (2.0 * M_PI * k) / floatnumSamples;
 1051              		.loc 1 346 0
 1052 0080 F86D     		ldr	r0, [r7, #92]
 1053 0082 FFF7FEFF 		bl	__aeabi_i2d
ARM GAS  C:\Users\riveraes\AppData\Local\Temp\ccmEdq2f.s 			page 26


 1054 0086 62A3     		adr	r3, .L56
 1055 0088 D3E90023 		ldrd	r2, [r3]
 1056 008c FFF7FEFF 		bl	__aeabi_dmul
 1057 0090 0346     		mov	r3, r0
 1058 0092 0C46     		mov	r4, r1
 1059 0094 1846     		mov	r0, r3
 1060 0096 2146     		mov	r1, r4
 1061 0098 D7E91823 		ldrd	r2, [r7, #96]
 1062 009c FFF7FEFF 		bl	__aeabi_ddiv
 1063 00a0 0346     		mov	r3, r0
 1064 00a2 0C46     		mov	r4, r1
 1065 00a4 C7E91434 		strd	r3, [r7, #80]
 347:main.c        ****     sine = sin(omega);
 1066              		.loc 1 347 0
 1067 00a8 D7E91401 		ldrd	r0, [r7, #80]
 1068 00ac FFF7FEFF 		bl	sin
 1069 00b0 C7E91201 		strd	r0, [r7, #72]
 348:main.c        ****     cosine = cos(omega);
 1070              		.loc 1 348 0
 1071 00b4 D7E91401 		ldrd	r0, [r7, #80]
 1072 00b8 FFF7FEFF 		bl	cos
 1073 00bc C7E91001 		strd	r0, [r7, #64]
 349:main.c        ****     coeff = 2.0 * cosine;
 1074              		.loc 1 349 0
 1075 00c0 D7E91001 		ldrd	r0, [r7, #64]
 1076 00c4 0246     		mov	r2, r0
 1077 00c6 0B46     		mov	r3, r1
 1078 00c8 FFF7FEFF 		bl	__aeabi_dadd
 1079 00cc 0346     		mov	r3, r0
 1080 00ce 0C46     		mov	r4, r1
 1081 00d0 C7E90E34 		strd	r3, [r7, #56]
 350:main.c        ****     q0=0;
 1082              		.loc 1 350 0
 1083 00d4 4FF00003 		mov	r3, #0
 1084 00d8 4FF00004 		mov	r4, #0
 1085 00dc C7E90C34 		strd	r3, [r7, #48]
 351:main.c        ****     q1=0;
 1086              		.loc 1 351 0
 1087 00e0 4FF00003 		mov	r3, #0
 1088 00e4 4FF00004 		mov	r4, #0
 1089 00e8 C7E92034 		strd	r3, [r7, #128]
 352:main.c        ****     q2=0;
 1090              		.loc 1 352 0
 1091 00ec 4FF00003 		mov	r3, #0
 1092 00f0 4FF00004 		mov	r4, #0
 1093 00f4 C7E91E34 		strd	r3, [r7, #120]
 1094              	.LBB9:
 353:main.c        ****     
 354:main.c        ****     for(uint16 i = 0; i < numSamples; i++)
 1095              		.loc 1 354 0
 1096 00f8 0023     		movs	r3, #0
 1097 00fa A7F87630 		strh	r3, [r7, #118]	@ movhi
 1098 00fe 2EE0     		b	.L53
 1099              	.L54:
 1100              	.LBB10:
 355:main.c        ****     {
 356:main.c        ****         double mdata =  data[i];
ARM GAS  C:\Users\riveraes\AppData\Local\Temp\ccmEdq2f.s 			page 27


 1101              		.loc 1 356 0 discriminator 3
 1102 0100 B7F87630 		ldrh	r3, [r7, #118]
 1103 0104 DB00     		lsls	r3, r3, #3
 1104 0106 3A68     		ldr	r2, [r7]
 1105 0108 1344     		add	r3, r3, r2
 1106 010a 18CB     		ldmia	r3, {r3-r4}
 1107 010c C7E90A34 		strd	r3, [r7, #40]
 357:main.c        ****         
 358:main.c        ****         q0 = coeff * q1 - q2 + mdata;
 1108              		.loc 1 358 0 discriminator 3
 1109 0110 D7E92023 		ldrd	r2, [r7, #128]
 1110 0114 D7E90E01 		ldrd	r0, [r7, #56]
 1111 0118 FFF7FEFF 		bl	__aeabi_dmul
 1112 011c 0346     		mov	r3, r0
 1113 011e 0C46     		mov	r4, r1
 1114 0120 1846     		mov	r0, r3
 1115 0122 2146     		mov	r1, r4
 1116 0124 D7E91E23 		ldrd	r2, [r7, #120]
 1117 0128 FFF7FEFF 		bl	__aeabi_dsub
 1118 012c 0346     		mov	r3, r0
 1119 012e 0C46     		mov	r4, r1
 1120 0130 1846     		mov	r0, r3
 1121 0132 2146     		mov	r1, r4
 1122 0134 D7E90A23 		ldrd	r2, [r7, #40]
 1123 0138 FFF7FEFF 		bl	__aeabi_dadd
 1124 013c 0346     		mov	r3, r0
 1125 013e 0C46     		mov	r4, r1
 1126 0140 C7E90C34 		strd	r3, [r7, #48]
 359:main.c        ****         q2 = q1;
 1127              		.loc 1 359 0 discriminator 3
 1128 0144 D7E92034 		ldrd	r3, [r7, #128]
 1129 0148 C7E91E34 		strd	r3, [r7, #120]
 360:main.c        ****         q1 = q0;
 1130              		.loc 1 360 0 discriminator 3
 1131 014c D7E90C34 		ldrd	r3, [r7, #48]
 1132 0150 C7E92034 		strd	r3, [r7, #128]
 1133              	.LBE10:
 354:main.c        ****     {
 1134              		.loc 1 354 0 discriminator 3
 1135 0154 B7F87630 		ldrh	r3, [r7, #118]
 1136 0158 0133     		adds	r3, r3, #1
 1137 015a A7F87630 		strh	r3, [r7, #118]	@ movhi
 1138              	.L53:
 354:main.c        ****     {
 1139              		.loc 1 354 0 is_stmt 0 discriminator 1
 1140 015e B7F87620 		ldrh	r2, [r7, #118]
 1141 0162 FB68     		ldr	r3, [r7, #12]
 1142 0164 9A42     		cmp	r2, r3
 1143 0166 CBDB     		blt	.L54
 1144              	.LBE9:
 361:main.c        ****     }
 362:main.c        **** 
 363:main.c        ****     // calculate the real and imaginary results
 364:main.c        ****     // scaling appropriately
 365:main.c        ****     real = (q1 - q2 * cosine) / scalingFactor;
 1145              		.loc 1 365 0 is_stmt 1
 1146 0168 D7E91023 		ldrd	r2, [r7, #64]
ARM GAS  C:\Users\riveraes\AppData\Local\Temp\ccmEdq2f.s 			page 28


 1147 016c D7E91E01 		ldrd	r0, [r7, #120]
 1148 0170 FFF7FEFF 		bl	__aeabi_dmul
 1149 0174 0346     		mov	r3, r0
 1150 0176 0C46     		mov	r4, r1
 1151 0178 1A46     		mov	r2, r3
 1152 017a 2346     		mov	r3, r4
 1153 017c D7E92001 		ldrd	r0, [r7, #128]
 1154 0180 FFF7FEFF 		bl	__aeabi_dsub
 1155 0184 0346     		mov	r3, r0
 1156 0186 0C46     		mov	r4, r1
 1157 0188 1846     		mov	r0, r3
 1158 018a 2146     		mov	r1, r4
 1159 018c D7E91A23 		ldrd	r2, [r7, #104]
 1160 0190 FFF7FEFF 		bl	__aeabi_ddiv
 1161 0194 0346     		mov	r3, r0
 1162 0196 0C46     		mov	r4, r1
 1163 0198 C7E90834 		strd	r3, [r7, #32]
 366:main.c        ****     imag = (q2 * sine) / scalingFactor;
 1164              		.loc 1 366 0
 1165 019c D7E91223 		ldrd	r2, [r7, #72]
 1166 01a0 D7E91E01 		ldrd	r0, [r7, #120]
 1167 01a4 FFF7FEFF 		bl	__aeabi_dmul
 1168 01a8 0346     		mov	r3, r0
 1169 01aa 0C46     		mov	r4, r1
 1170 01ac 1846     		mov	r0, r3
 1171 01ae 2146     		mov	r1, r4
 1172 01b0 D7E91A23 		ldrd	r2, [r7, #104]
 1173 01b4 FFF7FEFF 		bl	__aeabi_ddiv
 1174 01b8 0346     		mov	r3, r0
 1175 01ba 0C46     		mov	r4, r1
 1176 01bc C7E90634 		strd	r3, [r7, #24]
 367:main.c        **** 
 368:main.c        ****     magnitude = sqrt(real*real + imag*imag);
 1177              		.loc 1 368 0
 1178 01c0 D7E90823 		ldrd	r2, [r7, #32]
 1179 01c4 D7E90801 		ldrd	r0, [r7, #32]
 1180 01c8 FFF7FEFF 		bl	__aeabi_dmul
 1181 01cc 0346     		mov	r3, r0
 1182 01ce 0C46     		mov	r4, r1
 1183 01d0 2546     		mov	r5, r4
 1184 01d2 1C46     		mov	r4, r3
 1185 01d4 D7E90623 		ldrd	r2, [r7, #24]
 1186 01d8 D7E90601 		ldrd	r0, [r7, #24]
 1187 01dc FFF7FEFF 		bl	__aeabi_dmul
 1188 01e0 0246     		mov	r2, r0
 1189 01e2 0B46     		mov	r3, r1
 1190 01e4 2046     		mov	r0, r4
 1191 01e6 2946     		mov	r1, r5
 1192 01e8 FFF7FEFF 		bl	__aeabi_dadd
 1193 01ec 0346     		mov	r3, r0
 1194 01ee 0C46     		mov	r4, r1
 1195 01f0 1846     		mov	r0, r3
 1196 01f2 2146     		mov	r1, r4
 1197 01f4 FFF7FEFF 		bl	sqrt
 1198 01f8 C7E90401 		strd	r0, [r7, #16]
 369:main.c        ****     return magnitude;
 1199              		.loc 1 369 0
ARM GAS  C:\Users\riveraes\AppData\Local\Temp\ccmEdq2f.s 			page 29


 1200 01fc D7E90434 		ldrd	r3, [r7, #16]
 370:main.c        **** }
 1201              		.loc 1 370 0
 1202 0200 1846     		mov	r0, r3
 1203 0202 2146     		mov	r1, r4
 1204 0204 8837     		adds	r7, r7, #136
 1205              		.cfi_def_cfa_offset 16
 1206 0206 BD46     		mov	sp, r7
 1207              		.cfi_def_cfa_register 13
 1208              		@ sp needed
 1209 0208 B0BD     		pop	{r4, r5, r7, pc}
 1210              	.L57:
 1211 020a 00BFAFF3 		.align	3
 1211      0080
 1212              	.L56:
 1213 0210 182D4454 		.word	1413754136
 1214 0214 FB211940 		.word	1075388923
 1215 0218 0000E03F 		.word	1071644672
 1216              		.cfi_endproc
 1217              	.LFE71:
 1218              		.size	Goertzel, .-Goertzel
 1219              		.global	__aeabi_dcmpgt
 1220              		.section	.text.getMaxValue,"ax",%progbits
 1221              		.align	2
 1222              		.global	getMaxValue
 1223              		.thumb
 1224              		.thumb_func
 1225              		.type	getMaxValue, %function
 1226              	getMaxValue:
 1227              	.LFB72:
 371:main.c        **** 
 372:main.c        **** /*******************************************************************************
 373:main.c        **** * Function - Find max value of given array
 374:main.c        **** *******************************************************************************/
 375:main.c        **** uint16 getMaxValue(double *arrayData, uint8 size)
 376:main.c        **** {
 1228              		.loc 1 376 0
 1229              		.cfi_startproc
 1230              		@ args = 0, pretend = 0, frame = 24
 1231              		@ frame_needed = 1, uses_anonymous_args = 0
 1232 0000 90B5     		push	{r4, r7, lr}
 1233              		.cfi_def_cfa_offset 12
 1234              		.cfi_offset 4, -12
 1235              		.cfi_offset 7, -8
 1236              		.cfi_offset 14, -4
 1237 0002 87B0     		sub	sp, sp, #28
 1238              		.cfi_def_cfa_offset 40
 1239 0004 00AF     		add	r7, sp, #0
 1240              		.cfi_def_cfa_register 7
 1241 0006 7860     		str	r0, [r7, #4]
 1242 0008 0B46     		mov	r3, r1
 1243 000a FB70     		strb	r3, [r7, #3]
 377:main.c        ****     double maxValue = arrayData[0];
 1244              		.loc 1 377 0
 1245 000c 7B68     		ldr	r3, [r7, #4]
 1246 000e 18CB     		ldmia	r3, {r3-r4}
 1247 0010 C7E90434 		strd	r3, [r7, #16]
ARM GAS  C:\Users\riveraes\AppData\Local\Temp\ccmEdq2f.s 			page 30


 378:main.c        ****     uint16 index = 0;
 1248              		.loc 1 378 0
 1249 0014 0023     		movs	r3, #0
 1250 0016 FB81     		strh	r3, [r7, #14]	@ movhi
 1251              	.LBB11:
 379:main.c        ****     for (uint16 i = 1; i < size; ++i) 
 1252              		.loc 1 379 0
 1253 0018 0123     		movs	r3, #1
 1254 001a BB81     		strh	r3, [r7, #12]	@ movhi
 1255 001c 18E0     		b	.L59
 1256              	.L62:
 380:main.c        ****     {
 381:main.c        ****         if ( arrayData[i] > maxValue ) 
 1257              		.loc 1 381 0
 1258 001e BB89     		ldrh	r3, [r7, #12]
 1259 0020 DB00     		lsls	r3, r3, #3
 1260 0022 7A68     		ldr	r2, [r7, #4]
 1261 0024 1344     		add	r3, r3, r2
 1262 0026 D3E90001 		ldrd	r0, [r3]
 1263 002a D7E90423 		ldrd	r2, [r7, #16]
 1264 002e FFF7FEFF 		bl	__aeabi_dcmpgt
 1265 0032 0346     		mov	r3, r0
 1266 0034 002B     		cmp	r3, #0
 1267 0036 08D0     		beq	.L60
 382:main.c        ****         {
 383:main.c        ****             maxValue = arrayData[i];
 1268              		.loc 1 383 0
 1269 0038 BB89     		ldrh	r3, [r7, #12]
 1270 003a DB00     		lsls	r3, r3, #3
 1271 003c 7A68     		ldr	r2, [r7, #4]
 1272 003e 1344     		add	r3, r3, r2
 1273 0040 18CB     		ldmia	r3, {r3-r4}
 1274 0042 C7E90434 		strd	r3, [r7, #16]
 384:main.c        ****             index = i;
 1275              		.loc 1 384 0
 1276 0046 BB89     		ldrh	r3, [r7, #12]	@ movhi
 1277 0048 FB81     		strh	r3, [r7, #14]	@ movhi
 1278              	.L60:
 379:main.c        ****     {
 1279              		.loc 1 379 0 discriminator 2
 1280 004a BB89     		ldrh	r3, [r7, #12]	@ movhi
 1281 004c 0133     		adds	r3, r3, #1
 1282 004e BB81     		strh	r3, [r7, #12]	@ movhi
 1283              	.L59:
 379:main.c        ****     {
 1284              		.loc 1 379 0 is_stmt 0 discriminator 1
 1285 0050 FB78     		ldrb	r3, [r7, #3]	@ zero_extendqisi2
 1286 0052 9BB2     		uxth	r3, r3
 1287 0054 BA89     		ldrh	r2, [r7, #12]
 1288 0056 9A42     		cmp	r2, r3
 1289 0058 E1D3     		bcc	.L62
 1290              	.LBE11:
 385:main.c        ****         }
 386:main.c        ****     }
 387:main.c        ****     
 388:main.c        ****     return index;
 1291              		.loc 1 388 0 is_stmt 1
ARM GAS  C:\Users\riveraes\AppData\Local\Temp\ccmEdq2f.s 			page 31


 1292 005a FB89     		ldrh	r3, [r7, #14]
 389:main.c        **** }
 1293              		.loc 1 389 0
 1294 005c 1846     		mov	r0, r3
 1295 005e 1C37     		adds	r7, r7, #28
 1296              		.cfi_def_cfa_offset 12
 1297 0060 BD46     		mov	sp, r7
 1298              		.cfi_def_cfa_register 13
 1299              		@ sp needed
 1300 0062 90BD     		pop	{r4, r7, pc}
 1301              		.cfi_endproc
 1302              	.LFE72:
 1303              		.size	getMaxValue, .-getMaxValue
 1304              		.section	.rodata
 1305 008e 0000     		.align	2
 1306              	.LC17:
 1307 0090 3100     		.ascii	"1\000"
 1308 0092 0000     		.align	2
 1309              	.LC18:
 1310 0094 3200     		.ascii	"2\000"
 1311 0096 0000     		.align	2
 1312              	.LC19:
 1313 0098 3300     		.ascii	"3\000"
 1314 009a 0000     		.align	2
 1315              	.LC20:
 1316 009c 3400     		.ascii	"4\000"
 1317 009e 0000     		.align	2
 1318              	.LC21:
 1319 00a0 3500     		.ascii	"5\000"
 1320 00a2 0000     		.align	2
 1321              	.LC22:
 1322 00a4 3600     		.ascii	"6\000"
 1323 00a6 0000     		.align	2
 1324              	.LC23:
 1325 00a8 3700     		.ascii	"7\000"
 1326 00aa 0000     		.align	2
 1327              	.LC24:
 1328 00ac 3800     		.ascii	"8\000"
 1329 00ae 0000     		.align	2
 1330              	.LC25:
 1331 00b0 3900     		.ascii	"9\000"
 1332 00b2 0000     		.align	2
 1333              	.LC26:
 1334 00b4 2A00     		.ascii	"*\000"
 1335 00b6 0000     		.align	2
 1336              	.LC27:
 1337 00b8 3000     		.ascii	"0\000"
 1338 00ba 0000     		.align	2
 1339              	.LC28:
 1340 00bc 2300     		.ascii	"#\000"
 1341              		.section	.text.DecodeInput,"ax",%progbits
 1342              		.align	2
 1343              		.global	DecodeInput
 1344              		.thumb
 1345              		.thumb_func
 1346              		.type	DecodeInput, %function
 1347              	DecodeInput:
ARM GAS  C:\Users\riveraes\AppData\Local\Temp\ccmEdq2f.s 			page 32


 1348              	.LFB73:
 390:main.c        **** 
 391:main.c        **** /*******************************************************************************
 392:main.c        **** * Function - Decode the frequencies found
 393:main.c        **** *******************************************************************************/
 394:main.c        **** void DecodeInput(int lo, int hi)
 395:main.c        **** {
 1349              		.loc 1 395 0
 1350              		.cfi_startproc
 1351              		@ args = 0, pretend = 0, frame = 8
 1352              		@ frame_needed = 1, uses_anonymous_args = 0
 1353 0000 80B5     		push	{r7, lr}
 1354              		.cfi_def_cfa_offset 8
 1355              		.cfi_offset 7, -8
 1356              		.cfi_offset 14, -4
 1357 0002 82B0     		sub	sp, sp, #8
 1358              		.cfi_def_cfa_offset 16
 1359 0004 00AF     		add	r7, sp, #0
 1360              		.cfi_def_cfa_register 7
 1361 0006 7860     		str	r0, [r7, #4]
 1362 0008 3960     		str	r1, [r7]
 396:main.c        ****     // Keys 1,2,3
 397:main.c        ****     if ( (lo == loFrequency[1]) && (hi == hiFrequency[1]))
 1363              		.loc 1 397 0
 1364 000a 864B     		ldr	r3, .L81
 1365 000c 5A68     		ldr	r2, [r3, #4]
 1366 000e 7B68     		ldr	r3, [r7, #4]
 1367 0010 9A42     		cmp	r2, r3
 1368 0012 0FD1     		bne	.L66
 1369              		.loc 1 397 0 is_stmt 0 discriminator 1
 1370 0014 844B     		ldr	r3, .L81+4
 1371 0016 5A68     		ldr	r2, [r3, #4]
 1372 0018 3B68     		ldr	r3, [r7]
 1373 001a 9A42     		cmp	r2, r3
 1374 001c 0AD1     		bne	.L66
 398:main.c        ****     {
 399:main.c        ****         if (terminalOutputEnable == TRUE)
 1375              		.loc 1 399 0 is_stmt 1
 1376 001e 834B     		ldr	r3, .L81+8
 1377 0020 93F90030 		ldrsb	r3, [r3]
 1378 0024 012B     		cmp	r3, #1
 1379 0026 05D1     		bne	.L66
 400:main.c        ****         {
 401:main.c        ****             UART_1_PutString("1");
 1380              		.loc 1 401 0
 1381 0028 8148     		ldr	r0, .L81+12
 1382 002a FFF7FEFF 		bl	UART_1_PutString
 402:main.c        ****             terminalOutputEnable = FALSE;
 1383              		.loc 1 402 0
 1384 002e 7F4B     		ldr	r3, .L81+8
 1385 0030 0022     		movs	r2, #0
 1386 0032 1A70     		strb	r2, [r3]
 1387              	.L66:
 403:main.c        ****         }
 404:main.c        ****     }
 405:main.c        ****     if ( (lo == loFrequency[1]) && (hi == hiFrequency[2]))
 1388              		.loc 1 405 0
ARM GAS  C:\Users\riveraes\AppData\Local\Temp\ccmEdq2f.s 			page 33


 1389 0034 7B4B     		ldr	r3, .L81
 1390 0036 5A68     		ldr	r2, [r3, #4]
 1391 0038 7B68     		ldr	r3, [r7, #4]
 1392 003a 9A42     		cmp	r2, r3
 1393 003c 0FD1     		bne	.L67
 1394              		.loc 1 405 0 is_stmt 0 discriminator 1
 1395 003e 7A4B     		ldr	r3, .L81+4
 1396 0040 9A68     		ldr	r2, [r3, #8]
 1397 0042 3B68     		ldr	r3, [r7]
 1398 0044 9A42     		cmp	r2, r3
 1399 0046 0AD1     		bne	.L67
 406:main.c        ****     {
 407:main.c        ****         if (terminalOutputEnable == TRUE)
 1400              		.loc 1 407 0 is_stmt 1
 1401 0048 784B     		ldr	r3, .L81+8
 1402 004a 93F90030 		ldrsb	r3, [r3]
 1403 004e 012B     		cmp	r3, #1
 1404 0050 05D1     		bne	.L67
 408:main.c        ****         {
 409:main.c        ****             UART_1_PutString("2");
 1405              		.loc 1 409 0
 1406 0052 7848     		ldr	r0, .L81+16
 1407 0054 FFF7FEFF 		bl	UART_1_PutString
 410:main.c        ****             terminalOutputEnable = FALSE;
 1408              		.loc 1 410 0
 1409 0058 744B     		ldr	r3, .L81+8
 1410 005a 0022     		movs	r2, #0
 1411 005c 1A70     		strb	r2, [r3]
 1412              	.L67:
 411:main.c        ****         }
 412:main.c        ****     }
 413:main.c        ****     if ( (lo == loFrequency[1]) && (hi == hiFrequency[3]))
 1413              		.loc 1 413 0
 1414 005e 714B     		ldr	r3, .L81
 1415 0060 5A68     		ldr	r2, [r3, #4]
 1416 0062 7B68     		ldr	r3, [r7, #4]
 1417 0064 9A42     		cmp	r2, r3
 1418 0066 0FD1     		bne	.L68
 1419              		.loc 1 413 0 is_stmt 0 discriminator 1
 1420 0068 6F4B     		ldr	r3, .L81+4
 1421 006a DA68     		ldr	r2, [r3, #12]
 1422 006c 3B68     		ldr	r3, [r7]
 1423 006e 9A42     		cmp	r2, r3
 1424 0070 0AD1     		bne	.L68
 414:main.c        ****     {
 415:main.c        ****         if (terminalOutputEnable == TRUE)
 1425              		.loc 1 415 0 is_stmt 1
 1426 0072 6E4B     		ldr	r3, .L81+8
 1427 0074 93F90030 		ldrsb	r3, [r3]
 1428 0078 012B     		cmp	r3, #1
 1429 007a 05D1     		bne	.L68
 416:main.c        ****         {
 417:main.c        ****             UART_1_PutString("3");
 1430              		.loc 1 417 0
 1431 007c 6E48     		ldr	r0, .L81+20
 1432 007e FFF7FEFF 		bl	UART_1_PutString
 418:main.c        ****             terminalOutputEnable = FALSE;
ARM GAS  C:\Users\riveraes\AppData\Local\Temp\ccmEdq2f.s 			page 34


 1433              		.loc 1 418 0
 1434 0082 6A4B     		ldr	r3, .L81+8
 1435 0084 0022     		movs	r2, #0
 1436 0086 1A70     		strb	r2, [r3]
 1437              	.L68:
 419:main.c        ****         }
 420:main.c        ****     }
 421:main.c        ****     
 422:main.c        ****     // Keys 4,5,6    
 423:main.c        ****     if ( (lo == loFrequency[2]) && (hi == hiFrequency[1]))
 1438              		.loc 1 423 0
 1439 0088 664B     		ldr	r3, .L81
 1440 008a 9A68     		ldr	r2, [r3, #8]
 1441 008c 7B68     		ldr	r3, [r7, #4]
 1442 008e 9A42     		cmp	r2, r3
 1443 0090 0FD1     		bne	.L69
 1444              		.loc 1 423 0 is_stmt 0 discriminator 1
 1445 0092 654B     		ldr	r3, .L81+4
 1446 0094 5A68     		ldr	r2, [r3, #4]
 1447 0096 3B68     		ldr	r3, [r7]
 1448 0098 9A42     		cmp	r2, r3
 1449 009a 0AD1     		bne	.L69
 424:main.c        ****     {
 425:main.c        ****         if (terminalOutputEnable == TRUE)
 1450              		.loc 1 425 0 is_stmt 1
 1451 009c 634B     		ldr	r3, .L81+8
 1452 009e 93F90030 		ldrsb	r3, [r3]
 1453 00a2 012B     		cmp	r3, #1
 1454 00a4 05D1     		bne	.L69
 426:main.c        ****         {
 427:main.c        ****             UART_1_PutString("4");
 1455              		.loc 1 427 0
 1456 00a6 6548     		ldr	r0, .L81+24
 1457 00a8 FFF7FEFF 		bl	UART_1_PutString
 428:main.c        ****             terminalOutputEnable = FALSE;
 1458              		.loc 1 428 0
 1459 00ac 5F4B     		ldr	r3, .L81+8
 1460 00ae 0022     		movs	r2, #0
 1461 00b0 1A70     		strb	r2, [r3]
 1462              	.L69:
 429:main.c        ****         }
 430:main.c        ****     }
 431:main.c        ****     if ( (lo == loFrequency[2]) && (hi == hiFrequency[2]))
 1463              		.loc 1 431 0
 1464 00b2 5C4B     		ldr	r3, .L81
 1465 00b4 9A68     		ldr	r2, [r3, #8]
 1466 00b6 7B68     		ldr	r3, [r7, #4]
 1467 00b8 9A42     		cmp	r2, r3
 1468 00ba 0FD1     		bne	.L70
 1469              		.loc 1 431 0 is_stmt 0 discriminator 1
 1470 00bc 5A4B     		ldr	r3, .L81+4
 1471 00be 9A68     		ldr	r2, [r3, #8]
 1472 00c0 3B68     		ldr	r3, [r7]
 1473 00c2 9A42     		cmp	r2, r3
 1474 00c4 0AD1     		bne	.L70
 432:main.c        ****     {
 433:main.c        ****         if (terminalOutputEnable == TRUE)
ARM GAS  C:\Users\riveraes\AppData\Local\Temp\ccmEdq2f.s 			page 35


 1475              		.loc 1 433 0 is_stmt 1
 1476 00c6 594B     		ldr	r3, .L81+8
 1477 00c8 93F90030 		ldrsb	r3, [r3]
 1478 00cc 012B     		cmp	r3, #1
 1479 00ce 05D1     		bne	.L70
 434:main.c        ****         {
 435:main.c        ****             UART_1_PutString("5");
 1480              		.loc 1 435 0
 1481 00d0 5B48     		ldr	r0, .L81+28
 1482 00d2 FFF7FEFF 		bl	UART_1_PutString
 436:main.c        ****             terminalOutputEnable = FALSE;
 1483              		.loc 1 436 0
 1484 00d6 554B     		ldr	r3, .L81+8
 1485 00d8 0022     		movs	r2, #0
 1486 00da 1A70     		strb	r2, [r3]
 1487              	.L70:
 437:main.c        ****         }
 438:main.c        ****     }
 439:main.c        ****     if ( (lo == loFrequency[2]) && (hi == hiFrequency[3]))
 1488              		.loc 1 439 0
 1489 00dc 514B     		ldr	r3, .L81
 1490 00de 9A68     		ldr	r2, [r3, #8]
 1491 00e0 7B68     		ldr	r3, [r7, #4]
 1492 00e2 9A42     		cmp	r2, r3
 1493 00e4 0FD1     		bne	.L71
 1494              		.loc 1 439 0 is_stmt 0 discriminator 1
 1495 00e6 504B     		ldr	r3, .L81+4
 1496 00e8 DA68     		ldr	r2, [r3, #12]
 1497 00ea 3B68     		ldr	r3, [r7]
 1498 00ec 9A42     		cmp	r2, r3
 1499 00ee 0AD1     		bne	.L71
 440:main.c        ****     {
 441:main.c        ****         if (terminalOutputEnable == TRUE)
 1500              		.loc 1 441 0 is_stmt 1
 1501 00f0 4E4B     		ldr	r3, .L81+8
 1502 00f2 93F90030 		ldrsb	r3, [r3]
 1503 00f6 012B     		cmp	r3, #1
 1504 00f8 05D1     		bne	.L71
 442:main.c        ****         {
 443:main.c        ****             UART_1_PutString("6");
 1505              		.loc 1 443 0
 1506 00fa 5248     		ldr	r0, .L81+32
 1507 00fc FFF7FEFF 		bl	UART_1_PutString
 444:main.c        ****             terminalOutputEnable = FALSE;
 1508              		.loc 1 444 0
 1509 0100 4A4B     		ldr	r3, .L81+8
 1510 0102 0022     		movs	r2, #0
 1511 0104 1A70     		strb	r2, [r3]
 1512              	.L71:
 445:main.c        ****         }
 446:main.c        ****     }
 447:main.c        ****     
 448:main.c        ****     // Keys 7,8,9   
 449:main.c        ****     if ( (lo == loFrequency[3]) && (hi == hiFrequency[1]))
 1513              		.loc 1 449 0
 1514 0106 474B     		ldr	r3, .L81
 1515 0108 DA68     		ldr	r2, [r3, #12]
ARM GAS  C:\Users\riveraes\AppData\Local\Temp\ccmEdq2f.s 			page 36


 1516 010a 7B68     		ldr	r3, [r7, #4]
 1517 010c 9A42     		cmp	r2, r3
 1518 010e 0FD1     		bne	.L72
 1519              		.loc 1 449 0 is_stmt 0 discriminator 1
 1520 0110 454B     		ldr	r3, .L81+4
 1521 0112 5A68     		ldr	r2, [r3, #4]
 1522 0114 3B68     		ldr	r3, [r7]
 1523 0116 9A42     		cmp	r2, r3
 1524 0118 0AD1     		bne	.L72
 450:main.c        ****     {
 451:main.c        ****         if (terminalOutputEnable == TRUE)
 1525              		.loc 1 451 0 is_stmt 1
 1526 011a 444B     		ldr	r3, .L81+8
 1527 011c 93F90030 		ldrsb	r3, [r3]
 1528 0120 012B     		cmp	r3, #1
 1529 0122 05D1     		bne	.L72
 452:main.c        ****         {
 453:main.c        ****             UART_1_PutString("7");
 1530              		.loc 1 453 0
 1531 0124 4848     		ldr	r0, .L81+36
 1532 0126 FFF7FEFF 		bl	UART_1_PutString
 454:main.c        ****             terminalOutputEnable = FALSE;
 1533              		.loc 1 454 0
 1534 012a 404B     		ldr	r3, .L81+8
 1535 012c 0022     		movs	r2, #0
 1536 012e 1A70     		strb	r2, [r3]
 1537              	.L72:
 455:main.c        ****         }
 456:main.c        ****     }
 457:main.c        ****     if ( (lo == loFrequency[3]) && (hi == hiFrequency[2]))
 1538              		.loc 1 457 0
 1539 0130 3C4B     		ldr	r3, .L81
 1540 0132 DA68     		ldr	r2, [r3, #12]
 1541 0134 7B68     		ldr	r3, [r7, #4]
 1542 0136 9A42     		cmp	r2, r3
 1543 0138 0FD1     		bne	.L73
 1544              		.loc 1 457 0 is_stmt 0 discriminator 1
 1545 013a 3B4B     		ldr	r3, .L81+4
 1546 013c 9A68     		ldr	r2, [r3, #8]
 1547 013e 3B68     		ldr	r3, [r7]
 1548 0140 9A42     		cmp	r2, r3
 1549 0142 0AD1     		bne	.L73
 458:main.c        ****     {
 459:main.c        ****         if (terminalOutputEnable == TRUE)
 1550              		.loc 1 459 0 is_stmt 1
 1551 0144 394B     		ldr	r3, .L81+8
 1552 0146 93F90030 		ldrsb	r3, [r3]
 1553 014a 012B     		cmp	r3, #1
 1554 014c 05D1     		bne	.L73
 460:main.c        ****         {
 461:main.c        ****             UART_1_PutString("8");
 1555              		.loc 1 461 0
 1556 014e 3F48     		ldr	r0, .L81+40
 1557 0150 FFF7FEFF 		bl	UART_1_PutString
 462:main.c        ****             terminalOutputEnable = FALSE;
 1558              		.loc 1 462 0
 1559 0154 354B     		ldr	r3, .L81+8
ARM GAS  C:\Users\riveraes\AppData\Local\Temp\ccmEdq2f.s 			page 37


 1560 0156 0022     		movs	r2, #0
 1561 0158 1A70     		strb	r2, [r3]
 1562              	.L73:
 463:main.c        ****         }
 464:main.c        ****     }
 465:main.c        ****     if ( (lo == loFrequency[3]) && (hi == hiFrequency[3]))
 1563              		.loc 1 465 0
 1564 015a 324B     		ldr	r3, .L81
 1565 015c DA68     		ldr	r2, [r3, #12]
 1566 015e 7B68     		ldr	r3, [r7, #4]
 1567 0160 9A42     		cmp	r2, r3
 1568 0162 0FD1     		bne	.L74
 1569              		.loc 1 465 0 is_stmt 0 discriminator 1
 1570 0164 304B     		ldr	r3, .L81+4
 1571 0166 DA68     		ldr	r2, [r3, #12]
 1572 0168 3B68     		ldr	r3, [r7]
 1573 016a 9A42     		cmp	r2, r3
 1574 016c 0AD1     		bne	.L74
 466:main.c        ****     {
 467:main.c        ****         if (terminalOutputEnable == TRUE)
 1575              		.loc 1 467 0 is_stmt 1
 1576 016e 2F4B     		ldr	r3, .L81+8
 1577 0170 93F90030 		ldrsb	r3, [r3]
 1578 0174 012B     		cmp	r3, #1
 1579 0176 05D1     		bne	.L74
 468:main.c        ****         {
 469:main.c        ****             UART_1_PutString("9");
 1580              		.loc 1 469 0
 1581 0178 3548     		ldr	r0, .L81+44
 1582 017a FFF7FEFF 		bl	UART_1_PutString
 470:main.c        ****             terminalOutputEnable = FALSE;
 1583              		.loc 1 470 0
 1584 017e 2B4B     		ldr	r3, .L81+8
 1585 0180 0022     		movs	r2, #0
 1586 0182 1A70     		strb	r2, [r3]
 1587              	.L74:
 471:main.c        ****         }
 472:main.c        ****     }
 473:main.c        ****     
 474:main.c        ****     // Keys *,0,#    
 475:main.c        ****     if ( (lo == loFrequency[4]) && (hi == hiFrequency[1]))
 1588              		.loc 1 475 0
 1589 0184 274B     		ldr	r3, .L81
 1590 0186 1A69     		ldr	r2, [r3, #16]
 1591 0188 7B68     		ldr	r3, [r7, #4]
 1592 018a 9A42     		cmp	r2, r3
 1593 018c 0FD1     		bne	.L75
 1594              		.loc 1 475 0 is_stmt 0 discriminator 1
 1595 018e 264B     		ldr	r3, .L81+4
 1596 0190 5A68     		ldr	r2, [r3, #4]
 1597 0192 3B68     		ldr	r3, [r7]
 1598 0194 9A42     		cmp	r2, r3
 1599 0196 0AD1     		bne	.L75
 476:main.c        ****     {
 477:main.c        ****         if (terminalOutputEnable == TRUE)
 1600              		.loc 1 477 0 is_stmt 1
 1601 0198 244B     		ldr	r3, .L81+8
ARM GAS  C:\Users\riveraes\AppData\Local\Temp\ccmEdq2f.s 			page 38


 1602 019a 93F90030 		ldrsb	r3, [r3]
 1603 019e 012B     		cmp	r3, #1
 1604 01a0 05D1     		bne	.L75
 478:main.c        ****         {
 479:main.c        ****             UART_1_PutString("*");
 1605              		.loc 1 479 0
 1606 01a2 2C48     		ldr	r0, .L81+48
 1607 01a4 FFF7FEFF 		bl	UART_1_PutString
 480:main.c        ****             terminalOutputEnable = FALSE;
 1608              		.loc 1 480 0
 1609 01a8 204B     		ldr	r3, .L81+8
 1610 01aa 0022     		movs	r2, #0
 1611 01ac 1A70     		strb	r2, [r3]
 1612              	.L75:
 481:main.c        ****         }
 482:main.c        ****     }
 483:main.c        ****     if ( (lo == loFrequency[4]) && (hi == hiFrequency[2]))
 1613              		.loc 1 483 0
 1614 01ae 1D4B     		ldr	r3, .L81
 1615 01b0 1A69     		ldr	r2, [r3, #16]
 1616 01b2 7B68     		ldr	r3, [r7, #4]
 1617 01b4 9A42     		cmp	r2, r3
 1618 01b6 0FD1     		bne	.L76
 1619              		.loc 1 483 0 is_stmt 0 discriminator 1
 1620 01b8 1B4B     		ldr	r3, .L81+4
 1621 01ba 9A68     		ldr	r2, [r3, #8]
 1622 01bc 3B68     		ldr	r3, [r7]
 1623 01be 9A42     		cmp	r2, r3
 1624 01c0 0AD1     		bne	.L76
 484:main.c        ****     {
 485:main.c        ****         if (terminalOutputEnable == TRUE)
 1625              		.loc 1 485 0 is_stmt 1
 1626 01c2 1A4B     		ldr	r3, .L81+8
 1627 01c4 93F90030 		ldrsb	r3, [r3]
 1628 01c8 012B     		cmp	r3, #1
 1629 01ca 05D1     		bne	.L76
 486:main.c        ****         {
 487:main.c        ****             UART_1_PutString("0");
 1630              		.loc 1 487 0
 1631 01cc 2248     		ldr	r0, .L81+52
 1632 01ce FFF7FEFF 		bl	UART_1_PutString
 488:main.c        ****             terminalOutputEnable = FALSE;
 1633              		.loc 1 488 0
 1634 01d2 164B     		ldr	r3, .L81+8
 1635 01d4 0022     		movs	r2, #0
 1636 01d6 1A70     		strb	r2, [r3]
 1637              	.L76:
 489:main.c        ****         }
 490:main.c        ****     }
 491:main.c        ****     if ( (lo == loFrequency[4]) && (hi == hiFrequency[3]))
 1638              		.loc 1 491 0
 1639 01d8 124B     		ldr	r3, .L81
 1640 01da 1A69     		ldr	r2, [r3, #16]
 1641 01dc 7B68     		ldr	r3, [r7, #4]
 1642 01de 9A42     		cmp	r2, r3
 1643 01e0 0FD1     		bne	.L77
 1644              		.loc 1 491 0 is_stmt 0 discriminator 1
ARM GAS  C:\Users\riveraes\AppData\Local\Temp\ccmEdq2f.s 			page 39


 1645 01e2 114B     		ldr	r3, .L81+4
 1646 01e4 DA68     		ldr	r2, [r3, #12]
 1647 01e6 3B68     		ldr	r3, [r7]
 1648 01e8 9A42     		cmp	r2, r3
 1649 01ea 0AD1     		bne	.L77
 492:main.c        ****     {
 493:main.c        ****         if (terminalOutputEnable == TRUE)
 1650              		.loc 1 493 0 is_stmt 1
 1651 01ec 0F4B     		ldr	r3, .L81+8
 1652 01ee 93F90030 		ldrsb	r3, [r3]
 1653 01f2 012B     		cmp	r3, #1
 1654 01f4 05D1     		bne	.L77
 494:main.c        ****         {
 495:main.c        ****             UART_1_PutString("#");
 1655              		.loc 1 495 0
 1656 01f6 1948     		ldr	r0, .L81+56
 1657 01f8 FFF7FEFF 		bl	UART_1_PutString
 496:main.c        ****             terminalOutputEnable = FALSE;
 1658              		.loc 1 496 0
 1659 01fc 0B4B     		ldr	r3, .L81+8
 1660 01fe 0022     		movs	r2, #0
 1661 0200 1A70     		strb	r2, [r3]
 1662              	.L77:
 497:main.c        ****         }
 498:main.c        ****     }
 499:main.c        ****     
 500:main.c        ****     // Dummy Frequencies    
 501:main.c        ****     if ( (lo == loFrequency[0]) || (hi == hiFrequency[0]) )
 1663              		.loc 1 501 0
 1664 0202 084B     		ldr	r3, .L81
 1665 0204 1A68     		ldr	r2, [r3]
 1666 0206 7B68     		ldr	r3, [r7, #4]
 1667 0208 9A42     		cmp	r2, r3
 1668 020a 04D0     		beq	.L78
 1669              		.loc 1 501 0 is_stmt 0 discriminator 1
 1670 020c 064B     		ldr	r3, .L81+4
 1671 020e 1A68     		ldr	r2, [r3]
 1672 0210 3B68     		ldr	r3, [r7]
 1673 0212 9A42     		cmp	r2, r3
 1674 0214 02D1     		bne	.L80
 1675              	.L78:
 502:main.c        ****     {
 503:main.c        ****         //UART_1_PutString(".");
 504:main.c        ****         terminalOutputEnable = TRUE;
 1676              		.loc 1 504 0 is_stmt 1
 1677 0216 054B     		ldr	r3, .L81+8
 1678 0218 0122     		movs	r2, #1
 1679 021a 1A70     		strb	r2, [r3]
 1680              	.L80:
 505:main.c        ****     }
 506:main.c        ****  
 507:main.c        **** }
 1681              		.loc 1 507 0
 1682 021c 00BF     		nop
 1683 021e 0837     		adds	r7, r7, #8
 1684              		.cfi_def_cfa_offset 8
 1685 0220 BD46     		mov	sp, r7
ARM GAS  C:\Users\riveraes\AppData\Local\Temp\ccmEdq2f.s 			page 40


 1686              		.cfi_def_cfa_register 13
 1687              		@ sp needed
 1688 0222 80BD     		pop	{r7, pc}
 1689              	.L82:
 1690              		.align	2
 1691              	.L81:
 1692 0224 00000000 		.word	loFrequency
 1693 0228 00000000 		.word	hiFrequency
 1694 022c 00000000 		.word	terminalOutputEnable
 1695 0230 90000000 		.word	.LC17
 1696 0234 94000000 		.word	.LC18
 1697 0238 98000000 		.word	.LC19
 1698 023c 9C000000 		.word	.LC20
 1699 0240 A0000000 		.word	.LC21
 1700 0244 A4000000 		.word	.LC22
 1701 0248 A8000000 		.word	.LC23
 1702 024c AC000000 		.word	.LC24
 1703 0250 B0000000 		.word	.LC25
 1704 0254 B4000000 		.word	.LC26
 1705 0258 B8000000 		.word	.LC27
 1706 025c BC000000 		.word	.LC28
 1707              		.cfi_endproc
 1708              	.LFE73:
 1709              		.size	DecodeInput, .-DecodeInput
 1710              		.text
 1711              	.Letext0:
 1712              		.file 2 "c:\\program files (x86)\\cypress\\psoc creator\\4.1\\psoc creator\\import\\gnu\\arm\\5.4.
 1713              		.file 3 "c:\\program files (x86)\\cypress\\psoc creator\\4.1\\psoc creator\\import\\gnu\\arm\\5.4.
 1714              		.file 4 "Generated_Source\\PSoC5/cytypes.h"
 1715              		.file 5 "Generated_Source\\PSoC5/core_cm3.h"